   1              		.cpu cortex-m4
   2              		.eabi_attribute 20, 1
   3              		.eabi_attribute 21, 1
   4              		.eabi_attribute 23, 3
   5              		.eabi_attribute 24, 1
   6              		.eabi_attribute 25, 1
   7              		.eabi_attribute 26, 1
   8              		.eabi_attribute 30, 4
   9              		.eabi_attribute 34, 1
  10              		.eabi_attribute 18, 4
  11              		.file	"Rx1.c"
  12              		.text
  13              	.Ltext0:
  14              		.cfi_sections	.debug_frame
  15              		.align	1
  16              		.global	Rx1_Put
  17              		.arch armv7e-m
  18              		.syntax unified
  19              		.thumb
  20              		.thumb_func
  21              		.fpu softvfp
  23              	Rx1_Put:
  24              	.LVL0:
  25              	.LFB0:
  26              		.file 1 "hal/Landungsbruecke/freescale/USB_CDC/Rx1.c"
   1:hal/Landungsbruecke/freescale/USB_CDC/Rx1.c **** /* ###################################################################
   2:hal/Landungsbruecke/freescale/USB_CDC/Rx1.c **** **     THIS COMPONENT MODULE IS GENERATED BY THE TOOL. DO NOT MODIFY IT.
   3:hal/Landungsbruecke/freescale/USB_CDC/Rx1.c **** **     Filename    : Rx1.c
   4:hal/Landungsbruecke/freescale/USB_CDC/Rx1.c **** **     Project     : Landungsbruecke_KDS_v2.0.0
   5:hal/Landungsbruecke/freescale/USB_CDC/Rx1.c **** **     Processor   : MK20DN512VLL10
   6:hal/Landungsbruecke/freescale/USB_CDC/Rx1.c **** **     Component   : RingBuffer
   7:hal/Landungsbruecke/freescale/USB_CDC/Rx1.c **** **     Version     : Component 01.025, Driver 01.00, CPU db: 3.00.000
   8:hal/Landungsbruecke/freescale/USB_CDC/Rx1.c **** **     Compiler    : GNU C Compiler
   9:hal/Landungsbruecke/freescale/USB_CDC/Rx1.c **** **     Date/Time   : 2015-01-09, 16:27, # CodeGen: 0
  10:hal/Landungsbruecke/freescale/USB_CDC/Rx1.c **** **     Abstract    :
  11:hal/Landungsbruecke/freescale/USB_CDC/Rx1.c **** **         This component implements a ring buffer for different integer data type.
  12:hal/Landungsbruecke/freescale/USB_CDC/Rx1.c **** **     Settings    :
  13:hal/Landungsbruecke/freescale/USB_CDC/Rx1.c **** **          Component name                                 : Rx1
  14:hal/Landungsbruecke/freescale/USB_CDC/Rx1.c **** **          Buffer Size                                    : 1
  15:hal/Landungsbruecke/freescale/USB_CDC/Rx1.c **** **     Contents    :
  16:hal/Landungsbruecke/freescale/USB_CDC/Rx1.c **** **         Clear           - void Rx1_Clear(void);
  17:hal/Landungsbruecke/freescale/USB_CDC/Rx1.c **** **         Put             - byte Rx1_Put(Rx1_ElementType elem);
  18:hal/Landungsbruecke/freescale/USB_CDC/Rx1.c **** **         Get             - byte Rx1_Get(Rx1_ElementType *elemP);
  19:hal/Landungsbruecke/freescale/USB_CDC/Rx1.c **** **         NofElements     - Rx1_BufSizeType Rx1_NofElements(void);
  20:hal/Landungsbruecke/freescale/USB_CDC/Rx1.c **** **         NofFreeElements - Rx1_BufSizeType Rx1_NofFreeElements(void);
  21:hal/Landungsbruecke/freescale/USB_CDC/Rx1.c **** **         Init            - void Rx1_Init(void);
  22:hal/Landungsbruecke/freescale/USB_CDC/Rx1.c **** **
  23:hal/Landungsbruecke/freescale/USB_CDC/Rx1.c **** **     License   :  Open Source (LGPL)
  24:hal/Landungsbruecke/freescale/USB_CDC/Rx1.c **** **     Copyright : (c) Copyright Erich Styger, 2014, all rights reserved.
  25:hal/Landungsbruecke/freescale/USB_CDC/Rx1.c **** **     Web: http://www.mcuoneclipse.com
  26:hal/Landungsbruecke/freescale/USB_CDC/Rx1.c **** **     This an open source software of an embedded component for Processor Expert.
  27:hal/Landungsbruecke/freescale/USB_CDC/Rx1.c **** **     This is a free software and is opened for education,  research  and commercial developments 
  28:hal/Landungsbruecke/freescale/USB_CDC/Rx1.c **** **     * This is a free software and there is NO WARRANTY.
  29:hal/Landungsbruecke/freescale/USB_CDC/Rx1.c **** **     * No restriction on use. You can use, modify and redistribute it for personal, non-profit or
  30:hal/Landungsbruecke/freescale/USB_CDC/Rx1.c **** **     * Redistributions of source code must retain the above copyright notice.
  31:hal/Landungsbruecke/freescale/USB_CDC/Rx1.c **** ** ###################################################################*/
  32:hal/Landungsbruecke/freescale/USB_CDC/Rx1.c **** /*!
  33:hal/Landungsbruecke/freescale/USB_CDC/Rx1.c **** ** @file Rx1.c
  34:hal/Landungsbruecke/freescale/USB_CDC/Rx1.c **** ** @version 01.00
  35:hal/Landungsbruecke/freescale/USB_CDC/Rx1.c **** ** @brief
  36:hal/Landungsbruecke/freescale/USB_CDC/Rx1.c **** **         This component implements a ring buffer for different integer data type.
  37:hal/Landungsbruecke/freescale/USB_CDC/Rx1.c **** */
  38:hal/Landungsbruecke/freescale/USB_CDC/Rx1.c **** /*!
  39:hal/Landungsbruecke/freescale/USB_CDC/Rx1.c **** **  @addtogroup Rx1_module Rx1 module documentation
  40:hal/Landungsbruecke/freescale/USB_CDC/Rx1.c **** **  @{
  41:hal/Landungsbruecke/freescale/USB_CDC/Rx1.c **** */
  42:hal/Landungsbruecke/freescale/USB_CDC/Rx1.c **** 
  43:hal/Landungsbruecke/freescale/USB_CDC/Rx1.c **** /* MODULE Rx1. */
  44:hal/Landungsbruecke/freescale/USB_CDC/Rx1.c **** 
  45:hal/Landungsbruecke/freescale/USB_CDC/Rx1.c **** #include "Rx1.h"
  46:hal/Landungsbruecke/freescale/USB_CDC/Rx1.c **** 
  47:hal/Landungsbruecke/freescale/USB_CDC/Rx1.c **** #if Rx1_IS_REENTRANT
  48:hal/Landungsbruecke/freescale/USB_CDC/Rx1.c ****   #define Rx1_DEFINE_CRITICAL() CS1_CriticalVariable()
  49:hal/Landungsbruecke/freescale/USB_CDC/Rx1.c ****   #define Rx1_ENTER_CRITICAL()  CS1_EnterCritical()
  50:hal/Landungsbruecke/freescale/USB_CDC/Rx1.c ****   #define Rx1_EXIT_CRITICAL()   CS1_ExitCritical()
  51:hal/Landungsbruecke/freescale/USB_CDC/Rx1.c **** #else
  52:hal/Landungsbruecke/freescale/USB_CDC/Rx1.c ****   #define Rx1_DEFINE_CRITICAL() /* nothing */
  53:hal/Landungsbruecke/freescale/USB_CDC/Rx1.c ****   #define Rx1_ENTER_CRITICAL()  /* nothing */
  54:hal/Landungsbruecke/freescale/USB_CDC/Rx1.c ****   #define Rx1_EXIT_CRITICAL()   /* nothing */
  55:hal/Landungsbruecke/freescale/USB_CDC/Rx1.c **** #endif
  56:hal/Landungsbruecke/freescale/USB_CDC/Rx1.c **** static Rx1_ElementType Rx1_buffer[Rx1_BUF_SIZE]; /* ring buffer */
  57:hal/Landungsbruecke/freescale/USB_CDC/Rx1.c **** static Rx1_BufSizeType Rx1_inIdx;  /* input index */
  58:hal/Landungsbruecke/freescale/USB_CDC/Rx1.c **** static Rx1_BufSizeType Rx1_outIdx; /* output index */
  59:hal/Landungsbruecke/freescale/USB_CDC/Rx1.c **** static Rx1_BufSizeType Rx1_inSize; /* size data in buffer */
  60:hal/Landungsbruecke/freescale/USB_CDC/Rx1.c **** /*
  61:hal/Landungsbruecke/freescale/USB_CDC/Rx1.c **** ** ===================================================================
  62:hal/Landungsbruecke/freescale/USB_CDC/Rx1.c **** **     Method      :  Rx1_Put (component RingBuffer)
  63:hal/Landungsbruecke/freescale/USB_CDC/Rx1.c **** **     Description :
  64:hal/Landungsbruecke/freescale/USB_CDC/Rx1.c **** **         Puts a new element into the buffer
  65:hal/Landungsbruecke/freescale/USB_CDC/Rx1.c **** **     Parameters  :
  66:hal/Landungsbruecke/freescale/USB_CDC/Rx1.c **** **         NAME            - DESCRIPTION
  67:hal/Landungsbruecke/freescale/USB_CDC/Rx1.c **** **         elem            - New element to be put into the buffer
  68:hal/Landungsbruecke/freescale/USB_CDC/Rx1.c **** **     Returns     :
  69:hal/Landungsbruecke/freescale/USB_CDC/Rx1.c **** **         ---             - Error code
  70:hal/Landungsbruecke/freescale/USB_CDC/Rx1.c **** ** ===================================================================
  71:hal/Landungsbruecke/freescale/USB_CDC/Rx1.c **** */
  72:hal/Landungsbruecke/freescale/USB_CDC/Rx1.c **** byte Rx1_Put(Rx1_ElementType elem)
  73:hal/Landungsbruecke/freescale/USB_CDC/Rx1.c **** {
  27              		.loc 1 73 1 view -0
  28              		.cfi_startproc
  29              		@ args = 0, pretend = 0, frame = 0
  30              		@ frame_needed = 0, uses_anonymous_args = 0
  74:hal/Landungsbruecke/freescale/USB_CDC/Rx1.c ****   byte res = ERR_OK;
  31              		.loc 1 74 3 view .LVU1
  75:hal/Landungsbruecke/freescale/USB_CDC/Rx1.c ****   Rx1_DEFINE_CRITICAL();
  32              		.loc 1 75 24 view .LVU2
  76:hal/Landungsbruecke/freescale/USB_CDC/Rx1.c **** 
  77:hal/Landungsbruecke/freescale/USB_CDC/Rx1.c ****   Rx1_ENTER_CRITICAL();
  33              		.loc 1 77 23 view .LVU3
  78:hal/Landungsbruecke/freescale/USB_CDC/Rx1.c ****   if(Rx1_inSize==Rx1_BUF_SIZE) {
  34              		.loc 1 78 3 view .LVU4
  73:hal/Landungsbruecke/freescale/USB_CDC/Rx1.c ****   byte res = ERR_OK;
  35              		.loc 1 73 1 is_stmt 0 view .LVU5
  36 0000 10B5     		push	{r4, lr}
  37              	.LCFI0:
  38              		.cfi_def_cfa_offset 8
  39              		.cfi_offset 4, -8
  40              		.cfi_offset 14, -4
  41              		.loc 1 78 16 view .LVU6
  42 0002 0A4A     		ldr	r2, .L5
  43 0004 1178     		ldrb	r1, [r2]	@ zero_extendqisi2
  44              		.loc 1 78 5 view .LVU7
  45 0006 4029     		cmp	r1, #64
  46 0008 0ED0     		beq	.L4
  79:hal/Landungsbruecke/freescale/USB_CDC/Rx1.c ****     res = ERR_TXFULL;
  80:hal/Landungsbruecke/freescale/USB_CDC/Rx1.c ****   } else {
  81:hal/Landungsbruecke/freescale/USB_CDC/Rx1.c ****     Rx1_buffer[Rx1_inIdx] = elem;
  47              		.loc 1 81 5 is_stmt 1 view .LVU8
  48              		.loc 1 81 15 is_stmt 0 view .LVU9
  49 000a 5378     		ldrb	r3, [r2, #1]	@ zero_extendqisi2
  50              		.loc 1 81 27 view .LVU10
  51 000c D418     		adds	r4, r2, r3
  82:hal/Landungsbruecke/freescale/USB_CDC/Rx1.c ****     Rx1_inSize++;
  83:hal/Landungsbruecke/freescale/USB_CDC/Rx1.c ****     Rx1_inIdx++;
  52              		.loc 1 83 14 view .LVU11
  53 000e 0133     		adds	r3, r3, #1
  54 0010 DBB2     		uxtb	r3, r3
  84:hal/Landungsbruecke/freescale/USB_CDC/Rx1.c ****     if(Rx1_inIdx==Rx1_BUF_SIZE) {
  55              		.loc 1 84 7 view .LVU12
  56 0012 402B     		cmp	r3, #64
  81:hal/Landungsbruecke/freescale/USB_CDC/Rx1.c ****     Rx1_inSize++;
  57              		.loc 1 81 27 view .LVU13
  58 0014 A070     		strb	r0, [r4, #2]
  82:hal/Landungsbruecke/freescale/USB_CDC/Rx1.c ****     Rx1_inSize++;
  59              		.loc 1 82 5 is_stmt 1 view .LVU14
  82:hal/Landungsbruecke/freescale/USB_CDC/Rx1.c ****     Rx1_inSize++;
  60              		.loc 1 82 15 is_stmt 0 view .LVU15
  61 0016 01F10101 		add	r1, r1, #1
  62 001a 4FF00000 		mov	r0, #0
  63              	.LVL1:
  82:hal/Landungsbruecke/freescale/USB_CDC/Rx1.c ****     Rx1_inSize++;
  64              		.loc 1 82 15 view .LVU16
  65 001e 1170     		strb	r1, [r2]
  83:hal/Landungsbruecke/freescale/USB_CDC/Rx1.c ****     if(Rx1_inIdx==Rx1_BUF_SIZE) {
  66              		.loc 1 83 5 is_stmt 1 view .LVU17
  67              		.loc 1 84 5 view .LVU18
  83:hal/Landungsbruecke/freescale/USB_CDC/Rx1.c ****     if(Rx1_inIdx==Rx1_BUF_SIZE) {
  68              		.loc 1 83 14 is_stmt 0 view .LVU19
  69 0020 14BF     		ite	ne
  70 0022 5370     		strbne	r3, [r2, #1]
  85:hal/Landungsbruecke/freescale/USB_CDC/Rx1.c ****       Rx1_inIdx = 0;
  71              		.loc 1 85 7 is_stmt 1 view .LVU20
  72              		.loc 1 85 17 is_stmt 0 view .LVU21
  73 0024 5070     		strbeq	r0, [r2, #1]
  74              	.LVL2:
  75              	.L2:
  86:hal/Landungsbruecke/freescale/USB_CDC/Rx1.c ****     }
  87:hal/Landungsbruecke/freescale/USB_CDC/Rx1.c ****   }
  88:hal/Landungsbruecke/freescale/USB_CDC/Rx1.c ****   Rx1_EXIT_CRITICAL();
  76              		.loc 1 88 22 is_stmt 1 view .LVU22
  89:hal/Landungsbruecke/freescale/USB_CDC/Rx1.c ****   return res;
  77              		.loc 1 89 3 view .LVU23
  90:hal/Landungsbruecke/freescale/USB_CDC/Rx1.c **** }
  78              		.loc 1 90 1 is_stmt 0 view .LVU24
  79 0026 10BD     		pop	{r4, pc}
  80              	.LVL3:
  81              	.L4:
  79:hal/Landungsbruecke/freescale/USB_CDC/Rx1.c ****   } else {
  82              		.loc 1 79 9 view .LVU25
  83 0028 0B20     		movs	r0, #11
  84              	.LVL4:
  79:hal/Landungsbruecke/freescale/USB_CDC/Rx1.c ****   } else {
  85              		.loc 1 79 9 view .LVU26
  86 002a FCE7     		b	.L2
  87              	.L6:
  88              		.align	2
  89              	.L5:
  90 002c 00000000 		.word	.LANCHOR0
  91              		.cfi_endproc
  92              	.LFE0:
  94              		.align	1
  95              		.global	Rx1_Get
  96              		.syntax unified
  97              		.thumb
  98              		.thumb_func
  99              		.fpu softvfp
 101              	Rx1_Get:
 102              	.LVL5:
 103              	.LFB1:
  91:hal/Landungsbruecke/freescale/USB_CDC/Rx1.c **** 
  92:hal/Landungsbruecke/freescale/USB_CDC/Rx1.c **** /*
  93:hal/Landungsbruecke/freescale/USB_CDC/Rx1.c **** ** ===================================================================
  94:hal/Landungsbruecke/freescale/USB_CDC/Rx1.c **** **     Method      :  Rx1_Get (component RingBuffer)
  95:hal/Landungsbruecke/freescale/USB_CDC/Rx1.c **** **     Description :
  96:hal/Landungsbruecke/freescale/USB_CDC/Rx1.c **** **         Removes an element from the buffer
  97:hal/Landungsbruecke/freescale/USB_CDC/Rx1.c **** **     Parameters  :
  98:hal/Landungsbruecke/freescale/USB_CDC/Rx1.c **** **         NAME            - DESCRIPTION
  99:hal/Landungsbruecke/freescale/USB_CDC/Rx1.c **** **       * elemP           - Pointer to where to store the received
 100:hal/Landungsbruecke/freescale/USB_CDC/Rx1.c **** **                           element
 101:hal/Landungsbruecke/freescale/USB_CDC/Rx1.c **** **     Returns     :
 102:hal/Landungsbruecke/freescale/USB_CDC/Rx1.c **** **         ---             - Error code
 103:hal/Landungsbruecke/freescale/USB_CDC/Rx1.c **** ** ===================================================================
 104:hal/Landungsbruecke/freescale/USB_CDC/Rx1.c **** */
 105:hal/Landungsbruecke/freescale/USB_CDC/Rx1.c **** byte Rx1_Get(Rx1_ElementType *elemP)
 106:hal/Landungsbruecke/freescale/USB_CDC/Rx1.c **** {
 104              		.loc 1 106 1 is_stmt 1 view -0
 105              		.cfi_startproc
 106              		@ args = 0, pretend = 0, frame = 0
 107              		@ frame_needed = 0, uses_anonymous_args = 0
 107:hal/Landungsbruecke/freescale/USB_CDC/Rx1.c ****   byte res = ERR_OK;
 108              		.loc 1 107 3 view .LVU28
 108:hal/Landungsbruecke/freescale/USB_CDC/Rx1.c ****   Rx1_DEFINE_CRITICAL();
 109              		.loc 1 108 24 view .LVU29
 109:hal/Landungsbruecke/freescale/USB_CDC/Rx1.c **** 
 110:hal/Landungsbruecke/freescale/USB_CDC/Rx1.c ****   Rx1_ENTER_CRITICAL();
 110              		.loc 1 110 23 view .LVU30
 111:hal/Landungsbruecke/freescale/USB_CDC/Rx1.c ****   if(Rx1_inSize==0) {
 111              		.loc 1 111 3 view .LVU31
 106:hal/Landungsbruecke/freescale/USB_CDC/Rx1.c ****   byte res = ERR_OK;
 112              		.loc 1 106 1 is_stmt 0 view .LVU32
 113 0030 10B5     		push	{r4, lr}
 114              	.LCFI1:
 115              		.cfi_def_cfa_offset 8
 116              		.cfi_offset 4, -8
 117              		.cfi_offset 14, -4
 118              		.loc 1 111 16 view .LVU33
 119 0032 0C4A     		ldr	r2, .L11
 120 0034 1178     		ldrb	r1, [r2]	@ zero_extendqisi2
 121              		.loc 1 111 5 view .LVU34
 122 0036 91B1     		cbz	r1, .L10
 112:hal/Landungsbruecke/freescale/USB_CDC/Rx1.c ****     res = ERR_RXEMPTY;
 113:hal/Landungsbruecke/freescale/USB_CDC/Rx1.c ****   } else {
 114:hal/Landungsbruecke/freescale/USB_CDC/Rx1.c ****     *elemP = Rx1_buffer[Rx1_outIdx];
 123              		.loc 1 114 5 is_stmt 1 view .LVU35
 124              		.loc 1 114 24 is_stmt 0 view .LVU36
 125 0038 92F84230 		ldrb	r3, [r2, #66]	@ zero_extendqisi2
 126 003c D418     		adds	r4, r2, r3
 115:hal/Landungsbruecke/freescale/USB_CDC/Rx1.c ****     Rx1_inSize--;
 116:hal/Landungsbruecke/freescale/USB_CDC/Rx1.c ****     Rx1_outIdx++;
 127              		.loc 1 116 15 view .LVU37
 128 003e 0133     		adds	r3, r3, #1
 129 0040 DBB2     		uxtb	r3, r3
 114:hal/Landungsbruecke/freescale/USB_CDC/Rx1.c ****     Rx1_inSize--;
 130              		.loc 1 114 12 view .LVU38
 131 0042 A478     		ldrb	r4, [r4, #2]	@ zero_extendqisi2
 132 0044 0470     		strb	r4, [r0]
 115:hal/Landungsbruecke/freescale/USB_CDC/Rx1.c ****     Rx1_inSize--;
 133              		.loc 1 115 5 is_stmt 1 view .LVU39
 117:hal/Landungsbruecke/freescale/USB_CDC/Rx1.c ****     if(Rx1_outIdx==Rx1_BUF_SIZE) {
 134              		.loc 1 117 7 is_stmt 0 view .LVU40
 135 0046 402B     		cmp	r3, #64
 115:hal/Landungsbruecke/freescale/USB_CDC/Rx1.c ****     Rx1_inSize--;
 136              		.loc 1 115 15 view .LVU41
 137 0048 01F1FF31 		add	r1, r1, #-1
 138 004c 4FF00000 		mov	r0, #0
 139              	.LVL6:
 115:hal/Landungsbruecke/freescale/USB_CDC/Rx1.c ****     Rx1_inSize--;
 140              		.loc 1 115 15 view .LVU42
 141 0050 1170     		strb	r1, [r2]
 116:hal/Landungsbruecke/freescale/USB_CDC/Rx1.c ****     if(Rx1_outIdx==Rx1_BUF_SIZE) {
 142              		.loc 1 116 5 is_stmt 1 view .LVU43
 143              		.loc 1 117 5 view .LVU44
 116:hal/Landungsbruecke/freescale/USB_CDC/Rx1.c ****     if(Rx1_outIdx==Rx1_BUF_SIZE) {
 144              		.loc 1 116 15 is_stmt 0 view .LVU45
 145 0052 14BF     		ite	ne
 146 0054 82F84230 		strbne	r3, [r2, #66]
 118:hal/Landungsbruecke/freescale/USB_CDC/Rx1.c ****       Rx1_outIdx = 0;
 147              		.loc 1 118 7 is_stmt 1 view .LVU46
 148              		.loc 1 118 18 is_stmt 0 view .LVU47
 149 0058 82F84200 		strbeq	r0, [r2, #66]
 150              	.L8:
 151              	.LVL7:
 119:hal/Landungsbruecke/freescale/USB_CDC/Rx1.c ****     }
 120:hal/Landungsbruecke/freescale/USB_CDC/Rx1.c ****   }
 121:hal/Landungsbruecke/freescale/USB_CDC/Rx1.c ****   Rx1_EXIT_CRITICAL();
 152              		.loc 1 121 22 is_stmt 1 view .LVU48
 122:hal/Landungsbruecke/freescale/USB_CDC/Rx1.c ****   return res;
 153              		.loc 1 122 3 view .LVU49
 123:hal/Landungsbruecke/freescale/USB_CDC/Rx1.c **** }
 154              		.loc 1 123 1 is_stmt 0 view .LVU50
 155 005c 10BD     		pop	{r4, pc}
 156              	.LVL8:
 157              	.L10:
 112:hal/Landungsbruecke/freescale/USB_CDC/Rx1.c ****   } else {
 158              		.loc 1 112 9 view .LVU51
 159 005e 0A20     		movs	r0, #10
 160              	.LVL9:
 112:hal/Landungsbruecke/freescale/USB_CDC/Rx1.c ****   } else {
 161              		.loc 1 112 9 view .LVU52
 162 0060 FCE7     		b	.L8
 163              	.L12:
 164 0062 00BF     		.align	2
 165              	.L11:
 166 0064 00000000 		.word	.LANCHOR0
 167              		.cfi_endproc
 168              	.LFE1:
 170              		.align	1
 171              		.global	Rx1_NofElements
 172              		.syntax unified
 173              		.thumb
 174              		.thumb_func
 175              		.fpu softvfp
 177              	Rx1_NofElements:
 178              	.LFB2:
 124:hal/Landungsbruecke/freescale/USB_CDC/Rx1.c **** 
 125:hal/Landungsbruecke/freescale/USB_CDC/Rx1.c **** /*
 126:hal/Landungsbruecke/freescale/USB_CDC/Rx1.c **** ** ===================================================================
 127:hal/Landungsbruecke/freescale/USB_CDC/Rx1.c **** **     Method      :  Rx1_NofElements (component RingBuffer)
 128:hal/Landungsbruecke/freescale/USB_CDC/Rx1.c **** **     Description :
 129:hal/Landungsbruecke/freescale/USB_CDC/Rx1.c **** **         Returns the actual number of elements in the buffer.
 130:hal/Landungsbruecke/freescale/USB_CDC/Rx1.c **** **     Parameters  : None
 131:hal/Landungsbruecke/freescale/USB_CDC/Rx1.c **** **     Returns     :
 132:hal/Landungsbruecke/freescale/USB_CDC/Rx1.c **** **         ---             - Number of elements in the buffer.
 133:hal/Landungsbruecke/freescale/USB_CDC/Rx1.c **** ** ===================================================================
 134:hal/Landungsbruecke/freescale/USB_CDC/Rx1.c **** */
 135:hal/Landungsbruecke/freescale/USB_CDC/Rx1.c **** Rx1_BufSizeType Rx1_NofElements(void)
 136:hal/Landungsbruecke/freescale/USB_CDC/Rx1.c **** {
 179              		.loc 1 136 1 is_stmt 1 view -0
 180              		.cfi_startproc
 181              		@ args = 0, pretend = 0, frame = 0
 182              		@ frame_needed = 0, uses_anonymous_args = 0
 183              		@ link register save eliminated.
 137:hal/Landungsbruecke/freescale/USB_CDC/Rx1.c ****   return Rx1_inSize;
 184              		.loc 1 137 3 view .LVU54
 138:hal/Landungsbruecke/freescale/USB_CDC/Rx1.c **** }
 185              		.loc 1 138 1 is_stmt 0 view .LVU55
 186 0068 014B     		ldr	r3, .L14
 187 006a 1878     		ldrb	r0, [r3]	@ zero_extendqisi2
 188 006c 7047     		bx	lr
 189              	.L15:
 190 006e 00BF     		.align	2
 191              	.L14:
 192 0070 00000000 		.word	.LANCHOR0
 193              		.cfi_endproc
 194              	.LFE2:
 196              		.align	1
 197              		.global	Rx1_NofFreeElements
 198              		.syntax unified
 199              		.thumb
 200              		.thumb_func
 201              		.fpu softvfp
 203              	Rx1_NofFreeElements:
 204              	.LFB3:
 139:hal/Landungsbruecke/freescale/USB_CDC/Rx1.c **** 
 140:hal/Landungsbruecke/freescale/USB_CDC/Rx1.c **** /*
 141:hal/Landungsbruecke/freescale/USB_CDC/Rx1.c **** ** ===================================================================
 142:hal/Landungsbruecke/freescale/USB_CDC/Rx1.c **** **     Method      :  Rx1_NofFreeElements (component RingBuffer)
 143:hal/Landungsbruecke/freescale/USB_CDC/Rx1.c **** **     Description :
 144:hal/Landungsbruecke/freescale/USB_CDC/Rx1.c **** **         Returns the actual number of free elements/space in the
 145:hal/Landungsbruecke/freescale/USB_CDC/Rx1.c **** **         buffer.
 146:hal/Landungsbruecke/freescale/USB_CDC/Rx1.c **** **     Parameters  : None
 147:hal/Landungsbruecke/freescale/USB_CDC/Rx1.c **** **     Returns     :
 148:hal/Landungsbruecke/freescale/USB_CDC/Rx1.c **** **         ---             - Number of elements in the buffer.
 149:hal/Landungsbruecke/freescale/USB_CDC/Rx1.c **** ** ===================================================================
 150:hal/Landungsbruecke/freescale/USB_CDC/Rx1.c **** */
 151:hal/Landungsbruecke/freescale/USB_CDC/Rx1.c **** Rx1_BufSizeType Rx1_NofFreeElements(void)
 152:hal/Landungsbruecke/freescale/USB_CDC/Rx1.c **** {
 205              		.loc 1 152 1 is_stmt 1 view -0
 206              		.cfi_startproc
 207              		@ args = 0, pretend = 0, frame = 0
 208              		@ frame_needed = 0, uses_anonymous_args = 0
 209              		@ link register save eliminated.
 153:hal/Landungsbruecke/freescale/USB_CDC/Rx1.c ****   return (Rx1_BufSizeType)(Rx1_BUF_SIZE-Rx1_inSize);
 210              		.loc 1 153 3 view .LVU57
 211              		.loc 1 153 10 is_stmt 0 view .LVU58
 212 0074 024B     		ldr	r3, .L17
 213 0076 1878     		ldrb	r0, [r3]	@ zero_extendqisi2
 214 0078 C0F14000 		rsb	r0, r0, #64
 154:hal/Landungsbruecke/freescale/USB_CDC/Rx1.c **** }
 215              		.loc 1 154 1 view .LVU59
 216 007c C0B2     		uxtb	r0, r0
 217 007e 7047     		bx	lr
 218              	.L18:
 219              		.align	2
 220              	.L17:
 221 0080 00000000 		.word	.LANCHOR0
 222              		.cfi_endproc
 223              	.LFE3:
 225              		.align	1
 226              		.global	Rx1_Init
 227              		.syntax unified
 228              		.thumb
 229              		.thumb_func
 230              		.fpu softvfp
 232              	Rx1_Init:
 233              	.LFB4:
 155:hal/Landungsbruecke/freescale/USB_CDC/Rx1.c **** 
 156:hal/Landungsbruecke/freescale/USB_CDC/Rx1.c **** /*
 157:hal/Landungsbruecke/freescale/USB_CDC/Rx1.c **** ** ===================================================================
 158:hal/Landungsbruecke/freescale/USB_CDC/Rx1.c **** **     Method      :  Rx1_Init (component RingBuffer)
 159:hal/Landungsbruecke/freescale/USB_CDC/Rx1.c **** **     Description :
 160:hal/Landungsbruecke/freescale/USB_CDC/Rx1.c **** **         Initializes the data structure
 161:hal/Landungsbruecke/freescale/USB_CDC/Rx1.c **** **     Parameters  : None
 162:hal/Landungsbruecke/freescale/USB_CDC/Rx1.c **** **     Returns     : Nothing
 163:hal/Landungsbruecke/freescale/USB_CDC/Rx1.c **** ** ===================================================================
 164:hal/Landungsbruecke/freescale/USB_CDC/Rx1.c **** */
 165:hal/Landungsbruecke/freescale/USB_CDC/Rx1.c **** void Rx1_Init(void)
 166:hal/Landungsbruecke/freescale/USB_CDC/Rx1.c **** {
 234              		.loc 1 166 1 is_stmt 1 view -0
 235              		.cfi_startproc
 236              		@ args = 0, pretend = 0, frame = 0
 237              		@ frame_needed = 0, uses_anonymous_args = 0
 238              		@ link register save eliminated.
 167:hal/Landungsbruecke/freescale/USB_CDC/Rx1.c ****   Rx1_inIdx = 0;
 239              		.loc 1 167 3 view .LVU61
 240              		.loc 1 167 13 is_stmt 0 view .LVU62
 241 0084 034B     		ldr	r3, .L20
 242 0086 0022     		movs	r2, #0
 243 0088 5A70     		strb	r2, [r3, #1]
 168:hal/Landungsbruecke/freescale/USB_CDC/Rx1.c ****   Rx1_outIdx = 0;
 244              		.loc 1 168 3 is_stmt 1 view .LVU63
 245              		.loc 1 168 14 is_stmt 0 view .LVU64
 246 008a 83F84220 		strb	r2, [r3, #66]
 169:hal/Landungsbruecke/freescale/USB_CDC/Rx1.c ****   Rx1_inSize = 0;
 247              		.loc 1 169 3 is_stmt 1 view .LVU65
 248              		.loc 1 169 14 is_stmt 0 view .LVU66
 249 008e 1A70     		strb	r2, [r3]
 170:hal/Landungsbruecke/freescale/USB_CDC/Rx1.c **** }
 250              		.loc 1 170 1 view .LVU67
 251 0090 7047     		bx	lr
 252              	.L21:
 253 0092 00BF     		.align	2
 254              	.L20:
 255 0094 00000000 		.word	.LANCHOR0
 256              		.cfi_endproc
 257              	.LFE4:
 259              		.align	1
 260              		.global	Rx1_Clear
 261              		.syntax unified
 262              		.thumb
 263              		.thumb_func
 264              		.fpu softvfp
 266              	Rx1_Clear:
 267              	.LFB5:
 171:hal/Landungsbruecke/freescale/USB_CDC/Rx1.c **** 
 172:hal/Landungsbruecke/freescale/USB_CDC/Rx1.c **** /*
 173:hal/Landungsbruecke/freescale/USB_CDC/Rx1.c **** ** ===================================================================
 174:hal/Landungsbruecke/freescale/USB_CDC/Rx1.c **** **     Method      :  Rx1_Clear (component RingBuffer)
 175:hal/Landungsbruecke/freescale/USB_CDC/Rx1.c **** **     Description :
 176:hal/Landungsbruecke/freescale/USB_CDC/Rx1.c **** **         Clear (empty) the ring buffer.
 177:hal/Landungsbruecke/freescale/USB_CDC/Rx1.c **** **     Parameters  : None
 178:hal/Landungsbruecke/freescale/USB_CDC/Rx1.c **** **     Returns     : Nothing
 179:hal/Landungsbruecke/freescale/USB_CDC/Rx1.c **** ** ===================================================================
 180:hal/Landungsbruecke/freescale/USB_CDC/Rx1.c **** */
 181:hal/Landungsbruecke/freescale/USB_CDC/Rx1.c **** void Rx1_Clear(void)
 182:hal/Landungsbruecke/freescale/USB_CDC/Rx1.c **** {
 268              		.loc 1 182 1 is_stmt 1 view -0
 269              		.cfi_startproc
 270              		@ args = 0, pretend = 0, frame = 0
 271              		@ frame_needed = 0, uses_anonymous_args = 0
 272              		@ link register save eliminated.
 183:hal/Landungsbruecke/freescale/USB_CDC/Rx1.c ****   Rx1_DEFINE_CRITICAL();
 273              		.loc 1 183 24 view .LVU69
 184:hal/Landungsbruecke/freescale/USB_CDC/Rx1.c **** 
 185:hal/Landungsbruecke/freescale/USB_CDC/Rx1.c ****   Rx1_ENTER_CRITICAL();
 274              		.loc 1 185 23 view .LVU70
 186:hal/Landungsbruecke/freescale/USB_CDC/Rx1.c ****   Rx1_Init();
 275              		.loc 1 186 3 view .LVU71
 276 0098 FFF7FEBF 		b	Rx1_Init
 277              	.LVL10:
 278              		.cfi_endproc
 279              	.LFE5:
 281              		.comm	Cpu,8,4
 282              		.bss
 283              		.set	.LANCHOR0,. + 0
 286              	Rx1_inSize:
 287 0000 00       		.space	1
 290              	Rx1_inIdx:
 291 0001 00       		.space	1
 294              	Rx1_buffer:
 295 0002 00000000 		.space	64
 295      00000000 
 295      00000000 
 295      00000000 
 295      00000000 
 298              	Rx1_outIdx:
 299 0042 00       		.space	1
 300              		.text
 301              	.Letext0:
 302              		.file 2 "c:\\program files (x86)\\gnu arm embedded toolchain\\9 2020-q2-update\\arm-none-eabi\\inc
 303              		.file 3 "c:\\program files (x86)\\gnu arm embedded toolchain\\9 2020-q2-update\\arm-none-eabi\\inc
 304              		.file 4 "TMC-API/tmc/helpers/Types.h"
 305              		.file 5 "c:\\program files (x86)\\gnu arm embedded toolchain\\9 2020-q2-update\\lib\\gcc\\arm-none
 306              		.file 6 "c:\\program files (x86)\\gnu arm embedded toolchain\\9 2020-q2-update\\arm-none-eabi\\inc
 307              		.file 7 "c:\\program files (x86)\\gnu arm embedded toolchain\\9 2020-q2-update\\arm-none-eabi\\inc
 308              		.file 8 "c:\\program files (x86)\\gnu arm embedded toolchain\\9 2020-q2-update\\arm-none-eabi\\inc
 309              		.file 9 "c:\\program files (x86)\\gnu arm embedded toolchain\\9 2020-q2-update\\arm-none-eabi\\inc
 310              		.file 10 "./hal/Landungsbruecke/freescale/Cpu.h"
 311              		.file 11 "hal/Landungsbruecke/freescale/USB_CDC/PE_Types.h"
 312              		.file 12 "hal/Landungsbruecke/freescale/USB_CDC/Rx1.h"