   1              		.cpu cortex-m4
   2              		.eabi_attribute 20, 1
   3              		.eabi_attribute 21, 1
   4              		.eabi_attribute 23, 3
   5              		.eabi_attribute 24, 1
   6              		.eabi_attribute 25, 1
   7              		.eabi_attribute 26, 1
   8              		.eabi_attribute 30, 4
   9              		.eabi_attribute 34, 1
  10              		.eabi_attribute 18, 4
  11              		.file	"TMC5072_eval.c"
  12              		.text
  13              	.Ltext0:
  14              		.cfi_sections	.debug_frame
  15              		.align	1
  16              		.arch armv7e-m
  17              		.syntax unified
  18              		.thumb
  19              		.thumb_func
  20              		.fpu softvfp
  22              	getMeasuredSpeed:
  23              	.LVL0:
  24              	.LFB13:
  25              		.file 1 "boards/TMC5072_eval.c"
   1:boards/TMC5072_eval.c **** #include "Board.h"
   2:boards/TMC5072_eval.c **** #include "tmc/ic/TMC5072/TMC5072.h"
   3:boards/TMC5072_eval.c **** 
   4:boards/TMC5072_eval.c **** #define ERRORS_VM        (1<<0)
   5:boards/TMC5072_eval.c **** #define ERRORS_VM_UNDER  (1<<1)
   6:boards/TMC5072_eval.c **** #define ERRORS_VM_OVER   (1<<2)
   7:boards/TMC5072_eval.c **** 
   8:boards/TMC5072_eval.c **** #define VM_MIN  50   // VM[V/10] min
   9:boards/TMC5072_eval.c **** #define VM_MAX  280  // VM[V/10] max +10%
  10:boards/TMC5072_eval.c **** 
  11:boards/TMC5072_eval.c **** #define DEFAULT_CHANNEL 0
  12:boards/TMC5072_eval.c **** 
  13:boards/TMC5072_eval.c **** static uint32_t right(uint8_t motor, int32_t velocity);
  14:boards/TMC5072_eval.c **** static uint32_t left(uint8_t motor, int32_t velocity);
  15:boards/TMC5072_eval.c **** static uint32_t rotate(uint8_t motor, int32_t velocity);
  16:boards/TMC5072_eval.c **** static uint32_t stop(uint8_t motor);
  17:boards/TMC5072_eval.c **** static uint32_t moveTo(uint8_t motor, int32_t position);
  18:boards/TMC5072_eval.c **** static uint32_t moveBy(uint8_t motor, int32_t *ticks);
  19:boards/TMC5072_eval.c **** 
  20:boards/TMC5072_eval.c **** static uint32_t GAP(uint8_t type, uint8_t motor, int32_t *value);
  21:boards/TMC5072_eval.c **** static uint32_t SAP(uint8_t type, uint8_t motor, int32_t value);
  22:boards/TMC5072_eval.c **** static void readRegister(uint8_t motor, uint8_t address, int32_t *value);
  23:boards/TMC5072_eval.c **** static void writeRegister(uint8_t motor, uint8_t address, int32_t value);
  24:boards/TMC5072_eval.c **** static uint32_t getMeasuredSpeed(uint8_t motor, int32_t *value);
  25:boards/TMC5072_eval.c **** 
  26:boards/TMC5072_eval.c **** static void periodicJob(uint32_t tick);
  27:boards/TMC5072_eval.c **** static void checkErrors	(uint32_t tick);
  28:boards/TMC5072_eval.c **** static void deInit(void);
  29:boards/TMC5072_eval.c **** static uint32_t userFunction(uint8_t type, uint8_t motor, int32_t *value);
  30:boards/TMC5072_eval.c **** 
  31:boards/TMC5072_eval.c **** static uint8_t reset();
  32:boards/TMC5072_eval.c **** static void configCallback(TMC5072TypeDef *tmc5072, ConfigState state);
  33:boards/TMC5072_eval.c **** static void enableDriver(DriverState state);
  34:boards/TMC5072_eval.c **** 
  35:boards/TMC5072_eval.c **** static SPIChannelTypeDef *TMC5072_SPIChannel;
  36:boards/TMC5072_eval.c **** static TMC5072TypeDef TMC5072;
  37:boards/TMC5072_eval.c **** static uint32_t vmax_position[TMC5072_MOTORS];
  38:boards/TMC5072_eval.c **** 
  39:boards/TMC5072_eval.c **** // Translate motor number to TMC5130TypeDef
  40:boards/TMC5072_eval.c **** // When using multiple ICs you can map them here
  41:boards/TMC5072_eval.c **** static inline TMC5072TypeDef *motorToIC(uint8_t motor)
  42:boards/TMC5072_eval.c **** {
  43:boards/TMC5072_eval.c **** 	UNUSED(motor);
  44:boards/TMC5072_eval.c **** 
  45:boards/TMC5072_eval.c **** 	return &TMC5072;
  46:boards/TMC5072_eval.c **** }
  47:boards/TMC5072_eval.c **** 
  48:boards/TMC5072_eval.c **** // Translate channel number to SPI channel
  49:boards/TMC5072_eval.c **** // When using multiple ICs you can map them here
  50:boards/TMC5072_eval.c **** static inline SPIChannelTypeDef *channelToSPI(uint8_t channel)
  51:boards/TMC5072_eval.c **** {
  52:boards/TMC5072_eval.c **** 	UNUSED(channel);
  53:boards/TMC5072_eval.c **** 
  54:boards/TMC5072_eval.c **** 	return TMC5072_SPIChannel;
  55:boards/TMC5072_eval.c **** }
  56:boards/TMC5072_eval.c **** 
  57:boards/TMC5072_eval.c **** // SPI Wrapper for API
  58:boards/TMC5072_eval.c **** void tmc5072_readWriteArray(uint8_t channel, uint8_t *data, size_t length)
  59:boards/TMC5072_eval.c **** {
  60:boards/TMC5072_eval.c **** 	// Map the channel to the corresponding SPI channel
  61:boards/TMC5072_eval.c **** 	channelToSPI(channel)->readWriteArray(data, length);
  62:boards/TMC5072_eval.c **** }
  63:boards/TMC5072_eval.c **** 
  64:boards/TMC5072_eval.c **** typedef struct
  65:boards/TMC5072_eval.c **** {
  66:boards/TMC5072_eval.c **** 	IOPinTypeDef  *DRV_ENN;
  67:boards/TMC5072_eval.c **** 	IOPinTypeDef  *INT_ENCA;
  68:boards/TMC5072_eval.c **** 	IOPinTypeDef  *PP_ENCB;
  69:boards/TMC5072_eval.c **** 	IOPinTypeDef  *SWSEL;
  70:boards/TMC5072_eval.c **** 	IOPinTypeDef  *SWIOP1;
  71:boards/TMC5072_eval.c **** 	IOPinTypeDef  *SWIOP2;
  72:boards/TMC5072_eval.c **** 	IOPinTypeDef  *SWION;
  73:boards/TMC5072_eval.c **** 
  74:boards/TMC5072_eval.c **** } PinsTypeDef;
  75:boards/TMC5072_eval.c **** 
  76:boards/TMC5072_eval.c **** static PinsTypeDef Pins;
  77:boards/TMC5072_eval.c **** 
  78:boards/TMC5072_eval.c **** // => Functions forwarded to API
  79:boards/TMC5072_eval.c **** static uint32_t rotate(uint8_t motor, int32_t velocity)
  80:boards/TMC5072_eval.c **** {
  81:boards/TMC5072_eval.c **** 	tmc5072_rotate(motorToIC(motor), motor, velocity);
  82:boards/TMC5072_eval.c **** 
  83:boards/TMC5072_eval.c **** 	return 0;
  84:boards/TMC5072_eval.c **** }
  85:boards/TMC5072_eval.c **** 
  86:boards/TMC5072_eval.c **** static uint32_t right(uint8_t motor, int32_t velocity)
  87:boards/TMC5072_eval.c **** {
  88:boards/TMC5072_eval.c **** 	tmc5072_right(motorToIC(motor), motor, velocity);
  89:boards/TMC5072_eval.c **** 
  90:boards/TMC5072_eval.c **** 	return 0;
  91:boards/TMC5072_eval.c **** }
  92:boards/TMC5072_eval.c **** 
  93:boards/TMC5072_eval.c **** static uint32_t left(uint8_t motor, int32_t velocity)
  94:boards/TMC5072_eval.c **** {
  95:boards/TMC5072_eval.c **** 	tmc5072_left(motorToIC(motor), motor, velocity);
  96:boards/TMC5072_eval.c **** 
  97:boards/TMC5072_eval.c **** 	return 0;
  98:boards/TMC5072_eval.c **** }
  99:boards/TMC5072_eval.c **** 
 100:boards/TMC5072_eval.c **** static uint32_t stop(uint8_t motor)
 101:boards/TMC5072_eval.c **** {
 102:boards/TMC5072_eval.c **** 	tmc5072_stop(motorToIC(motor), motor);
 103:boards/TMC5072_eval.c **** 
 104:boards/TMC5072_eval.c **** 	return 0;
 105:boards/TMC5072_eval.c **** }
 106:boards/TMC5072_eval.c **** 
 107:boards/TMC5072_eval.c **** static uint32_t moveTo(uint8_t motor, int32_t position)
 108:boards/TMC5072_eval.c **** {
 109:boards/TMC5072_eval.c **** 	tmc5072_moveTo(motorToIC(motor), motor, position, vmax_position[motor]);
 110:boards/TMC5072_eval.c **** 
 111:boards/TMC5072_eval.c **** 	return 0;
 112:boards/TMC5072_eval.c **** }
 113:boards/TMC5072_eval.c **** 
 114:boards/TMC5072_eval.c **** static uint32_t moveBy(uint8_t motor, int32_t *ticks)
 115:boards/TMC5072_eval.c **** {
 116:boards/TMC5072_eval.c **** 	tmc5072_moveBy(motorToIC(motor), motor, vmax_position[motor], ticks);
 117:boards/TMC5072_eval.c **** 
 118:boards/TMC5072_eval.c **** 	return 0;
 119:boards/TMC5072_eval.c **** }
 120:boards/TMC5072_eval.c **** // <= Functions forwarded to API
 121:boards/TMC5072_eval.c **** 
 122:boards/TMC5072_eval.c **** static uint32_t handleParameter(uint8_t readWrite, uint8_t motor, uint8_t type, int32_t *value)
 123:boards/TMC5072_eval.c **** {
 124:boards/TMC5072_eval.c **** 	uint32_t errors = TMC_ERROR_NONE;
 125:boards/TMC5072_eval.c **** 	int tempValue;
 126:boards/TMC5072_eval.c **** 
 127:boards/TMC5072_eval.c **** 	if(motor >= TMC5072_MOTORS)
 128:boards/TMC5072_eval.c **** 		return TMC_ERROR_MOTOR;
 129:boards/TMC5072_eval.c **** 
 130:boards/TMC5072_eval.c **** 	switch(type)
 131:boards/TMC5072_eval.c **** 	{
 132:boards/TMC5072_eval.c **** 	case 0:
 133:boards/TMC5072_eval.c **** 		// Target position
 134:boards/TMC5072_eval.c **** 		if(readWrite == READ) {
 135:boards/TMC5072_eval.c **** 			*value = tmc5072_readInt(motorToIC(motor), TMC5072_XTARGET(motor));
 136:boards/TMC5072_eval.c **** 		} else if(readWrite == WRITE) {
 137:boards/TMC5072_eval.c **** 			tmc5072_writeInt(motorToIC(motor), TMC5072_XTARGET(motor), *value);
 138:boards/TMC5072_eval.c **** 		}
 139:boards/TMC5072_eval.c **** 		break;
 140:boards/TMC5072_eval.c **** 	case 1:
 141:boards/TMC5072_eval.c **** 		// actual position
 142:boards/TMC5072_eval.c **** 		if(readWrite == READ) {
 143:boards/TMC5072_eval.c **** 			*value = tmc5072_readInt(motorToIC(motor), TMC5072_XACTUAL(motor));
 144:boards/TMC5072_eval.c **** 		} else if(readWrite == WRITE) {
 145:boards/TMC5072_eval.c **** 			tmc5072_writeInt(motorToIC(motor), TMC5072_XACTUAL(motor), *value);
 146:boards/TMC5072_eval.c **** 		}
 147:boards/TMC5072_eval.c **** 		break;
 148:boards/TMC5072_eval.c **** 	case 2:
 149:boards/TMC5072_eval.c **** 		// Target speed
 150:boards/TMC5072_eval.c **** 		if(readWrite == READ) {
 151:boards/TMC5072_eval.c **** 			*value = tmc5072_readInt(motorToIC(motor), TMC5072_VMAX(motor));
 152:boards/TMC5072_eval.c **** 		} else if(readWrite == WRITE) {
 153:boards/TMC5072_eval.c **** 			tmc5072_writeInt(motorToIC(motor), TMC5072_VMAX(motor), abs(*value));
 154:boards/TMC5072_eval.c **** 		}
 155:boards/TMC5072_eval.c **** 		break;
 156:boards/TMC5072_eval.c **** 	case 3:
 157:boards/TMC5072_eval.c **** 		// todo CHECK 3: min max actually velocity min and velocity max? (JE) #5
 158:boards/TMC5072_eval.c **** 		// Actual speed
 159:boards/TMC5072_eval.c **** 		if(readWrite == READ) {
 160:boards/TMC5072_eval.c **** 			*value = tmc5072_readInt(motorToIC(motor), TMC5072_VACTUAL(motor));
 161:boards/TMC5072_eval.c **** 			*value = CAST_Sn_TO_S32(*value, 24);
 162:boards/TMC5072_eval.c **** 		} else if(readWrite == WRITE) {
 163:boards/TMC5072_eval.c **** 			errors |= TMC_ERROR_TYPE;
 164:boards/TMC5072_eval.c **** 		}
 165:boards/TMC5072_eval.c **** 		break;
 166:boards/TMC5072_eval.c **** 	case 4:
 167:boards/TMC5072_eval.c **** 		// Maximum speed
 168:boards/TMC5072_eval.c **** 		if(readWrite == READ) {
 169:boards/TMC5072_eval.c **** 			*value = vmax_position[motor];
 170:boards/TMC5072_eval.c **** 		} else if(readWrite == WRITE) {
 171:boards/TMC5072_eval.c **** 			vmax_position[motor] = abs(*value);
 172:boards/TMC5072_eval.c **** 			if(tmc5072_readInt(motorToIC(motor), TMC5072_RAMPMODE(motor)) == TMC5072_MODE_POSITION)
 173:boards/TMC5072_eval.c **** 				tmc5072_writeInt(motorToIC(motor), TMC5072_VMAX(motor), vmax_position[motor]);
 174:boards/TMC5072_eval.c **** 		}
 175:boards/TMC5072_eval.c **** 		break;
 176:boards/TMC5072_eval.c **** 	case 5:
 177:boards/TMC5072_eval.c **** 		// Maximum acceleration
 178:boards/TMC5072_eval.c **** 		if(readWrite == READ) {
 179:boards/TMC5072_eval.c **** 			*value = tmc5072_readInt(motorToIC(motor), TMC5072_AMAX(motor));
 180:boards/TMC5072_eval.c **** 		} else if(readWrite == WRITE) {
 181:boards/TMC5072_eval.c **** 			tmc5072_writeInt(motorToIC(motor), TMC5072_AMAX(motor), *value);
 182:boards/TMC5072_eval.c **** 		}
 183:boards/TMC5072_eval.c **** 		break;
 184:boards/TMC5072_eval.c **** 	case 6:
 185:boards/TMC5072_eval.c **** 		// Maximum current
 186:boards/TMC5072_eval.c **** 		if(readWrite == READ) {
 187:boards/TMC5072_eval.c **** 			*value = TMC5072_FIELD_READ(motorToIC(motor), TMC5072_IHOLD_IRUN(motor), TMC5072_IRUN_MASK, TMC5
 188:boards/TMC5072_eval.c **** 		} else if(readWrite == WRITE) {
 189:boards/TMC5072_eval.c **** 			TMC5072_FIELD_WRITE(motorToIC(motor), TMC5072_IHOLD_IRUN(motor), TMC5072_IRUN_MASK, TMC5072_IRUN
 190:boards/TMC5072_eval.c **** 		}
 191:boards/TMC5072_eval.c **** 		break;
 192:boards/TMC5072_eval.c **** 	case 7:
 193:boards/TMC5072_eval.c **** 		// Standby current
 194:boards/TMC5072_eval.c **** 		if(readWrite == READ) {
 195:boards/TMC5072_eval.c **** 			*value = TMC5072_FIELD_READ(motorToIC(motor), TMC5072_IHOLD_IRUN(motor), TMC5072_IHOLD_MASK, TMC
 196:boards/TMC5072_eval.c **** 		} else if(readWrite == WRITE) {
 197:boards/TMC5072_eval.c **** 			TMC5072_FIELD_WRITE(motorToIC(motor), TMC5072_IHOLD_IRUN(motor), TMC5072_IHOLD_MASK, TMC5072_IHO
 198:boards/TMC5072_eval.c **** 		}
 199:boards/TMC5072_eval.c **** 		break;
 200:boards/TMC5072_eval.c **** 	case 8:
 201:boards/TMC5072_eval.c **** 		// Position reached flag
 202:boards/TMC5072_eval.c **** 		if(readWrite == READ) {
 203:boards/TMC5072_eval.c **** 			*value = TMC5072_FIELD_READ(motorToIC(motor), TMC5072_RAMPSTAT(motor), TMC5072_POSITION_REACHED_
 204:boards/TMC5072_eval.c **** 		} else if(readWrite == WRITE) {
 205:boards/TMC5072_eval.c **** 			errors |= TMC_ERROR_TYPE;
 206:boards/TMC5072_eval.c **** 		}
 207:boards/TMC5072_eval.c **** 		break;
 208:boards/TMC5072_eval.c **** 	case 10:
 209:boards/TMC5072_eval.c **** 		// Right endstop
 210:boards/TMC5072_eval.c **** 		if(readWrite == READ) {
 211:boards/TMC5072_eval.c **** 			*value = TMC5072_FIELD_READ(motorToIC(motor), TMC5072_RAMPSTAT(motor), TMC5072_STATUS_STOP_R_MAS
 212:boards/TMC5072_eval.c **** 		} else if(readWrite == WRITE) {
 213:boards/TMC5072_eval.c **** 			errors |= TMC_ERROR_TYPE;
 214:boards/TMC5072_eval.c **** 		}
 215:boards/TMC5072_eval.c **** 		break;
 216:boards/TMC5072_eval.c **** 	case 11:
 217:boards/TMC5072_eval.c **** 		// Left endstop
 218:boards/TMC5072_eval.c **** 		if(readWrite == READ) {
 219:boards/TMC5072_eval.c **** 			*value = TMC5072_FIELD_READ(motorToIC(motor), TMC5072_RAMPSTAT(motor), TMC5072_STATUS_STOP_L_MAS
 220:boards/TMC5072_eval.c **** 		} else if(readWrite == WRITE) {
 221:boards/TMC5072_eval.c **** 			errors |= TMC_ERROR_TYPE;
 222:boards/TMC5072_eval.c **** 		}
 223:boards/TMC5072_eval.c **** 		break;
 224:boards/TMC5072_eval.c **** 	case 12:
 225:boards/TMC5072_eval.c **** 		// Automatic right stop
 226:boards/TMC5072_eval.c **** 		if(readWrite == READ) {
 227:boards/TMC5072_eval.c **** 			*value = TMC5072_FIELD_READ(motorToIC(motor), TMC5072_SWMODE(motor), TMC5072_STOP_R_ENABLE_MASK,
 228:boards/TMC5072_eval.c **** 		} else if(readWrite == WRITE) {
 229:boards/TMC5072_eval.c **** 			// configure right stop bits
 230:boards/TMC5072_eval.c **** 			TMC5072_FIELD_WRITE(motorToIC(motor), TMC5072_SWMODE(motor), TMC5072_STOP_R_ENABLE_MASK, TMC5072
 231:boards/TMC5072_eval.c **** 			TMC5072_FIELD_WRITE(motorToIC(motor), TMC5072_SWMODE(motor), TMC5072_POL_STOP_R_MASK, TMC5072_PO
 232:boards/TMC5072_eval.c **** 		}
 233:boards/TMC5072_eval.c **** 		break;
 234:boards/TMC5072_eval.c **** 	case 13:
 235:boards/TMC5072_eval.c **** 		// Automatic left stop
 236:boards/TMC5072_eval.c **** 		if(readWrite == READ) {
 237:boards/TMC5072_eval.c **** 			*value = TMC5072_FIELD_READ(motorToIC(motor), TMC5072_SWMODE(motor), TMC5072_STOP_L_ENABLE_MASK,
 238:boards/TMC5072_eval.c **** 		} else if(readWrite == WRITE) {
 239:boards/TMC5072_eval.c **** 			// configure left stop bits
 240:boards/TMC5072_eval.c **** 			TMC5072_FIELD_WRITE(motorToIC(motor), TMC5072_SWMODE(motor), TMC5072_STOP_L_ENABLE_MASK, TMC5072
 241:boards/TMC5072_eval.c **** 			TMC5072_FIELD_WRITE(motorToIC(motor), TMC5072_SWMODE(motor), TMC5072_POL_STOP_L_MASK, TMC5072_PO
 242:boards/TMC5072_eval.c **** 		}
 243:boards/TMC5072_eval.c **** 		break;
 244:boards/TMC5072_eval.c **** 	case 14:
 245:boards/TMC5072_eval.c **** 		// SW_MODE Register
 246:boards/TMC5072_eval.c **** 		if(readWrite == READ) {
 247:boards/TMC5072_eval.c **** 			*value = tmc5072_readInt(motorToIC(motor), TMC5072_SWMODE(motor));
 248:boards/TMC5072_eval.c **** 		} else if(readWrite == WRITE) {
 249:boards/TMC5072_eval.c **** 			tmc5072_writeInt(motorToIC(motor), TMC5072_SWMODE(motor), *value);
 250:boards/TMC5072_eval.c **** 		}
 251:boards/TMC5072_eval.c **** 		break;
 252:boards/TMC5072_eval.c **** 	case 15:
 253:boards/TMC5072_eval.c **** 		// Acceleration A1
 254:boards/TMC5072_eval.c **** 		if(readWrite == READ) {
 255:boards/TMC5072_eval.c **** 			*value = tmc5072_readInt(motorToIC(motor), TMC5072_A1(motor));
 256:boards/TMC5072_eval.c **** 		} else if(readWrite == WRITE) {
 257:boards/TMC5072_eval.c **** 			tmc5072_writeInt(motorToIC(motor), TMC5072_A1(motor), *value);
 258:boards/TMC5072_eval.c **** 		}
 259:boards/TMC5072_eval.c **** 		break;
 260:boards/TMC5072_eval.c **** 	case 16:
 261:boards/TMC5072_eval.c **** 		// Velocity V1
 262:boards/TMC5072_eval.c **** 		if(readWrite == READ) {
 263:boards/TMC5072_eval.c **** 			*value = tmc5072_readInt(motorToIC(motor), TMC5072_V1(motor));
 264:boards/TMC5072_eval.c **** 		} else if(readWrite == WRITE) {
 265:boards/TMC5072_eval.c **** 			tmc5072_writeInt(motorToIC(motor), TMC5072_V1(motor), *value);
 266:boards/TMC5072_eval.c **** 		}
 267:boards/TMC5072_eval.c **** 		break;
 268:boards/TMC5072_eval.c **** 	case 17:
 269:boards/TMC5072_eval.c **** 		// Maximum Deceleration
 270:boards/TMC5072_eval.c **** 		if(readWrite == READ) {
 271:boards/TMC5072_eval.c **** 			*value = tmc5072_readInt(motorToIC(motor), TMC5072_DMAX(motor));
 272:boards/TMC5072_eval.c **** 		} else if(readWrite == WRITE) {
 273:boards/TMC5072_eval.c **** 			tmc5072_writeInt(motorToIC(motor), TMC5072_DMAX(motor), *value);
 274:boards/TMC5072_eval.c **** 		}
 275:boards/TMC5072_eval.c **** 		break;
 276:boards/TMC5072_eval.c **** 	case 18:
 277:boards/TMC5072_eval.c **** 		// Deceleration D1
 278:boards/TMC5072_eval.c **** 		if(readWrite == READ) {
 279:boards/TMC5072_eval.c **** 			*value = tmc5072_readInt(motorToIC(motor), TMC5072_D1(motor));
 280:boards/TMC5072_eval.c **** 		} else if(readWrite == WRITE) {
 281:boards/TMC5072_eval.c **** 			tmc5072_writeInt(motorToIC(motor), TMC5072_D1(motor), *value);
 282:boards/TMC5072_eval.c **** 		}
 283:boards/TMC5072_eval.c **** 		break;
 284:boards/TMC5072_eval.c **** 	case 19:
 285:boards/TMC5072_eval.c **** 		// Velocity VSTART
 286:boards/TMC5072_eval.c **** 		if(readWrite == READ) {
 287:boards/TMC5072_eval.c **** 			*value = tmc5072_readInt(motorToIC(motor), TMC5072_VSTART(motor));
 288:boards/TMC5072_eval.c **** 		} else if(readWrite == WRITE) {
 289:boards/TMC5072_eval.c **** 			tmc5072_writeInt(motorToIC(motor), TMC5072_VSTART(motor), *value);
 290:boards/TMC5072_eval.c **** 		}
 291:boards/TMC5072_eval.c **** 		break;
 292:boards/TMC5072_eval.c **** 	case 20:
 293:boards/TMC5072_eval.c **** 		// Velocity VSTOP
 294:boards/TMC5072_eval.c **** 		if(readWrite == READ) {
 295:boards/TMC5072_eval.c **** 			*value = tmc5072_readInt(motorToIC(motor), TMC5072_VSTOP(motor));
 296:boards/TMC5072_eval.c **** 		} else if(readWrite == WRITE) {
 297:boards/TMC5072_eval.c **** 			tmc5072_writeInt(motorToIC(motor), TMC5072_VSTOP(motor), *value);
 298:boards/TMC5072_eval.c **** 		}
 299:boards/TMC5072_eval.c **** 		break;
 300:boards/TMC5072_eval.c **** 	case 21:
 301:boards/TMC5072_eval.c **** 		// Waiting time after ramp down
 302:boards/TMC5072_eval.c **** 		if(readWrite == READ) {
 303:boards/TMC5072_eval.c **** 			*value = tmc5072_readInt(motorToIC(motor), TMC5072_TZEROWAIT(motor));
 304:boards/TMC5072_eval.c **** 		} else if(readWrite == WRITE) {
 305:boards/TMC5072_eval.c **** 			tmc5072_writeInt(motorToIC(motor), TMC5072_TZEROWAIT(motor), *value);
 306:boards/TMC5072_eval.c **** 		}
 307:boards/TMC5072_eval.c **** 		break;
 308:boards/TMC5072_eval.c **** 	case 22:
 309:boards/TMC5072_eval.c **** 		// smartEnergy threshold speed
 310:boards/TMC5072_eval.c **** 		if(readWrite == READ) {
 311:boards/TMC5072_eval.c **** 			*value = tmc5072_readInt(motorToIC(motor), TMC5072_VCOOLTHRS(motor));
 312:boards/TMC5072_eval.c **** 		} else if(readWrite == WRITE) {
 313:boards/TMC5072_eval.c **** 			tmc5072_writeInt(motorToIC(motor), TMC5072_VCOOLTHRS(motor), *value);
 314:boards/TMC5072_eval.c **** 		}
 315:boards/TMC5072_eval.c **** 		break;
 316:boards/TMC5072_eval.c **** 	case 23:
 317:boards/TMC5072_eval.c **** 		// Speed threshold for high speed mode
 318:boards/TMC5072_eval.c **** 		if(readWrite == READ) {
 319:boards/TMC5072_eval.c **** 			*value = tmc5072_readInt(motorToIC(motor), TMC5072_VHIGH(motor));
 320:boards/TMC5072_eval.c **** 		} else if(readWrite == WRITE) {
 321:boards/TMC5072_eval.c **** 			tmc5072_writeInt(motorToIC(motor), TMC5072_VHIGH(motor), *value);
 322:boards/TMC5072_eval.c **** 		}
 323:boards/TMC5072_eval.c **** 		break;
 324:boards/TMC5072_eval.c **** 	case 24:
 325:boards/TMC5072_eval.c **** 		// Minimum speed for switching to dcStep
 326:boards/TMC5072_eval.c **** 		if(readWrite == READ) {
 327:boards/TMC5072_eval.c **** 			*value = tmc5072_readInt(motorToIC(motor), TMC5072_VDCMIN(motor));
 328:boards/TMC5072_eval.c **** 		} else if(readWrite == WRITE) {
 329:boards/TMC5072_eval.c **** 			tmc5072_writeInt(motorToIC(motor), TMC5072_VDCMIN(motor), *value);
 330:boards/TMC5072_eval.c **** 		}
 331:boards/TMC5072_eval.c **** 		break;
 332:boards/TMC5072_eval.c **** 	case 28:
 333:boards/TMC5072_eval.c **** 		// High speed fullstep mode
 334:boards/TMC5072_eval.c **** 		if(readWrite == READ) {
 335:boards/TMC5072_eval.c **** 			*value = TMC5072_FIELD_READ(motorToIC(motor), TMC5072_CHOPCONF(motor), TMC5072_VHIGHFS_MASK, TMC
 336:boards/TMC5072_eval.c **** 		} else if(readWrite == WRITE) {
 337:boards/TMC5072_eval.c **** 			TMC5072_FIELD_WRITE(motorToIC(motor), TMC5072_CHOPCONF(motor), TMC5072_VHIGHFS_MASK, TMC5072_VHI
 338:boards/TMC5072_eval.c **** 		}
 339:boards/TMC5072_eval.c **** 		break;
 340:boards/TMC5072_eval.c **** 	case 29:
 341:boards/TMC5072_eval.c **** 		if(readWrite == READ) {
 342:boards/TMC5072_eval.c **** 			*value = motorToIC(motor)->velocity[motor];
 343:boards/TMC5072_eval.c **** 		} else if(readWrite == WRITE) {
 344:boards/TMC5072_eval.c **** 			errors |= TMC_ERROR_TYPE;
 345:boards/TMC5072_eval.c **** 		}
 346:boards/TMC5072_eval.c **** 		break;
 347:boards/TMC5072_eval.c **** 	case 140:
 348:boards/TMC5072_eval.c **** 		// Microstep Resolution
 349:boards/TMC5072_eval.c **** 		if(readWrite == READ) {
 350:boards/TMC5072_eval.c **** 			*value = 256 >> TMC5072_FIELD_READ(motorToIC(motor), TMC5072_CHOPCONF(motor), TMC5072_TOFF_MASK,
 351:boards/TMC5072_eval.c **** 		} else if(readWrite == WRITE) {
 352:boards/TMC5072_eval.c **** 			switch(*value)
 353:boards/TMC5072_eval.c **** 			{
 354:boards/TMC5072_eval.c **** 			case 1:    *value = 8;   break;
 355:boards/TMC5072_eval.c **** 			case 2:    *value = 7;   break;
 356:boards/TMC5072_eval.c **** 			case 4:    *value = 6;   break;
 357:boards/TMC5072_eval.c **** 			case 8:    *value = 5;   break;
 358:boards/TMC5072_eval.c **** 			case 16:   *value = 4;   break;
 359:boards/TMC5072_eval.c **** 			case 32:   *value = 3;   break;
 360:boards/TMC5072_eval.c **** 			case 64:   *value = 2;   break;
 361:boards/TMC5072_eval.c **** 			case 128:  *value = 1;   break;
 362:boards/TMC5072_eval.c **** 			case 256:  *value = 0;   break;
 363:boards/TMC5072_eval.c **** 			default:   *value = -1;  break;
 364:boards/TMC5072_eval.c **** 			}
 365:boards/TMC5072_eval.c **** 
 366:boards/TMC5072_eval.c **** 			if(*value != -1)
 367:boards/TMC5072_eval.c **** 			{
 368:boards/TMC5072_eval.c **** 				TMC5072_FIELD_WRITE(motorToIC(motor), TMC5072_CHOPCONF(motor), TMC5072_MRES_MASK, TMC5072_MRES_
 369:boards/TMC5072_eval.c **** 			}
 370:boards/TMC5072_eval.c **** 			//else TMCL.reply->Status = REPLY_INVALID_VALUE;
 371:boards/TMC5072_eval.c **** 		}
 372:boards/TMC5072_eval.c **** 		break;
 373:boards/TMC5072_eval.c **** 	case 162:
 374:boards/TMC5072_eval.c **** 		// Chopper blank time
 375:boards/TMC5072_eval.c **** 		if(readWrite == READ) {
 376:boards/TMC5072_eval.c **** 			*value = TMC5072_FIELD_READ(motorToIC(motor), TMC5072_CHOPCONF(motor), TMC5072_TBL_MASK, TMC5072
 377:boards/TMC5072_eval.c **** 		} else if(readWrite == WRITE) {
 378:boards/TMC5072_eval.c **** 			TMC5072_FIELD_WRITE(motorToIC(motor), TMC5072_CHOPCONF(motor), TMC5072_TBL_MASK, TMC5072_TBL_SHI
 379:boards/TMC5072_eval.c **** 		}
 380:boards/TMC5072_eval.c **** 		break;
 381:boards/TMC5072_eval.c **** 	case 163:
 382:boards/TMC5072_eval.c **** 		// Constant TOff Mode
 383:boards/TMC5072_eval.c **** 		if(readWrite == READ) {
 384:boards/TMC5072_eval.c **** 			*value = TMC5072_FIELD_READ(motorToIC(motor), TMC5072_CHOPCONF(motor), TMC5072_RNDTF_MASK, TMC50
 385:boards/TMC5072_eval.c **** 		} else if(readWrite == WRITE) {
 386:boards/TMC5072_eval.c **** 			TMC5072_FIELD_WRITE(motorToIC(motor), TMC5072_CHOPCONF(motor), TMC5072_RNDTF_MASK, TMC5072_RNDTF
 387:boards/TMC5072_eval.c **** 		}
 388:boards/TMC5072_eval.c **** 		break;
 389:boards/TMC5072_eval.c **** 	case 164:
 390:boards/TMC5072_eval.c **** 		// Disable fast decay comparator
 391:boards/TMC5072_eval.c **** 		if(readWrite == READ) {
 392:boards/TMC5072_eval.c **** 			*value = TMC5072_FIELD_READ(motorToIC(motor), TMC5072_CHOPCONF(motor), TMC5072_DISFDCC_MASK, TMC
 393:boards/TMC5072_eval.c **** 		} else if(readWrite == WRITE) {
 394:boards/TMC5072_eval.c **** 			TMC5072_FIELD_WRITE(motorToIC(motor), TMC5072_CHOPCONF(motor), TMC5072_DISFDCC_MASK, TMC5072_DIS
 395:boards/TMC5072_eval.c **** 		}
 396:boards/TMC5072_eval.c **** 		break;
 397:boards/TMC5072_eval.c **** 	case 165:
 398:boards/TMC5072_eval.c **** 		// Chopper hysteresis end / fast decay time
 399:boards/TMC5072_eval.c **** 		tempValue = TMC5072_FIELD_READ(motorToIC(motor), TMC5072_CHOPCONF(motor), TMC5072_CHM_MASK, TMC50
 400:boards/TMC5072_eval.c **** 		if(readWrite == READ) {
 401:boards/TMC5072_eval.c **** 			if(tempValue)
 402:boards/TMC5072_eval.c **** 			{
 403:boards/TMC5072_eval.c **** 				*value = TMC5072_FIELD_READ(motorToIC(motor), TMC5072_CHOPCONF(motor), TMC5072_HEND_MASK, TMC50
 404:boards/TMC5072_eval.c **** 			}
 405:boards/TMC5072_eval.c **** 			else
 406:boards/TMC5072_eval.c **** 			{
 407:boards/TMC5072_eval.c **** 				*value = TMC5072_FIELD_READ(motorToIC(motor), TMC5072_CHOPCONF(motor), TMC5072_TFD_ALL_MASK, TM
 408:boards/TMC5072_eval.c **** 				*value |= (*value & (1<<11)) << 3;
 409:boards/TMC5072_eval.c **** 			}
 410:boards/TMC5072_eval.c **** 		} else if(readWrite == WRITE) {
 411:boards/TMC5072_eval.c **** 			if(tempValue)
 412:boards/TMC5072_eval.c **** 			{
 413:boards/TMC5072_eval.c **** 				TMC5072_FIELD_WRITE(motorToIC(motor), TMC5072_CHOPCONF(motor), TMC5072_HEND_MASK, TMC5072_HEND_
 414:boards/TMC5072_eval.c **** 			}
 415:boards/TMC5072_eval.c **** 			else
 416:boards/TMC5072_eval.c **** 			{
 417:boards/TMC5072_eval.c **** 				TMC5072_FIELD_WRITE(motorToIC(motor), TMC5072_CHOPCONF(motor), TMC5072_TFD_3_MASK, TMC5072_TFD_
 418:boards/TMC5072_eval.c **** 				TMC5072_FIELD_WRITE(motorToIC(motor), TMC5072_CHOPCONF(motor), TMC5072_TFD_ALL_MASK, TMC5072_TF
 419:boards/TMC5072_eval.c **** 			}
 420:boards/TMC5072_eval.c **** 		}
 421:boards/TMC5072_eval.c **** 		break;
 422:boards/TMC5072_eval.c **** 	case 166:
 423:boards/TMC5072_eval.c **** 		// Chopper hysteresis start / sine wave offset
 424:boards/TMC5072_eval.c **** 		tempValue = TMC5072_FIELD_READ(motorToIC(motor), TMC5072_CHOPCONF(motor), TMC5072_CHM_MASK, TMC50
 425:boards/TMC5072_eval.c **** 		if(readWrite == READ) {
 426:boards/TMC5072_eval.c **** 			if(tempValue)
 427:boards/TMC5072_eval.c **** 			{
 428:boards/TMC5072_eval.c **** 				*value = TMC5072_FIELD_READ(motorToIC(motor), TMC5072_CHOPCONF(motor), TMC5072_HSTRT_MASK, TMC5
 429:boards/TMC5072_eval.c **** 			}
 430:boards/TMC5072_eval.c **** 			else
 431:boards/TMC5072_eval.c **** 			{
 432:boards/TMC5072_eval.c **** 				*value = TMC5072_FIELD_READ(motorToIC(motor), TMC5072_CHOPCONF(motor), TMC5072_OFFSET_MASK, TMC
 433:boards/TMC5072_eval.c **** 				tempValue = TMC5072_FIELD_READ(motorToIC(motor), TMC5072_CHOPCONF(motor), TMC5072_TFD_3_MASK, T
 434:boards/TMC5072_eval.c **** 				*value |= tempValue << 3;
 435:boards/TMC5072_eval.c **** 			}
 436:boards/TMC5072_eval.c **** 		} else if(readWrite == WRITE) {
 437:boards/TMC5072_eval.c **** 			if(tempValue)
 438:boards/TMC5072_eval.c **** 			{
 439:boards/TMC5072_eval.c **** 				TMC5072_FIELD_WRITE(motorToIC(motor), TMC5072_CHOPCONF(motor), TMC5072_HSTRT_MASK, TMC5072_HSTR
 440:boards/TMC5072_eval.c **** 			}
 441:boards/TMC5072_eval.c **** 			else
 442:boards/TMC5072_eval.c **** 			{
 443:boards/TMC5072_eval.c **** 				TMC5072_FIELD_WRITE(motorToIC(motor), TMC5072_CHOPCONF(motor), TMC5072_OFFSET_MASK, TMC5072_OFF
 444:boards/TMC5072_eval.c **** 			}
 445:boards/TMC5072_eval.c **** 		}
 446:boards/TMC5072_eval.c **** 		break;
 447:boards/TMC5072_eval.c **** 	case 167:
 448:boards/TMC5072_eval.c **** 		// Chopper off time
 449:boards/TMC5072_eval.c **** 		if(readWrite == READ) {
 450:boards/TMC5072_eval.c **** 			*value = TMC5072_FIELD_READ(motorToIC(motor), TMC5072_CHOPCONF(motor), TMC5072_TOFF_MASK, TMC507
 451:boards/TMC5072_eval.c **** 		} else if(readWrite == WRITE) {
 452:boards/TMC5072_eval.c **** 			TMC5072_FIELD_WRITE(motorToIC(motor), TMC5072_CHOPCONF(motor), TMC5072_TOFF_MASK, TMC5072_TOFF_S
 453:boards/TMC5072_eval.c **** 		}
 454:boards/TMC5072_eval.c **** 		break;
 455:boards/TMC5072_eval.c **** 	case 168:
 456:boards/TMC5072_eval.c **** 		// smartEnergy current minimum (SEIMIN)
 457:boards/TMC5072_eval.c **** 		if(readWrite == READ) {
 458:boards/TMC5072_eval.c **** 			*value = TMC5072_FIELD_READ(motorToIC(motor), TMC5072_COOLCONF(motor), TMC5072_SEIMIN_MASK, TMC5
 459:boards/TMC5072_eval.c **** 		} else if(readWrite == WRITE) {
 460:boards/TMC5072_eval.c **** 			TMC5072_FIELD_WRITE(motorToIC(motor), TMC5072_COOLCONF(motor), TMC5072_SEIMIN_MASK, TMC5072_SEIM
 461:boards/TMC5072_eval.c **** 		}
 462:boards/TMC5072_eval.c **** 		break;
 463:boards/TMC5072_eval.c **** 	case 169:
 464:boards/TMC5072_eval.c **** 		// smartEnergy current down step
 465:boards/TMC5072_eval.c **** 		if(readWrite == READ) {
 466:boards/TMC5072_eval.c **** 			*value = TMC5072_FIELD_READ(motorToIC(motor), TMC5072_COOLCONF(motor), TMC5072_SEDN_MASK, TMC507
 467:boards/TMC5072_eval.c **** 		} else if(readWrite == WRITE) {
 468:boards/TMC5072_eval.c **** 			TMC5072_FIELD_WRITE(motorToIC(motor), TMC5072_COOLCONF(motor), TMC5072_SEDN_MASK, TMC5072_SEDN_S
 469:boards/TMC5072_eval.c **** 		}
 470:boards/TMC5072_eval.c **** 		break;
 471:boards/TMC5072_eval.c **** 	case 170:
 472:boards/TMC5072_eval.c **** 		// smartEnergy hysteresis
 473:boards/TMC5072_eval.c **** 		if(readWrite == READ) {
 474:boards/TMC5072_eval.c **** 			*value = TMC5072_FIELD_READ(motorToIC(motor), TMC5072_COOLCONF(motor), TMC5072_SEMAX_MASK, TMC50
 475:boards/TMC5072_eval.c **** 		} else if(readWrite == WRITE) {
 476:boards/TMC5072_eval.c **** 			TMC5072_FIELD_WRITE(motorToIC(motor), TMC5072_COOLCONF(motor), TMC5072_SEMAX_MASK, TMC5072_SEMAX
 477:boards/TMC5072_eval.c **** 		}
 478:boards/TMC5072_eval.c **** 		break;
 479:boards/TMC5072_eval.c **** 	case 171:
 480:boards/TMC5072_eval.c **** 		// smartEnergy current up step
 481:boards/TMC5072_eval.c **** 		if(readWrite == READ) {
 482:boards/TMC5072_eval.c **** 			*value = TMC5072_FIELD_READ(motorToIC(motor), TMC5072_COOLCONF(motor), TMC5072_SEUP_MASK, TMC507
 483:boards/TMC5072_eval.c **** 		} else if(readWrite == WRITE) {
 484:boards/TMC5072_eval.c **** 			TMC5072_FIELD_WRITE(motorToIC(motor), TMC5072_COOLCONF(motor), TMC5072_SEUP_MASK, TMC5072_SEUP_S
 485:boards/TMC5072_eval.c **** 		}
 486:boards/TMC5072_eval.c **** 		break;
 487:boards/TMC5072_eval.c **** 	case 172:
 488:boards/TMC5072_eval.c **** 		// smartEnergy hysteresis start
 489:boards/TMC5072_eval.c **** 		if(readWrite == READ) {
 490:boards/TMC5072_eval.c **** 			*value = TMC5072_FIELD_READ(motorToIC(motor), TMC5072_COOLCONF(motor), TMC5072_SEMIN_MASK, TMC50
 491:boards/TMC5072_eval.c **** 		} else if(readWrite == WRITE) {
 492:boards/TMC5072_eval.c **** 			TMC5072_FIELD_WRITE(motorToIC(motor), TMC5072_COOLCONF(motor), TMC5072_SEMIN_MASK, TMC5072_SEMIN
 493:boards/TMC5072_eval.c **** 		}
 494:boards/TMC5072_eval.c **** 		break;
 495:boards/TMC5072_eval.c **** 	case 173:
 496:boards/TMC5072_eval.c **** 		// stallGuard2 filter enable
 497:boards/TMC5072_eval.c **** 		if(readWrite == READ) {
 498:boards/TMC5072_eval.c **** 			*value = TMC5072_FIELD_READ(motorToIC(motor), TMC5072_COOLCONF(motor), TMC5072_SFILT_MASK, TMC50
 499:boards/TMC5072_eval.c **** 		} else if(readWrite == WRITE) {
 500:boards/TMC5072_eval.c **** 			TMC5072_FIELD_WRITE(motorToIC(motor), TMC5072_COOLCONF(motor), TMC5072_SFILT_MASK, TMC5072_SFILT
 501:boards/TMC5072_eval.c **** 		}
 502:boards/TMC5072_eval.c **** 		break;
 503:boards/TMC5072_eval.c **** 	case 174:
 504:boards/TMC5072_eval.c **** 		// stallGuard2 threshold
 505:boards/TMC5072_eval.c **** 		if(readWrite == READ) {
 506:boards/TMC5072_eval.c **** 			*value = TMC5072_FIELD_READ(motorToIC(motor), TMC5072_COOLCONF(motor), TMC5072_SGT_MASK, TMC5072
 507:boards/TMC5072_eval.c **** 			*value = CAST_Sn_TO_S32(*value, 7);
 508:boards/TMC5072_eval.c **** 		} else if(readWrite == WRITE) {
 509:boards/TMC5072_eval.c **** 			TMC5072_FIELD_WRITE(motorToIC(motor), TMC5072_COOLCONF(motor), TMC5072_SGT_MASK, TMC5072_SGT_SHI
 510:boards/TMC5072_eval.c **** 		}
 511:boards/TMC5072_eval.c **** 		break;
 512:boards/TMC5072_eval.c **** 	case 179:
 513:boards/TMC5072_eval.c **** 		// VSense
 514:boards/TMC5072_eval.c **** 		if(readWrite == READ) {
 515:boards/TMC5072_eval.c **** 			*value = TMC5072_FIELD_READ(motorToIC(motor), TMC5072_CHOPCONF(motor), TMC5072_VSENSE_MASK, TMC5
 516:boards/TMC5072_eval.c **** 		} else if(readWrite == WRITE) {
 517:boards/TMC5072_eval.c **** 			TMC5072_FIELD_WRITE(motorToIC(motor), TMC5072_CHOPCONF(motor), TMC5072_VSENSE_MASK, TMC5072_VSEN
 518:boards/TMC5072_eval.c **** 		}
 519:boards/TMC5072_eval.c **** 		break;
 520:boards/TMC5072_eval.c **** 	case 180:
 521:boards/TMC5072_eval.c **** 		// smartEnergy actual current
 522:boards/TMC5072_eval.c **** 		if(readWrite == READ) {
 523:boards/TMC5072_eval.c **** 			*value = TMC5072_FIELD_READ(motorToIC(motor), TMC5072_DRVSTATUS(motor), TMC5072_CS_ACTUAL_MASK, 
 524:boards/TMC5072_eval.c **** 		} else if(readWrite == WRITE) {
 525:boards/TMC5072_eval.c **** 			errors |= TMC_ERROR_TYPE;
 526:boards/TMC5072_eval.c **** 		}
 527:boards/TMC5072_eval.c **** 		break;
 528:boards/TMC5072_eval.c **** 	case 181:
 529:boards/TMC5072_eval.c **** 		// smartEnergy stall velocity
 530:boards/TMC5072_eval.c **** 		if(readWrite == READ) {
 531:boards/TMC5072_eval.c **** 			if(TMC5072_FIELD_READ(motorToIC(motor), TMC5072_SWMODE(motor), TMC5072_SG_STOP_MASK, TMC5072_SG_
 532:boards/TMC5072_eval.c **** 			{
 533:boards/TMC5072_eval.c **** 				*value = tmc5072_readInt(motorToIC(motor), TMC5072_VCOOLTHRS(motor));
 534:boards/TMC5072_eval.c **** 			}
 535:boards/TMC5072_eval.c **** 			else
 536:boards/TMC5072_eval.c **** 			{
 537:boards/TMC5072_eval.c **** 				*value = 0;
 538:boards/TMC5072_eval.c **** 			}
 539:boards/TMC5072_eval.c **** 		} else if(readWrite == WRITE) {
 540:boards/TMC5072_eval.c **** 			tmc5072_writeInt(motorToIC(motor), TMC5072_VCOOLTHRS(motor),*value);
 541:boards/TMC5072_eval.c **** 			TMC5072_FIELD_WRITE(motorToIC(motor), TMC5072_SWMODE(motor), TMC5072_SG_STOP_MASK, TMC5072_SG_ST
 542:boards/TMC5072_eval.c **** 		}
 543:boards/TMC5072_eval.c **** 		break;
 544:boards/TMC5072_eval.c **** 	case 182:
 545:boards/TMC5072_eval.c **** 		// smartEnergy threshold speed
 546:boards/TMC5072_eval.c **** 		if(readWrite == READ) {
 547:boards/TMC5072_eval.c **** 			*value = tmc5072_readInt(motorToIC(motor), TMC5072_VCOOLTHRS(motor));
 548:boards/TMC5072_eval.c **** 		} else if(readWrite == WRITE) {
 549:boards/TMC5072_eval.c **** 			tmc5072_writeInt(motorToIC(motor), TMC5072_VCOOLTHRS(motor),*value);
 550:boards/TMC5072_eval.c **** 		}
 551:boards/TMC5072_eval.c **** 		break;
 552:boards/TMC5072_eval.c **** 	case 184:
 553:boards/TMC5072_eval.c **** 		// Random TOff mode
 554:boards/TMC5072_eval.c **** 		if(readWrite == READ) {
 555:boards/TMC5072_eval.c **** 			*value = TMC5072_FIELD_READ(motorToIC(motor), TMC5072_CHOPCONF(motor), TMC5072_RNDTF_MASK, TMC50
 556:boards/TMC5072_eval.c **** 		} else if(readWrite == WRITE) {
 557:boards/TMC5072_eval.c **** 			TMC5072_FIELD_WRITE(motorToIC(motor), TMC5072_CHOPCONF(motor), TMC5072_RNDTF_MASK, TMC5072_RNDTF
 558:boards/TMC5072_eval.c **** 		}
 559:boards/TMC5072_eval.c **** 		break;
 560:boards/TMC5072_eval.c **** 	case 206:
 561:boards/TMC5072_eval.c **** 		// Load value
 562:boards/TMC5072_eval.c **** 		if(readWrite == READ) {
 563:boards/TMC5072_eval.c **** 			*value = TMC5072_FIELD_READ(motorToIC(motor), TMC5072_DRVSTATUS(motor), TMC5072_SG_RESULT_MASK, 
 564:boards/TMC5072_eval.c **** 		} else if(readWrite == WRITE) {
 565:boards/TMC5072_eval.c **** 			errors |= TMC_ERROR_TYPE;
 566:boards/TMC5072_eval.c **** 		}
 567:boards/TMC5072_eval.c **** 		break;
 568:boards/TMC5072_eval.c **** 	case 209:
 569:boards/TMC5072_eval.c **** 		// Encoder position
 570:boards/TMC5072_eval.c **** 		if(readWrite == READ) {
 571:boards/TMC5072_eval.c **** 			*value = TMC5072_FIELD_READ(motorToIC(motor), TMC5072_XENC(motor), TMC5072_X_ENC_MASK, TMC5072_X
 572:boards/TMC5072_eval.c **** 		} else if(readWrite == WRITE) {
 573:boards/TMC5072_eval.c **** 			TMC5072_FIELD_WRITE(motorToIC(motor), TMC5072_XENC(motor), TMC5072_X_ENC_MASK, TMC5072_X_ENC_SHI
 574:boards/TMC5072_eval.c **** 		}
 575:boards/TMC5072_eval.c **** 		break;
 576:boards/TMC5072_eval.c **** 	case 210:
 577:boards/TMC5072_eval.c **** 		// Encoder Resolution
 578:boards/TMC5072_eval.c **** 		if(readWrite == READ) {
 579:boards/TMC5072_eval.c **** 			*value = tmc5072_readInt(motorToIC(motor), TMC5072_ENC_CONST(motor));
 580:boards/TMC5072_eval.c **** 		} else if(readWrite == WRITE) {
 581:boards/TMC5072_eval.c **** 			tmc5072_writeInt(motorToIC(motor), TMC5072_ENC_CONST(motor),*value);
 582:boards/TMC5072_eval.c **** 		}
 583:boards/TMC5072_eval.c **** 		break;
 584:boards/TMC5072_eval.c **** 	case 211:
 585:boards/TMC5072_eval.c **** 		if(readWrite == READ) {
 586:boards/TMC5072_eval.c **** 			// encoder enable
 587:boards/TMC5072_eval.c **** 			switch(motor)
 588:boards/TMC5072_eval.c **** 			{
 589:boards/TMC5072_eval.c **** 			case 0:
 590:boards/TMC5072_eval.c **** 				tempValue = tmc5072_readInt(motorToIC(motor), TMC5072_GCONF);
 591:boards/TMC5072_eval.c **** 				tempValue &= 0x18; //(1<<3) | (1<<4);
 592:boards/TMC5072_eval.c **** 				*value = (tempValue == 0x10) ? 1 : 0;
 593:boards/TMC5072_eval.c **** 				break;
 594:boards/TMC5072_eval.c **** 			case 1:
 595:boards/TMC5072_eval.c **** 				tempValue = tmc5072_readInt(motorToIC(motor), TMC5072_GCONF);
 596:boards/TMC5072_eval.c **** 				tempValue &= 0x60; //(1<<5) | (1<<6);
 597:boards/TMC5072_eval.c **** 				*value = (tempValue == 0x20) ? 1 : 0;
 598:boards/TMC5072_eval.c **** 				break;
 599:boards/TMC5072_eval.c **** 			}
 600:boards/TMC5072_eval.c **** 		} else if(readWrite == WRITE) {
 601:boards/TMC5072_eval.c **** 			// encoder enable
 602:boards/TMC5072_eval.c **** 			switch(motor)
 603:boards/TMC5072_eval.c **** 			{
 604:boards/TMC5072_eval.c **** 			case 0:
 605:boards/TMC5072_eval.c **** 				TMC5072_FIELD_WRITE(motorToIC(motor), TMC5072_GCONF, TMC5072_POSCMP_ENABLE_MASK, TMC5072_POSCMP
 606:boards/TMC5072_eval.c **** 				TMC5072_FIELD_WRITE(motorToIC(motor), TMC5072_GCONF, TMC5072_ENC1_REFSEL_MASK, TMC5072_ENC1_REF
 607:boards/TMC5072_eval.c **** 				break;
 608:boards/TMC5072_eval.c **** 			case 1:		// enable ENCODER2 - disable REF
 609:boards/TMC5072_eval.c **** 				TMC5072_FIELD_WRITE(motorToIC(motor), TMC5072_GCONF, TMC5072_ENC2_ENABLE_MASK, TMC5072_ENC2_ENA
 610:boards/TMC5072_eval.c **** 				TMC5072_FIELD_WRITE(motorToIC(motor), TMC5072_GCONF, TMC5072_ENC2_REFSEL_MASK, TMC5072_ENC2_REF
 611:boards/TMC5072_eval.c **** 				break;
 612:boards/TMC5072_eval.c **** 			}
 613:boards/TMC5072_eval.c **** 		}
 614:boards/TMC5072_eval.c **** 		break;
 615:boards/TMC5072_eval.c **** 	default:
 616:boards/TMC5072_eval.c **** 		errors |= TMC_ERROR_TYPE;
 617:boards/TMC5072_eval.c **** 		break;
 618:boards/TMC5072_eval.c **** 	}
 619:boards/TMC5072_eval.c **** 	return errors;
 620:boards/TMC5072_eval.c **** }
 621:boards/TMC5072_eval.c **** 
 622:boards/TMC5072_eval.c **** static uint32_t SAP(uint8_t type, uint8_t motor, int32_t value)
 623:boards/TMC5072_eval.c **** {
 624:boards/TMC5072_eval.c **** 	return handleParameter(WRITE, motor, type, &value);
 625:boards/TMC5072_eval.c **** }
 626:boards/TMC5072_eval.c **** 
 627:boards/TMC5072_eval.c **** static uint32_t GAP(uint8_t type, uint8_t motor, int32_t *value)
 628:boards/TMC5072_eval.c **** {
 629:boards/TMC5072_eval.c **** 	return handleParameter(READ, motor, type, value);
 630:boards/TMC5072_eval.c **** }
 631:boards/TMC5072_eval.c **** 
 632:boards/TMC5072_eval.c **** static uint32_t getMeasuredSpeed(uint8_t motor, int32_t *value)
 633:boards/TMC5072_eval.c **** {
  26              		.loc 1 633 1 view -0
  27              		.cfi_startproc
  28              		@ args = 0, pretend = 0, frame = 0
  29              		@ frame_needed = 0, uses_anonymous_args = 0
  30              		@ link register save eliminated.
 634:boards/TMC5072_eval.c **** 	if(motor >= TMC5072_MOTORS)
  31              		.loc 1 634 2 view .LVU1
  32              		.loc 1 634 4 is_stmt 0 view .LVU2
  33 0000 0128     		cmp	r0, #1
 635:boards/TMC5072_eval.c **** 		return TMC_ERROR_MOTOR;
 636:boards/TMC5072_eval.c **** 
 637:boards/TMC5072_eval.c **** 	*value = TMC5072.velocity[motor];
  34              		.loc 1 637 2 is_stmt 1 view .LVU3
  35              		.loc 1 637 27 is_stmt 0 view .LVU4
  36 0002 9FBF     		itttt	ls
  37 0004 044B     		ldrls	r3, .L4
  38 0006 03EB8000 		addls	r0, r3, r0, lsl #2
  39              	.LVL1:
  40              		.loc 1 637 9 view .LVU5
  41 000a C368     		ldrls	r3, [r0, #12]
  42 000c 0B60     		strls	r3, [r1]
 638:boards/TMC5072_eval.c **** 
 639:boards/TMC5072_eval.c **** 	return TMC_ERROR_NONE;
  43              		.loc 1 639 2 is_stmt 1 view .LVU6
  44              		.loc 1 639 9 is_stmt 0 view .LVU7
  45 000e 94BF     		ite	ls
  46 0010 0020     		movls	r0, #0
 635:boards/TMC5072_eval.c **** 		return TMC_ERROR_MOTOR;
  47              		.loc 1 635 10 view .LVU8
  48 0012 0820     		movhi	r0, #8
 640:boards/TMC5072_eval.c **** }
  49              		.loc 1 640 1 view .LVU9
  50 0014 7047     		bx	lr
  51              	.L5:
  52 0016 00BF     		.align	2
  53              	.L4:
  54 0018 00000000 		.word	.LANCHOR0
  55              		.cfi_endproc
  56              	.LFE13:
  58              		.align	1
  59              		.syntax unified
  60              		.thumb
  61              		.thumb_func
  62              		.fpu softvfp
  64              	checkErrors:
  65              	.LVL2:
  66              	.LFB17:
 641:boards/TMC5072_eval.c **** 
 642:boards/TMC5072_eval.c **** static void writeRegister(uint8_t motor, uint8_t address, int32_t value)
 643:boards/TMC5072_eval.c **** {
 644:boards/TMC5072_eval.c **** 	UNUSED(motor);
 645:boards/TMC5072_eval.c **** 	tmc5072_writeInt(motorToIC(motor), address, value);
 646:boards/TMC5072_eval.c **** }
 647:boards/TMC5072_eval.c **** 
 648:boards/TMC5072_eval.c **** static void readRegister(uint8_t motor, uint8_t address, int32_t *value)
 649:boards/TMC5072_eval.c **** {
 650:boards/TMC5072_eval.c **** 	UNUSED(motor);
 651:boards/TMC5072_eval.c **** 	*value = tmc5072_readInt(motorToIC(motor), address);
 652:boards/TMC5072_eval.c **** }
 653:boards/TMC5072_eval.c **** 
 654:boards/TMC5072_eval.c **** static void periodicJob(uint32_t tick)
 655:boards/TMC5072_eval.c **** {
 656:boards/TMC5072_eval.c **** 	for(int motor = 0; motor < TMC5072_MOTORS; motor++)
 657:boards/TMC5072_eval.c **** 	{
 658:boards/TMC5072_eval.c **** 		tmc5072_periodicJob(motorToIC(motor), tick);
 659:boards/TMC5072_eval.c **** 	}
 660:boards/TMC5072_eval.c **** }
 661:boards/TMC5072_eval.c **** 
 662:boards/TMC5072_eval.c **** static void checkErrors(uint32_t tick)
 663:boards/TMC5072_eval.c **** {
  67              		.loc 1 663 1 is_stmt 1 view -0
  68              		.cfi_startproc
  69              		@ args = 0, pretend = 0, frame = 0
  70              		@ frame_needed = 0, uses_anonymous_args = 0
  71              		@ link register save eliminated.
 664:boards/TMC5072_eval.c **** 	UNUSED(tick);
  72              		.loc 1 664 2 view .LVU11
 665:boards/TMC5072_eval.c **** 	Evalboards.ch1.errors = 0;
  73              		.loc 1 665 2 view .LVU12
  74              		.loc 1 665 24 is_stmt 0 view .LVU13
  75 001c 014B     		ldr	r3, .L7
  76 001e 0022     		movs	r2, #0
  77 0020 9A60     		str	r2, [r3, #8]
 666:boards/TMC5072_eval.c **** }
  78              		.loc 1 666 1 view .LVU14
  79 0022 7047     		bx	lr
  80              	.L8:
  81              		.align	2
  82              	.L7:
  83 0024 00000000 		.word	Evalboards
  84              		.cfi_endproc
  85              	.LFE17:
  87              		.align	1
  88              		.syntax unified
  89              		.thumb
  90              		.thumb_func
  91              		.fpu softvfp
  93              	periodicJob:
  94              	.LVL3:
  95              	.LFB16:
 655:boards/TMC5072_eval.c **** 	for(int motor = 0; motor < TMC5072_MOTORS; motor++)
  96              		.loc 1 655 1 is_stmt 1 view -0
  97              		.cfi_startproc
  98              		@ args = 0, pretend = 0, frame = 0
  99              		@ frame_needed = 0, uses_anonymous_args = 0
 656:boards/TMC5072_eval.c **** 	{
 100              		.loc 1 656 2 view .LVU16
 101              	.LBB308:
 656:boards/TMC5072_eval.c **** 	{
 102              		.loc 1 656 6 view .LVU17
 656:boards/TMC5072_eval.c **** 	{
 103              		.loc 1 656 21 view .LVU18
 658:boards/TMC5072_eval.c **** 	}
 104              		.loc 1 658 3 view .LVU19
 105              	.LBB309:
 106              	.LBI309:
  41:boards/TMC5072_eval.c **** {
 107              		.loc 1 41 31 view .LVU20
  41:boards/TMC5072_eval.c **** {
 108              		.loc 1 41 31 is_stmt 0 view .LVU21
 109              	.LBE309:
 110              	.LBE308:
  43:boards/TMC5072_eval.c **** 
 111              		.loc 1 43 2 is_stmt 1 view .LVU22
  45:boards/TMC5072_eval.c **** }
 112              		.loc 1 45 2 view .LVU23
 655:boards/TMC5072_eval.c **** 	for(int motor = 0; motor < TMC5072_MOTORS; motor++)
 113              		.loc 1 655 1 is_stmt 0 view .LVU24
 114 0028 38B5     		push	{r3, r4, r5, lr}
 115              	.LCFI0:
 116              		.cfi_def_cfa_offset 16
 117              		.cfi_offset 3, -16
 118              		.cfi_offset 4, -12
 119              		.cfi_offset 5, -8
 120              		.cfi_offset 14, -4
 121              	.LBB311:
 658:boards/TMC5072_eval.c **** 	}
 122              		.loc 1 658 3 view .LVU25
 123 002a 064D     		ldr	r5, .L10
 124              	.LBE311:
 655:boards/TMC5072_eval.c **** 	for(int motor = 0; motor < TMC5072_MOTORS; motor++)
 125              		.loc 1 655 1 view .LVU26
 126 002c 0446     		mov	r4, r0
 127              	.LBB312:
 658:boards/TMC5072_eval.c **** 	}
 128              		.loc 1 658 3 view .LVU27
 129 002e 0146     		mov	r1, r0
 130 0030 2846     		mov	r0, r5
 131              	.LVL4:
 658:boards/TMC5072_eval.c **** 	}
 132              		.loc 1 658 3 view .LVU28
 133 0032 FFF7FEFF 		bl	tmc5072_periodicJob
 134              	.LVL5:
 656:boards/TMC5072_eval.c **** 	{
 135              		.loc 1 656 45 is_stmt 1 view .LVU29
 656:boards/TMC5072_eval.c **** 	{
 136              		.loc 1 656 21 view .LVU30
 658:boards/TMC5072_eval.c **** 	}
 137              		.loc 1 658 3 view .LVU31
 138              	.LBB310:
  41:boards/TMC5072_eval.c **** {
 139              		.loc 1 41 31 view .LVU32
  41:boards/TMC5072_eval.c **** {
 140              		.loc 1 41 31 is_stmt 0 view .LVU33
 141              	.LBE310:
 142              	.LBE312:
  43:boards/TMC5072_eval.c **** 
 143              		.loc 1 43 2 is_stmt 1 view .LVU34
  45:boards/TMC5072_eval.c **** }
 144              		.loc 1 45 2 view .LVU35
 145              	.LBB313:
 658:boards/TMC5072_eval.c **** 	}
 146              		.loc 1 658 3 is_stmt 0 view .LVU36
 147 0036 2146     		mov	r1, r4
 148 0038 2846     		mov	r0, r5
 149              	.LBE313:
 660:boards/TMC5072_eval.c **** 
 150              		.loc 1 660 1 view .LVU37
 151 003a BDE83840 		pop	{r3, r4, r5, lr}
 152              	.LCFI1:
 153              		.cfi_restore 14
 154              		.cfi_restore 5
 155              		.cfi_restore 4
 156              		.cfi_restore 3
 157              		.cfi_def_cfa_offset 0
 158              	.LVL6:
 159              	.LBB314:
 658:boards/TMC5072_eval.c **** 	}
 160              		.loc 1 658 3 view .LVU38
 161 003e FFF7FEBF 		b	tmc5072_periodicJob
 162              	.LVL7:
 163              	.L11:
 658:boards/TMC5072_eval.c **** 	}
 164              		.loc 1 658 3 view .LVU39
 165 0042 00BF     		.align	2
 166              	.L10:
 167 0044 00000000 		.word	.LANCHOR0
 168              	.LBE314:
 169              		.cfi_endproc
 170              	.LFE16:
 172              		.align	1
 173              		.syntax unified
 174              		.thumb
 175              		.thumb_func
 176              		.fpu softvfp
 178              	readRegister:
 179              	.LVL8:
 180              	.LFB15:
 649:boards/TMC5072_eval.c **** 	UNUSED(motor);
 181              		.loc 1 649 1 is_stmt 1 view -0
 182              		.cfi_startproc
 183              		@ args = 0, pretend = 0, frame = 0
 184              		@ frame_needed = 0, uses_anonymous_args = 0
 650:boards/TMC5072_eval.c **** 	*value = tmc5072_readInt(motorToIC(motor), address);
 185              		.loc 1 650 2 view .LVU41
 651:boards/TMC5072_eval.c **** }
 186              		.loc 1 651 2 view .LVU42
 187              	.LBB315:
 188              	.LBI315:
  41:boards/TMC5072_eval.c **** {
 189              		.loc 1 41 31 view .LVU43
  41:boards/TMC5072_eval.c **** {
 190              		.loc 1 41 31 is_stmt 0 view .LVU44
 191              	.LBE315:
  43:boards/TMC5072_eval.c **** 
 192              		.loc 1 43 2 is_stmt 1 view .LVU45
  45:boards/TMC5072_eval.c **** }
 193              		.loc 1 45 2 view .LVU46
 649:boards/TMC5072_eval.c **** 	UNUSED(motor);
 194              		.loc 1 649 1 is_stmt 0 view .LVU47
 195 0048 10B5     		push	{r4, lr}
 196              	.LCFI2:
 197              		.cfi_def_cfa_offset 8
 198              		.cfi_offset 4, -8
 199              		.cfi_offset 14, -4
 651:boards/TMC5072_eval.c **** }
 200              		.loc 1 651 11 view .LVU48
 201 004a 0348     		ldr	r0, .L13
 202              	.LVL9:
 649:boards/TMC5072_eval.c **** 	UNUSED(motor);
 203              		.loc 1 649 1 view .LVU49
 204 004c 1446     		mov	r4, r2
 651:boards/TMC5072_eval.c **** }
 205              		.loc 1 651 11 view .LVU50
 206 004e FFF7FEFF 		bl	tmc5072_readInt
 207              	.LVL10:
 651:boards/TMC5072_eval.c **** }
 208              		.loc 1 651 9 view .LVU51
 209 0052 2060     		str	r0, [r4]
 652:boards/TMC5072_eval.c **** 
 210              		.loc 1 652 1 view .LVU52
 211 0054 10BD     		pop	{r4, pc}
 212              	.LVL11:
 213              	.L14:
 652:boards/TMC5072_eval.c **** 
 214              		.loc 1 652 1 view .LVU53
 215 0056 00BF     		.align	2
 216              	.L13:
 217 0058 00000000 		.word	.LANCHOR0
 218              		.cfi_endproc
 219              	.LFE15:
 221              		.align	1
 222              		.syntax unified
 223              		.thumb
 224              		.thumb_func
 225              		.fpu softvfp
 227              	writeRegister:
 228              	.LVL12:
 229              	.LFB14:
 643:boards/TMC5072_eval.c **** 	UNUSED(motor);
 230              		.loc 1 643 1 is_stmt 1 view -0
 231              		.cfi_startproc
 232              		@ args = 0, pretend = 0, frame = 0
 233              		@ frame_needed = 0, uses_anonymous_args = 0
 234              		@ link register save eliminated.
 644:boards/TMC5072_eval.c **** 	tmc5072_writeInt(motorToIC(motor), address, value);
 235              		.loc 1 644 2 view .LVU55
 645:boards/TMC5072_eval.c **** }
 236              		.loc 1 645 2 view .LVU56
 237              	.LBB316:
 238              	.LBI316:
  41:boards/TMC5072_eval.c **** {
 239              		.loc 1 41 31 view .LVU57
  41:boards/TMC5072_eval.c **** {
 240              		.loc 1 41 31 is_stmt 0 view .LVU58
 241              	.LBE316:
  43:boards/TMC5072_eval.c **** 
 242              		.loc 1 43 2 is_stmt 1 view .LVU59
  45:boards/TMC5072_eval.c **** }
 243              		.loc 1 45 2 view .LVU60
 645:boards/TMC5072_eval.c **** }
 244              		.loc 1 645 2 is_stmt 0 view .LVU61
 245 005c 0148     		ldr	r0, .L16
 246              	.LVL13:
 645:boards/TMC5072_eval.c **** }
 247              		.loc 1 645 2 view .LVU62
 248 005e FFF7FEBF 		b	tmc5072_writeInt
 249              	.LVL14:
 250              	.L17:
 645:boards/TMC5072_eval.c **** }
 251              		.loc 1 645 2 view .LVU63
 252 0062 00BF     		.align	2
 253              	.L16:
 254 0064 00000000 		.word	.LANCHOR0
 255              		.cfi_endproc
 256              	.LFE14:
 258              		.align	1
 259              		.syntax unified
 260              		.thumb
 261              		.thumb_func
 262              		.fpu softvfp
 264              	handleParameter:
 265              	.LVL15:
 266              	.LFB10:
 123:boards/TMC5072_eval.c **** 	uint32_t errors = TMC_ERROR_NONE;
 267              		.loc 1 123 1 is_stmt 1 view -0
 268              		.cfi_startproc
 269              		@ args = 0, pretend = 0, frame = 0
 270              		@ frame_needed = 0, uses_anonymous_args = 0
 127:boards/TMC5072_eval.c **** 		return TMC_ERROR_MOTOR;
 271              		.loc 1 127 4 is_stmt 0 view .LVU65
 272 0068 0129     		cmp	r1, #1
 123:boards/TMC5072_eval.c **** 	uint32_t errors = TMC_ERROR_NONE;
 273              		.loc 1 123 1 view .LVU66
 274 006a F8B5     		push	{r3, r4, r5, r6, r7, lr}
 275              	.LCFI3:
 276              		.cfi_def_cfa_offset 24
 277              		.cfi_offset 3, -24
 278              		.cfi_offset 4, -20
 279              		.cfi_offset 5, -16
 280              		.cfi_offset 6, -12
 281              		.cfi_offset 7, -8
 282              		.cfi_offset 14, -4
 123:boards/TMC5072_eval.c **** 	uint32_t errors = TMC_ERROR_NONE;
 283              		.loc 1 123 1 view .LVU67
 284 006c 0446     		mov	r4, r0
 124:boards/TMC5072_eval.c **** 	int tempValue;
 285              		.loc 1 124 2 is_stmt 1 view .LVU68
 286              	.LVL16:
 125:boards/TMC5072_eval.c **** 
 287              		.loc 1 125 2 view .LVU69
 127:boards/TMC5072_eval.c **** 		return TMC_ERROR_MOTOR;
 288              		.loc 1 127 2 view .LVU70
 123:boards/TMC5072_eval.c **** 	uint32_t errors = TMC_ERROR_NONE;
 289              		.loc 1 123 1 is_stmt 0 view .LVU71
 290 006e 1D46     		mov	r5, r3
 127:boards/TMC5072_eval.c **** 		return TMC_ERROR_MOTOR;
 291              		.loc 1 127 4 view .LVU72
 292 0070 00F20186 		bhi	.L150
 130:boards/TMC5072_eval.c **** 	{
 293              		.loc 1 130 2 is_stmt 1 view .LVU73
 294 0074 1D2A     		cmp	r2, #29
 295 0076 45D9     		bls	.L172
 296 0078 B82A     		cmp	r2, #184
 297 007a 66D8     		bhi	.L74
 298 007c 8B2A     		cmp	r2, #139
 299 007e 0ED8     		bhi	.L75
 300 0080 0424     		movs	r4, #4
 301              	.LVL17:
 302              	.L18:
 620:boards/TMC5072_eval.c **** 
 303              		.loc 1 620 1 is_stmt 0 view .LVU74
 304 0082 2046     		mov	r0, r4
 305 0084 F8BD     		pop	{r3, r4, r5, r6, r7, pc}
 306              	.LVL18:
 307              	.L76:
 620:boards/TMC5072_eval.c **** 
 308              		.loc 1 620 1 view .LVU75
 309 0086 CE3A     		subs	r2, r2, #206
 310              	.LVL19:
 620:boards/TMC5072_eval.c **** 
 311              		.loc 1 620 1 view .LVU76
 312 0088 052A     		cmp	r2, #5
 313 008a 00F2F785 		bhi	.L151
 314 008e DFE812F0 		tbh	[pc, r2, lsl #1]
 315              	.L23:
 316 0092 5705     		.2byte	(.L26-.L23)/2
 317 0094 F505     		.2byte	(.L151-.L23)/2
 318 0096 F505     		.2byte	(.L151-.L23)/2
 319 0098 6605     		.2byte	(.L25-.L23)/2
 320 009a 7E05     		.2byte	(.L24-.L23)/2
 321 009c 9205     		.2byte	(.L22-.L23)/2
 322              	.LVL20:
 323              		.p2align 1
 324              	.L75:
 620:boards/TMC5072_eval.c **** 
 325              		.loc 1 620 1 view .LVU77
 326 009e 8C3A     		subs	r2, r2, #140
 327              	.LVL21:
 620:boards/TMC5072_eval.c **** 
 328              		.loc 1 620 1 view .LVU78
 329 00a0 2C2A     		cmp	r2, #44
 330 00a2 00F2EE85 		bhi	.L152
 331 00a6 DFE812F0 		tbh	[pc, r2, lsl #1]
 332              	.LVL22:
 333              	.L28:
 334 00aa 8E02     		.2byte	(.L46-.L28)/2
 335 00ac EC05     		.2byte	(.L152-.L28)/2
 336 00ae EC05     		.2byte	(.L152-.L28)/2
 337 00b0 EC05     		.2byte	(.L152-.L28)/2
 338 00b2 EC05     		.2byte	(.L152-.L28)/2
 339 00b4 EC05     		.2byte	(.L152-.L28)/2
 340 00b6 EC05     		.2byte	(.L152-.L28)/2
 341 00b8 EC05     		.2byte	(.L152-.L28)/2
 342 00ba EC05     		.2byte	(.L152-.L28)/2
 343 00bc EC05     		.2byte	(.L152-.L28)/2
 344 00be EC05     		.2byte	(.L152-.L28)/2
 345 00c0 EC05     		.2byte	(.L152-.L28)/2
 346 00c2 EC05     		.2byte	(.L152-.L28)/2
 347 00c4 EC05     		.2byte	(.L152-.L28)/2
 348 00c6 EC05     		.2byte	(.L152-.L28)/2
 349 00c8 EC05     		.2byte	(.L152-.L28)/2
 350 00ca EC05     		.2byte	(.L152-.L28)/2
 351 00cc EC05     		.2byte	(.L152-.L28)/2
 352 00ce EC05     		.2byte	(.L152-.L28)/2
 353 00d0 EC05     		.2byte	(.L152-.L28)/2
 354 00d2 EC05     		.2byte	(.L152-.L28)/2
 355 00d4 EC05     		.2byte	(.L152-.L28)/2
 356 00d6 E302     		.2byte	(.L45-.L28)/2
 357 00d8 FF02     		.2byte	(.L44-.L28)/2
 358 00da 1D03     		.2byte	(.L43-.L28)/2
 359 00dc 3903     		.2byte	(.L42-.L28)/2
 360 00de 8103     		.2byte	(.L41-.L28)/2
 361 00e0 C403     		.2byte	(.L40-.L28)/2
 362 00e2 DF03     		.2byte	(.L39-.L28)/2
 363 00e4 FC03     		.2byte	(.L38-.L28)/2
 364 00e6 1A04     		.2byte	(.L37-.L28)/2
 365 00e8 3804     		.2byte	(.L36-.L28)/2
 366 00ea 5604     		.2byte	(.L35-.L28)/2
 367 00ec 7304     		.2byte	(.L34-.L28)/2
 368 00ee 9304     		.2byte	(.L33-.L28)/2
 369 00f0 EC05     		.2byte	(.L152-.L28)/2
 370 00f2 EC05     		.2byte	(.L152-.L28)/2
 371 00f4 EC05     		.2byte	(.L152-.L28)/2
 372 00f6 EC05     		.2byte	(.L152-.L28)/2
 373 00f8 B804     		.2byte	(.L32-.L28)/2
 374 00fa D604     		.2byte	(.L31-.L28)/2
 375 00fc E504     		.2byte	(.L30-.L28)/2
 376 00fe 1905     		.2byte	(.L29-.L28)/2
 377 0100 EC05     		.2byte	(.L152-.L28)/2
 378 0102 2D05     		.2byte	(.L27-.L28)/2
 379              		.p2align 1
 380              	.L172:
 620:boards/TMC5072_eval.c **** 
 381              		.loc 1 620 1 view .LVU79
 382 0104 1D2A     		cmp	r2, #29
 383 0106 00F2BF85 		bhi	.L153
 384 010a DFE812F0 		tbh	[pc, r2, lsl #1]
 385              	.LVL23:
 386              	.L48:
 387 010e 2500     		.2byte	(.L73-.L48)/2
 388 0110 3700     		.2byte	(.L72-.L48)/2
 389 0112 4900     		.2byte	(.L71-.L48)/2
 390 0114 5E00     		.2byte	(.L70-.L48)/2
 391 0116 7200     		.2byte	(.L69-.L48)/2
 392 0118 9400     		.2byte	(.L68-.L48)/2
 393 011a A600     		.2byte	(.L67-.L48)/2
 394 011c C400     		.2byte	(.L66-.L48)/2
 395 011e E100     		.2byte	(.L65-.L48)/2
 396 0120 BD05     		.2byte	(.L153-.L48)/2
 397 0122 F100     		.2byte	(.L64-.L48)/2
 398 0124 0101     		.2byte	(.L63-.L48)/2
 399 0126 1101     		.2byte	(.L62-.L48)/2
 400 0128 4001     		.2byte	(.L61-.L48)/2
 401 012a 6F01     		.2byte	(.L60-.L48)/2
 402 012c 8101     		.2byte	(.L59-.L48)/2
 403 012e 9501     		.2byte	(.L58-.L48)/2
 404 0130 A701     		.2byte	(.L57-.L48)/2
 405 0132 B901     		.2byte	(.L56-.L48)/2
 406 0134 CB01     		.2byte	(.L55-.L48)/2
 407 0136 DD01     		.2byte	(.L54-.L48)/2
 408 0138 EF01     		.2byte	(.L53-.L48)/2
 409 013a 0102     		.2byte	(.L52-.L48)/2
 410 013c 1302     		.2byte	(.L51-.L48)/2
 411 013e 2502     		.2byte	(.L50-.L48)/2
 412 0140 BD05     		.2byte	(.L153-.L48)/2
 413 0142 BD05     		.2byte	(.L153-.L48)/2
 414 0144 BD05     		.2byte	(.L153-.L48)/2
 415 0146 3702     		.2byte	(.L49-.L48)/2
 416 0148 5302     		.2byte	(.L47-.L48)/2
 417              		.p2align 1
 418              	.L74:
 130:boards/TMC5072_eval.c **** 	{
 419              		.loc 1 130 2 view .LVU80
 420 014a 02F13203 		add	r3, r2, #50
 421              	.LVL24:
 130:boards/TMC5072_eval.c **** 	{
 422              		.loc 1 130 2 view .LVU81
 423 014e DBB2     		uxtb	r3, r3
 424 0150 052B     		cmp	r3, #5
 425 0152 98D9     		bls	.L76
 426 0154 0424     		movs	r4, #4
 427 0156 94E7     		b	.L18
 428              	.L73:
 134:boards/TMC5072_eval.c **** 			*value = tmc5072_readInt(motorToIC(motor), TMC5072_XTARGET(motor));
 429              		.loc 1 134 3 is_stmt 1 view .LVU82
 430 0158 2023     		movs	r3, #32
 431 015a 03FA01F1 		lsl	r1, r3, r1
 432              	.LVL25:
 134:boards/TMC5072_eval.c **** 			*value = tmc5072_readInt(motorToIC(motor), TMC5072_XTARGET(motor));
 433              		.loc 1 134 3 is_stmt 0 view .LVU83
 434 015e 41F00D01 		orr	r1, r1, #13
 435 0162 C9B2     		uxtb	r1, r1
 134:boards/TMC5072_eval.c **** 			*value = tmc5072_readInt(motorToIC(motor), TMC5072_XTARGET(motor));
 436              		.loc 1 134 5 view .LVU84
 437 0164 20B9     		cbnz	r0, .L77
 135:boards/TMC5072_eval.c **** 		} else if(readWrite == WRITE) {
 438              		.loc 1 135 4 is_stmt 1 view .LVU85
 439              	.LBB317:
 440              	.LBI317:
  41:boards/TMC5072_eval.c **** {
 441              		.loc 1 41 31 view .LVU86
 442              	.LVL26:
  41:boards/TMC5072_eval.c **** {
 443              		.loc 1 41 31 is_stmt 0 view .LVU87
 444              	.LBE317:
  43:boards/TMC5072_eval.c **** 
 445              		.loc 1 43 2 is_stmt 1 view .LVU88
  45:boards/TMC5072_eval.c **** }
 446              		.loc 1 45 2 view .LVU89
 135:boards/TMC5072_eval.c **** 		} else if(readWrite == WRITE) {
 447              		.loc 1 135 13 is_stmt 0 view .LVU90
 448 0166 B348     		ldr	r0, .L174
 449              	.LVL27:
 135:boards/TMC5072_eval.c **** 		} else if(readWrite == WRITE) {
 450              		.loc 1 135 13 view .LVU91
 451 0168 FFF7FEFF 		bl	tmc5072_readInt
 452              	.LVL28:
 135:boards/TMC5072_eval.c **** 		} else if(readWrite == WRITE) {
 453              		.loc 1 135 11 view .LVU92
 454 016c 2860     		str	r0, [r5]
 455 016e 88E7     		b	.L18
 456              	.LVL29:
 457              	.L77:
 136:boards/TMC5072_eval.c **** 			tmc5072_writeInt(motorToIC(motor), TMC5072_XTARGET(motor), *value);
 458              		.loc 1 136 10 is_stmt 1 view .LVU93
 137:boards/TMC5072_eval.c **** 		}
 459              		.loc 1 137 4 view .LVU94
 460              	.LBB318:
 461              	.LBI318:
  41:boards/TMC5072_eval.c **** {
 462              		.loc 1 41 31 view .LVU95
  41:boards/TMC5072_eval.c **** {
 463              		.loc 1 41 31 is_stmt 0 view .LVU96
 464              	.LBE318:
  43:boards/TMC5072_eval.c **** 
 465              		.loc 1 43 2 is_stmt 1 view .LVU97
  45:boards/TMC5072_eval.c **** }
 466              		.loc 1 45 2 view .LVU98
 137:boards/TMC5072_eval.c **** 		}
 467              		.loc 1 137 4 is_stmt 0 view .LVU99
 468 0170 2A68     		ldr	r2, [r5]
 469              	.LVL30:
 137:boards/TMC5072_eval.c **** 		}
 470              		.loc 1 137 4 view .LVU100
 471 0172 B048     		ldr	r0, .L174
 472              	.LVL31:
 137:boards/TMC5072_eval.c **** 		}
 473              		.loc 1 137 4 view .LVU101
 474 0174 FFF7FEFF 		bl	tmc5072_writeInt
 475              	.LVL32:
 124:boards/TMC5072_eval.c **** 	int tempValue;
 476              		.loc 1 124 11 view .LVU102
 477 0178 0024     		movs	r4, #0
 478 017a 82E7     		b	.L18
 479              	.LVL33:
 480              	.L72:
 142:boards/TMC5072_eval.c **** 			*value = tmc5072_readInt(motorToIC(motor), TMC5072_XACTUAL(motor));
 481              		.loc 1 142 3 is_stmt 1 view .LVU103
 482 017c 2023     		movs	r3, #32
 483 017e 03FA01F1 		lsl	r1, r3, r1
 484              	.LVL34:
 142:boards/TMC5072_eval.c **** 			*value = tmc5072_readInt(motorToIC(motor), TMC5072_XACTUAL(motor));
 485              		.loc 1 142 3 is_stmt 0 view .LVU104
 486 0182 41F00101 		orr	r1, r1, #1
 487 0186 C9B2     		uxtb	r1, r1
 142:boards/TMC5072_eval.c **** 			*value = tmc5072_readInt(motorToIC(motor), TMC5072_XACTUAL(motor));
 488              		.loc 1 142 5 view .LVU105
 489 0188 20B9     		cbnz	r0, .L78
 143:boards/TMC5072_eval.c **** 		} else if(readWrite == WRITE) {
 490              		.loc 1 143 4 is_stmt 1 view .LVU106
 491              	.LBB319:
 492              	.LBI319:
  41:boards/TMC5072_eval.c **** {
 493              		.loc 1 41 31 view .LVU107
 494              	.LVL35:
  41:boards/TMC5072_eval.c **** {
 495              		.loc 1 41 31 is_stmt 0 view .LVU108
 496              	.LBE319:
  43:boards/TMC5072_eval.c **** 
 497              		.loc 1 43 2 is_stmt 1 view .LVU109
  45:boards/TMC5072_eval.c **** }
 498              		.loc 1 45 2 view .LVU110
 143:boards/TMC5072_eval.c **** 		} else if(readWrite == WRITE) {
 499              		.loc 1 143 13 is_stmt 0 view .LVU111
 500 018a AA48     		ldr	r0, .L174
 501              	.LVL36:
 143:boards/TMC5072_eval.c **** 		} else if(readWrite == WRITE) {
 502              		.loc 1 143 13 view .LVU112
 503 018c FFF7FEFF 		bl	tmc5072_readInt
 504              	.LVL37:
 143:boards/TMC5072_eval.c **** 		} else if(readWrite == WRITE) {
 505              		.loc 1 143 11 view .LVU113
 506 0190 2860     		str	r0, [r5]
 507 0192 76E7     		b	.L18
 508              	.LVL38:
 509              	.L78:
 144:boards/TMC5072_eval.c **** 			tmc5072_writeInt(motorToIC(motor), TMC5072_XACTUAL(motor), *value);
 510              		.loc 1 144 10 is_stmt 1 view .LVU114
 145:boards/TMC5072_eval.c **** 		}
 511              		.loc 1 145 4 view .LVU115
 512              	.LBB320:
 513              	.LBI320:
  41:boards/TMC5072_eval.c **** {
 514              		.loc 1 41 31 view .LVU116
  41:boards/TMC5072_eval.c **** {
 515              		.loc 1 41 31 is_stmt 0 view .LVU117
 516              	.LBE320:
  43:boards/TMC5072_eval.c **** 
 517              		.loc 1 43 2 is_stmt 1 view .LVU118
  45:boards/TMC5072_eval.c **** }
 518              		.loc 1 45 2 view .LVU119
 145:boards/TMC5072_eval.c **** 		}
 519              		.loc 1 145 4 is_stmt 0 view .LVU120
 520 0194 2A68     		ldr	r2, [r5]
 521              	.LVL39:
 145:boards/TMC5072_eval.c **** 		}
 522              		.loc 1 145 4 view .LVU121
 523 0196 A748     		ldr	r0, .L174
 524              	.LVL40:
 145:boards/TMC5072_eval.c **** 		}
 525              		.loc 1 145 4 view .LVU122
 526 0198 FFF7FEFF 		bl	tmc5072_writeInt
 527              	.LVL41:
 124:boards/TMC5072_eval.c **** 	int tempValue;
 528              		.loc 1 124 11 view .LVU123
 529 019c 0024     		movs	r4, #0
 530 019e 70E7     		b	.L18
 531              	.LVL42:
 532              	.L71:
 150:boards/TMC5072_eval.c **** 			*value = tmc5072_readInt(motorToIC(motor), TMC5072_VMAX(motor));
 533              		.loc 1 150 3 is_stmt 1 view .LVU124
 534 01a0 2023     		movs	r3, #32
 535 01a2 03FA01F1 		lsl	r1, r3, r1
 536              	.LVL43:
 150:boards/TMC5072_eval.c **** 			*value = tmc5072_readInt(motorToIC(motor), TMC5072_VMAX(motor));
 537              		.loc 1 150 3 is_stmt 0 view .LVU125
 538 01a6 41F00701 		orr	r1, r1, #7
 539 01aa C9B2     		uxtb	r1, r1
 150:boards/TMC5072_eval.c **** 			*value = tmc5072_readInt(motorToIC(motor), TMC5072_VMAX(motor));
 540              		.loc 1 150 5 view .LVU126
 541 01ac 20B9     		cbnz	r0, .L79
 151:boards/TMC5072_eval.c **** 		} else if(readWrite == WRITE) {
 542              		.loc 1 151 4 is_stmt 1 view .LVU127
 543              	.LBB321:
 544              	.LBI321:
  41:boards/TMC5072_eval.c **** {
 545              		.loc 1 41 31 view .LVU128
 546              	.LVL44:
  41:boards/TMC5072_eval.c **** {
 547              		.loc 1 41 31 is_stmt 0 view .LVU129
 548              	.LBE321:
  43:boards/TMC5072_eval.c **** 
 549              		.loc 1 43 2 is_stmt 1 view .LVU130
  45:boards/TMC5072_eval.c **** }
 550              		.loc 1 45 2 view .LVU131
 151:boards/TMC5072_eval.c **** 		} else if(readWrite == WRITE) {
 551              		.loc 1 151 13 is_stmt 0 view .LVU132
 552 01ae A148     		ldr	r0, .L174
 553              	.LVL45:
 151:boards/TMC5072_eval.c **** 		} else if(readWrite == WRITE) {
 554              		.loc 1 151 13 view .LVU133
 555 01b0 FFF7FEFF 		bl	tmc5072_readInt
 556              	.LVL46:
 151:boards/TMC5072_eval.c **** 		} else if(readWrite == WRITE) {
 557              		.loc 1 151 11 view .LVU134
 558 01b4 2860     		str	r0, [r5]
 559 01b6 64E7     		b	.L18
 560              	.LVL47:
 561              	.L79:
 152:boards/TMC5072_eval.c **** 			tmc5072_writeInt(motorToIC(motor), TMC5072_VMAX(motor), abs(*value));
 562              		.loc 1 152 10 is_stmt 1 view .LVU135
 153:boards/TMC5072_eval.c **** 		}
 563              		.loc 1 153 4 view .LVU136
 564              	.LBB322:
 565              	.LBI322:
  41:boards/TMC5072_eval.c **** {
 566              		.loc 1 41 31 view .LVU137
  41:boards/TMC5072_eval.c **** {
 567              		.loc 1 41 31 is_stmt 0 view .LVU138
 568              	.LBE322:
  43:boards/TMC5072_eval.c **** 
 569              		.loc 1 43 2 is_stmt 1 view .LVU139
  45:boards/TMC5072_eval.c **** }
 570              		.loc 1 45 2 view .LVU140
 153:boards/TMC5072_eval.c **** 		}
 571              		.loc 1 153 60 is_stmt 0 view .LVU141
 572 01b8 2A68     		ldr	r2, [r5]
 573              	.LVL48:
 153:boards/TMC5072_eval.c **** 		}
 574              		.loc 1 153 4 view .LVU142
 575 01ba 9E48     		ldr	r0, .L174
 576              	.LVL49:
 153:boards/TMC5072_eval.c **** 		}
 577              		.loc 1 153 4 view .LVU143
 578 01bc 002A     		cmp	r2, #0
 579 01be B8BF     		it	lt
 580 01c0 5242     		rsblt	r2, r2, #0
 581 01c2 FFF7FEFF 		bl	tmc5072_writeInt
 582              	.LVL50:
 124:boards/TMC5072_eval.c **** 	int tempValue;
 583              		.loc 1 124 11 view .LVU144
 584 01c6 0024     		movs	r4, #0
 585 01c8 5BE7     		b	.L18
 586              	.LVL51:
 587              	.L70:
 159:boards/TMC5072_eval.c **** 			*value = tmc5072_readInt(motorToIC(motor), TMC5072_VACTUAL(motor));
 588              		.loc 1 159 3 is_stmt 1 view .LVU145
 159:boards/TMC5072_eval.c **** 			*value = tmc5072_readInt(motorToIC(motor), TMC5072_VACTUAL(motor));
 589              		.loc 1 159 5 is_stmt 0 view .LVU146
 590 01ca 0028     		cmp	r0, #0
 591 01cc 40F05F85 		bne	.L154
 160:boards/TMC5072_eval.c **** 			*value = CAST_Sn_TO_S32(*value, 24);
 592              		.loc 1 160 4 is_stmt 1 view .LVU147
 593              	.LBB323:
 594              	.LBI323:
  41:boards/TMC5072_eval.c **** {
 595              		.loc 1 41 31 view .LVU148
 596              	.LVL52:
  41:boards/TMC5072_eval.c **** {
 597              		.loc 1 41 31 is_stmt 0 view .LVU149
 598              	.LBE323:
  43:boards/TMC5072_eval.c **** 
 599              		.loc 1 43 2 is_stmt 1 view .LVU150
  45:boards/TMC5072_eval.c **** }
 600              		.loc 1 45 2 view .LVU151
 160:boards/TMC5072_eval.c **** 			*value = CAST_Sn_TO_S32(*value, 24);
 601              		.loc 1 160 47 is_stmt 0 view .LVU152
 602 01d0 2023     		movs	r3, #32
 603 01d2 03FA01F1 		lsl	r1, r3, r1
 604              	.LVL53:
 160:boards/TMC5072_eval.c **** 			*value = CAST_Sn_TO_S32(*value, 24);
 605              		.loc 1 160 47 view .LVU153
 606 01d6 41F00201 		orr	r1, r1, #2
 160:boards/TMC5072_eval.c **** 			*value = CAST_Sn_TO_S32(*value, 24);
 607              		.loc 1 160 13 view .LVU154
 608 01da 9648     		ldr	r0, .L174
 609              	.LVL54:
 160:boards/TMC5072_eval.c **** 			*value = CAST_Sn_TO_S32(*value, 24);
 610              		.loc 1 160 13 view .LVU155
 611 01dc C9B2     		uxtb	r1, r1
 612 01de FFF7FEFF 		bl	tmc5072_readInt
 613              	.LVL55:
 161:boards/TMC5072_eval.c **** 		} else if(readWrite == WRITE) {
 614              		.loc 1 161 4 is_stmt 1 view .LVU156
 161:boards/TMC5072_eval.c **** 		} else if(readWrite == WRITE) {
 615              		.loc 1 161 13 is_stmt 0 view .LVU157
 616 01e2 10F40003 		ands	r3, r0, #8388608
 617 01e6 18BF     		it	ne
 618 01e8 4FF07F43 		movne	r3, #-16777216
 619 01ec 1843     		orrs	r0, r0, r3
 161:boards/TMC5072_eval.c **** 		} else if(readWrite == WRITE) {
 620              		.loc 1 161 11 view .LVU158
 621 01ee 2860     		str	r0, [r5]
 622 01f0 47E7     		b	.L18
 623              	.LVL56:
 624              	.L69:
 168:boards/TMC5072_eval.c **** 			*value = vmax_position[motor];
 625              		.loc 1 168 3 is_stmt 1 view .LVU159
 626 01f2 904E     		ldr	r6, .L174
 627 01f4 8F00     		lsls	r7, r1, #2
 169:boards/TMC5072_eval.c **** 		} else if(readWrite == WRITE) {
 628              		.loc 1 169 26 is_stmt 0 view .LVU160
 629 01f6 3744     		add	r7, r7, r6
 168:boards/TMC5072_eval.c **** 			*value = vmax_position[motor];
 630              		.loc 1 168 5 view .LVU161
 631 01f8 18B9     		cbnz	r0, .L81
 169:boards/TMC5072_eval.c **** 		} else if(readWrite == WRITE) {
 632              		.loc 1 169 4 is_stmt 1 view .LVU162
 169:boards/TMC5072_eval.c **** 		} else if(readWrite == WRITE) {
 633              		.loc 1 169 11 is_stmt 0 view .LVU163
 634 01fa D7F89832 		ldr	r3, [r7, #664]
 635 01fe 2B60     		str	r3, [r5]
 636 0200 3FE7     		b	.L18
 637              	.L81:
 170:boards/TMC5072_eval.c **** 			vmax_position[motor] = abs(*value);
 638              		.loc 1 170 10 is_stmt 1 view .LVU164
 171:boards/TMC5072_eval.c **** 			if(tmc5072_readInt(motorToIC(motor), TMC5072_RAMPMODE(motor)) == TMC5072_MODE_POSITION)
 639              		.loc 1 171 4 view .LVU165
 171:boards/TMC5072_eval.c **** 			if(tmc5072_readInt(motorToIC(motor), TMC5072_RAMPMODE(motor)) == TMC5072_MODE_POSITION)
 640              		.loc 1 171 27 is_stmt 0 view .LVU166
 641 0202 2B68     		ldr	r3, [r5]
 172:boards/TMC5072_eval.c **** 				tmc5072_writeInt(motorToIC(motor), TMC5072_VMAX(motor), vmax_position[motor]);
 642              		.loc 1 172 41 view .LVU167
 643 0204 2025     		movs	r5, #32
 644              	.LVL57:
 171:boards/TMC5072_eval.c **** 			if(tmc5072_readInt(motorToIC(motor), TMC5072_RAMPMODE(motor)) == TMC5072_MODE_POSITION)
 645              		.loc 1 171 27 view .LVU168
 646 0206 002B     		cmp	r3, #0
 172:boards/TMC5072_eval.c **** 				tmc5072_writeInt(motorToIC(motor), TMC5072_VMAX(motor), vmax_position[motor]);
 647              		.loc 1 172 41 view .LVU169
 648 0208 05FA01F5 		lsl	r5, r5, r1
 171:boards/TMC5072_eval.c **** 			if(tmc5072_readInt(motorToIC(motor), TMC5072_RAMPMODE(motor)) == TMC5072_MODE_POSITION)
 649              		.loc 1 171 27 view .LVU170
 650 020c B8BF     		it	lt
 651 020e 5B42     		rsblt	r3, r3, #0
 172:boards/TMC5072_eval.c **** 				tmc5072_writeInt(motorToIC(motor), TMC5072_VMAX(motor), vmax_position[motor]);
 652              		.loc 1 172 7 view .LVU171
 653 0210 E9B2     		uxtb	r1, r5
 654              	.LVL58:
 172:boards/TMC5072_eval.c **** 				tmc5072_writeInt(motorToIC(motor), TMC5072_VMAX(motor), vmax_position[motor]);
 655              		.loc 1 172 7 view .LVU172
 656 0212 3046     		mov	r0, r6
 657              	.LVL59:
 171:boards/TMC5072_eval.c **** 			if(tmc5072_readInt(motorToIC(motor), TMC5072_RAMPMODE(motor)) == TMC5072_MODE_POSITION)
 658              		.loc 1 171 25 view .LVU173
 659 0214 C7F89832 		str	r3, [r7, #664]
 172:boards/TMC5072_eval.c **** 				tmc5072_writeInt(motorToIC(motor), TMC5072_VMAX(motor), vmax_position[motor]);
 660              		.loc 1 172 4 is_stmt 1 view .LVU174
 661              	.LBB324:
 662              	.LBI324:
  41:boards/TMC5072_eval.c **** {
 663              		.loc 1 41 31 view .LVU175
 664              	.LVL60:
  41:boards/TMC5072_eval.c **** {
 665              		.loc 1 41 31 is_stmt 0 view .LVU176
 666              	.LBE324:
  43:boards/TMC5072_eval.c **** 
 667              		.loc 1 43 2 is_stmt 1 view .LVU177
  45:boards/TMC5072_eval.c **** }
 668              		.loc 1 45 2 view .LVU178
 172:boards/TMC5072_eval.c **** 				tmc5072_writeInt(motorToIC(motor), TMC5072_VMAX(motor), vmax_position[motor]);
 669              		.loc 1 172 7 is_stmt 0 view .LVU179
 670 0218 FFF7FEFF 		bl	tmc5072_readInt
 671              	.LVL61:
 172:boards/TMC5072_eval.c **** 				tmc5072_writeInt(motorToIC(motor), TMC5072_VMAX(motor), vmax_position[motor]);
 672              		.loc 1 172 6 view .LVU180
 673 021c 0446     		mov	r4, r0
 674 021e 0028     		cmp	r0, #0
 675 0220 40F03885 		bne	.L156
 173:boards/TMC5072_eval.c **** 		}
 676              		.loc 1 173 5 is_stmt 1 view .LVU181
 677              	.LBB325:
 678              	.LBI325:
  41:boards/TMC5072_eval.c **** {
 679              		.loc 1 41 31 view .LVU182
 680              	.LVL62:
  41:boards/TMC5072_eval.c **** {
 681              		.loc 1 41 31 is_stmt 0 view .LVU183
 682              	.LBE325:
  43:boards/TMC5072_eval.c **** 
 683              		.loc 1 43 2 is_stmt 1 view .LVU184
  45:boards/TMC5072_eval.c **** }
 684              		.loc 1 45 2 view .LVU185
 173:boards/TMC5072_eval.c **** 		}
 685              		.loc 1 173 40 is_stmt 0 view .LVU186
 686 0224 45F00701 		orr	r1, r5, #7
 173:boards/TMC5072_eval.c **** 		}
 687              		.loc 1 173 5 view .LVU187
 688 0228 D7F89822 		ldr	r2, [r7, #664]
 689 022c C9B2     		uxtb	r1, r1
 690 022e 3046     		mov	r0, r6
 691 0230 FFF7FEFF 		bl	tmc5072_writeInt
 692              	.LVL63:
 693 0234 25E7     		b	.L18
 694              	.LVL64:
 695              	.L68:
 178:boards/TMC5072_eval.c **** 			*value = tmc5072_readInt(motorToIC(motor), TMC5072_AMAX(motor));
 696              		.loc 1 178 3 is_stmt 1 view .LVU188
 697 0236 2023     		movs	r3, #32
 698 0238 03FA01F1 		lsl	r1, r3, r1
 699              	.LVL65:
 178:boards/TMC5072_eval.c **** 			*value = tmc5072_readInt(motorToIC(motor), TMC5072_AMAX(motor));
 700              		.loc 1 178 3 is_stmt 0 view .LVU189
 701 023c 41F00601 		orr	r1, r1, #6
 702 0240 C9B2     		uxtb	r1, r1
 178:boards/TMC5072_eval.c **** 			*value = tmc5072_readInt(motorToIC(motor), TMC5072_AMAX(motor));
 703              		.loc 1 178 5 view .LVU190
 704 0242 20B9     		cbnz	r0, .L82
 179:boards/TMC5072_eval.c **** 		} else if(readWrite == WRITE) {
 705              		.loc 1 179 4 is_stmt 1 view .LVU191
 706              	.LBB326:
 707              	.LBI326:
  41:boards/TMC5072_eval.c **** {
 708              		.loc 1 41 31 view .LVU192
 709              	.LVL66:
  41:boards/TMC5072_eval.c **** {
 710              		.loc 1 41 31 is_stmt 0 view .LVU193
 711              	.LBE326:
  43:boards/TMC5072_eval.c **** 
 712              		.loc 1 43 2 is_stmt 1 view .LVU194
  45:boards/TMC5072_eval.c **** }
 713              		.loc 1 45 2 view .LVU195
 179:boards/TMC5072_eval.c **** 		} else if(readWrite == WRITE) {
 714              		.loc 1 179 13 is_stmt 0 view .LVU196
 715 0244 7B48     		ldr	r0, .L174
 716              	.LVL67:
 179:boards/TMC5072_eval.c **** 		} else if(readWrite == WRITE) {
 717              		.loc 1 179 13 view .LVU197
 718 0246 FFF7FEFF 		bl	tmc5072_readInt
 719              	.LVL68:
 179:boards/TMC5072_eval.c **** 		} else if(readWrite == WRITE) {
 720              		.loc 1 179 11 view .LVU198
 721 024a 2860     		str	r0, [r5]
 722 024c 19E7     		b	.L18
 723              	.LVL69:
 724              	.L82:
 180:boards/TMC5072_eval.c **** 			tmc5072_writeInt(motorToIC(motor), TMC5072_AMAX(motor), *value);
 725              		.loc 1 180 10 is_stmt 1 view .LVU199
 181:boards/TMC5072_eval.c **** 		}
 726              		.loc 1 181 4 view .LVU200
 727              	.LBB327:
 728              	.LBI327:
  41:boards/TMC5072_eval.c **** {
 729              		.loc 1 41 31 view .LVU201
  41:boards/TMC5072_eval.c **** {
 730              		.loc 1 41 31 is_stmt 0 view .LVU202
 731              	.LBE327:
  43:boards/TMC5072_eval.c **** 
 732              		.loc 1 43 2 is_stmt 1 view .LVU203
  45:boards/TMC5072_eval.c **** }
 733              		.loc 1 45 2 view .LVU204
 181:boards/TMC5072_eval.c **** 		}
 734              		.loc 1 181 4 is_stmt 0 view .LVU205
 735 024e 2A68     		ldr	r2, [r5]
 736              	.LVL70:
 181:boards/TMC5072_eval.c **** 		}
 737              		.loc 1 181 4 view .LVU206
 738 0250 7848     		ldr	r0, .L174
 739              	.LVL71:
 181:boards/TMC5072_eval.c **** 		}
 740              		.loc 1 181 4 view .LVU207
 741 0252 FFF7FEFF 		bl	tmc5072_writeInt
 742              	.LVL72:
 124:boards/TMC5072_eval.c **** 	int tempValue;
 743              		.loc 1 124 11 view .LVU208
 744 0256 0024     		movs	r4, #0
 745 0258 13E7     		b	.L18
 746              	.LVL73:
 747              	.L67:
 186:boards/TMC5072_eval.c **** 			*value = TMC5072_FIELD_READ(motorToIC(motor), TMC5072_IHOLD_IRUN(motor), TMC5072_IRUN_MASK, TMC5
 748              		.loc 1 186 3 is_stmt 1 view .LVU209
 749 025a 2026     		movs	r6, #32
 750 025c 06FA01F1 		lsl	r1, r6, r1
 751              	.LVL74:
 186:boards/TMC5072_eval.c **** 			*value = TMC5072_FIELD_READ(motorToIC(motor), TMC5072_IHOLD_IRUN(motor), TMC5072_IRUN_MASK, TMC5
 752              		.loc 1 186 3 is_stmt 0 view .LVU210
 753 0260 41F01006 		orr	r6, r1, #16
 754 0264 F6B2     		uxtb	r6, r6
 187:boards/TMC5072_eval.c **** 		} else if(readWrite == WRITE) {
 755              		.loc 1 187 13 view .LVU211
 756 0266 7348     		ldr	r0, .L174
 757              	.LVL75:
 187:boards/TMC5072_eval.c **** 		} else if(readWrite == WRITE) {
 758              		.loc 1 187 13 view .LVU212
 759 0268 3146     		mov	r1, r6
 186:boards/TMC5072_eval.c **** 			*value = TMC5072_FIELD_READ(motorToIC(motor), TMC5072_IHOLD_IRUN(motor), TMC5072_IRUN_MASK, TMC5
 760              		.loc 1 186 5 view .LVU213
 761 026a 2CB9     		cbnz	r4, .L83
 187:boards/TMC5072_eval.c **** 		} else if(readWrite == WRITE) {
 762              		.loc 1 187 4 is_stmt 1 view .LVU214
 763              	.LBB328:
 764              	.LBI328:
  41:boards/TMC5072_eval.c **** {
 765              		.loc 1 41 31 view .LVU215
 766              	.LVL76:
  41:boards/TMC5072_eval.c **** {
 767              		.loc 1 41 31 is_stmt 0 view .LVU216
 768              	.LBE328:
  43:boards/TMC5072_eval.c **** 
 769              		.loc 1 43 2 is_stmt 1 view .LVU217
  45:boards/TMC5072_eval.c **** }
 770              		.loc 1 45 2 view .LVU218
 187:boards/TMC5072_eval.c **** 		} else if(readWrite == WRITE) {
 771              		.loc 1 187 13 is_stmt 0 view .LVU219
 772 026c FFF7FEFF 		bl	tmc5072_readInt
 773              	.LVL77:
 187:boards/TMC5072_eval.c **** 		} else if(readWrite == WRITE) {
 774              		.loc 1 187 13 view .LVU220
 775 0270 C0F30420 		ubfx	r0, r0, #8, #5
 187:boards/TMC5072_eval.c **** 		} else if(readWrite == WRITE) {
 776              		.loc 1 187 11 view .LVU221
 777 0274 2860     		str	r0, [r5]
 778 0276 04E7     		b	.L18
 779              	.LVL78:
 780              	.L83:
 188:boards/TMC5072_eval.c **** 			TMC5072_FIELD_WRITE(motorToIC(motor), TMC5072_IHOLD_IRUN(motor), TMC5072_IRUN_MASK, TMC5072_IRUN
 781              		.loc 1 188 10 is_stmt 1 view .LVU222
 189:boards/TMC5072_eval.c **** 		}
 782              		.loc 1 189 4 view .LVU223
 783              	.LBB329:
 784              	.LBI329:
  41:boards/TMC5072_eval.c **** {
 785              		.loc 1 41 31 view .LVU224
  41:boards/TMC5072_eval.c **** {
 786              		.loc 1 41 31 is_stmt 0 view .LVU225
 787              	.LBE329:
  43:boards/TMC5072_eval.c **** 
 788              		.loc 1 43 2 is_stmt 1 view .LVU226
  45:boards/TMC5072_eval.c **** }
 789              		.loc 1 45 2 view .LVU227
 790              	.LBB330:
 791              	.LBI330:
  41:boards/TMC5072_eval.c **** {
 792              		.loc 1 41 31 view .LVU228
  41:boards/TMC5072_eval.c **** {
 793              		.loc 1 41 31 is_stmt 0 view .LVU229
 794              	.LBE330:
  43:boards/TMC5072_eval.c **** 
 795              		.loc 1 43 2 is_stmt 1 view .LVU230
  45:boards/TMC5072_eval.c **** }
 796              		.loc 1 45 2 view .LVU231
 189:boards/TMC5072_eval.c **** 		}
 797              		.loc 1 189 4 is_stmt 0 view .LVU232
 798 0278 FFF7FEFF 		bl	tmc5072_readInt
 799              	.LVL79:
 189:boards/TMC5072_eval.c **** 		}
 800              		.loc 1 189 4 view .LVU233
 801 027c 2B68     		ldr	r3, [r5]
 802 027e 1B02     		lsls	r3, r3, #8
 803 0280 03F4F853 		and	r3, r3, #7936
 804 0284 20F4F852 		bic	r2, r0, #7936
 805 0288 1A43     		orrs	r2, r2, r3
 806 028a 6A48     		ldr	r0, .L174
 807 028c 3146     		mov	r1, r6
 808 028e FFF7FEFF 		bl	tmc5072_writeInt
 809              	.LVL80:
 124:boards/TMC5072_eval.c **** 	int tempValue;
 810              		.loc 1 124 11 view .LVU234
 811 0292 0024     		movs	r4, #0
 812 0294 F5E6     		b	.L18
 813              	.LVL81:
 814              	.L66:
 194:boards/TMC5072_eval.c **** 			*value = TMC5072_FIELD_READ(motorToIC(motor), TMC5072_IHOLD_IRUN(motor), TMC5072_IHOLD_MASK, TMC
 815              		.loc 1 194 3 is_stmt 1 view .LVU235
 816 0296 2026     		movs	r6, #32
 817 0298 06FA01F1 		lsl	r1, r6, r1
 818              	.LVL82:
 194:boards/TMC5072_eval.c **** 			*value = TMC5072_FIELD_READ(motorToIC(motor), TMC5072_IHOLD_IRUN(motor), TMC5072_IHOLD_MASK, TMC
 819              		.loc 1 194 3 is_stmt 0 view .LVU236
 820 029c 41F01006 		orr	r6, r1, #16
 821 02a0 F6B2     		uxtb	r6, r6
 195:boards/TMC5072_eval.c **** 		} else if(readWrite == WRITE) {
 822              		.loc 1 195 13 view .LVU237
 823 02a2 6448     		ldr	r0, .L174
 824              	.LVL83:
 195:boards/TMC5072_eval.c **** 		} else if(readWrite == WRITE) {
 825              		.loc 1 195 13 view .LVU238
 826 02a4 3146     		mov	r1, r6
 194:boards/TMC5072_eval.c **** 			*value = TMC5072_FIELD_READ(motorToIC(motor), TMC5072_IHOLD_IRUN(motor), TMC5072_IHOLD_MASK, TMC
 827              		.loc 1 194 5 view .LVU239
 828 02a6 2CB9     		cbnz	r4, .L84
 195:boards/TMC5072_eval.c **** 		} else if(readWrite == WRITE) {
 829              		.loc 1 195 4 is_stmt 1 view .LVU240
 830              	.LBB331:
 831              	.LBI331:
  41:boards/TMC5072_eval.c **** {
 832              		.loc 1 41 31 view .LVU241
 833              	.LVL84:
  41:boards/TMC5072_eval.c **** {
 834              		.loc 1 41 31 is_stmt 0 view .LVU242
 835              	.LBE331:
  43:boards/TMC5072_eval.c **** 
 836              		.loc 1 43 2 is_stmt 1 view .LVU243
  45:boards/TMC5072_eval.c **** }
 837              		.loc 1 45 2 view .LVU244
 195:boards/TMC5072_eval.c **** 		} else if(readWrite == WRITE) {
 838              		.loc 1 195 13 is_stmt 0 view .LVU245
 839 02a8 FFF7FEFF 		bl	tmc5072_readInt
 840              	.LVL85:
 195:boards/TMC5072_eval.c **** 		} else if(readWrite == WRITE) {
 841              		.loc 1 195 13 view .LVU246
 842 02ac 00F01F00 		and	r0, r0, #31
 195:boards/TMC5072_eval.c **** 		} else if(readWrite == WRITE) {
 843              		.loc 1 195 11 view .LVU247
 844 02b0 2860     		str	r0, [r5]
 845 02b2 E6E6     		b	.L18
 846              	.LVL86:
 847              	.L84:
 196:boards/TMC5072_eval.c **** 			TMC5072_FIELD_WRITE(motorToIC(motor), TMC5072_IHOLD_IRUN(motor), TMC5072_IHOLD_MASK, TMC5072_IHO
 848              		.loc 1 196 10 is_stmt 1 view .LVU248
 197:boards/TMC5072_eval.c **** 		}
 849              		.loc 1 197 4 view .LVU249
 850              	.LBB332:
 851              	.LBI332:
  41:boards/TMC5072_eval.c **** {
 852              		.loc 1 41 31 view .LVU250
  41:boards/TMC5072_eval.c **** {
 853              		.loc 1 41 31 is_stmt 0 view .LVU251
 854              	.LBE332:
  43:boards/TMC5072_eval.c **** 
 855              		.loc 1 43 2 is_stmt 1 view .LVU252
  45:boards/TMC5072_eval.c **** }
 856              		.loc 1 45 2 view .LVU253
 857              	.LBB333:
 858              	.LBI333:
  41:boards/TMC5072_eval.c **** {
 859              		.loc 1 41 31 view .LVU254
  41:boards/TMC5072_eval.c **** {
 860              		.loc 1 41 31 is_stmt 0 view .LVU255
 861              	.LBE333:
  43:boards/TMC5072_eval.c **** 
 862              		.loc 1 43 2 is_stmt 1 view .LVU256
  45:boards/TMC5072_eval.c **** }
 863              		.loc 1 45 2 view .LVU257
 197:boards/TMC5072_eval.c **** 		}
 864              		.loc 1 197 4 is_stmt 0 view .LVU258
 865 02b4 FFF7FEFF 		bl	tmc5072_readInt
 866              	.LVL87:
 197:boards/TMC5072_eval.c **** 		}
 867              		.loc 1 197 4 view .LVU259
 868 02b8 2A68     		ldr	r2, [r5]
 869 02ba 20F01F00 		bic	r0, r0, #31
 870 02be 02F01F02 		and	r2, r2, #31
 871 02c2 0243     		orrs	r2, r2, r0
 872 02c4 3146     		mov	r1, r6
 873 02c6 5B48     		ldr	r0, .L174
 874 02c8 FFF7FEFF 		bl	tmc5072_writeInt
 875              	.LVL88:
 124:boards/TMC5072_eval.c **** 	int tempValue;
 876              		.loc 1 124 11 view .LVU260
 877 02cc 0024     		movs	r4, #0
 878 02ce D8E6     		b	.L18
 879              	.LVL89:
 880              	.L65:
 202:boards/TMC5072_eval.c **** 			*value = TMC5072_FIELD_READ(motorToIC(motor), TMC5072_RAMPSTAT(motor), TMC5072_POSITION_REACHED_
 881              		.loc 1 202 3 is_stmt 1 view .LVU261
 202:boards/TMC5072_eval.c **** 			*value = TMC5072_FIELD_READ(motorToIC(motor), TMC5072_RAMPSTAT(motor), TMC5072_POSITION_REACHED_
 882              		.loc 1 202 5 is_stmt 0 view .LVU262
 883 02d0 0028     		cmp	r0, #0
 884 02d2 40F0E284 		bne	.L157
 203:boards/TMC5072_eval.c **** 		} else if(readWrite == WRITE) {
 885              		.loc 1 203 4 is_stmt 1 view .LVU263
 886              	.LBB334:
 887              	.LBI334:
  41:boards/TMC5072_eval.c **** {
 888              		.loc 1 41 31 view .LVU264
 889              	.LVL90:
  41:boards/TMC5072_eval.c **** {
 890              		.loc 1 41 31 is_stmt 0 view .LVU265
 891              	.LBE334:
  43:boards/TMC5072_eval.c **** 
 892              		.loc 1 43 2 is_stmt 1 view .LVU266
  45:boards/TMC5072_eval.c **** }
 893              		.loc 1 45 2 view .LVU267
 203:boards/TMC5072_eval.c **** 		} else if(readWrite == WRITE) {
 894              		.loc 1 203 13 is_stmt 0 view .LVU268
 895 02d6 2023     		movs	r3, #32
 896 02d8 03FA01F1 		lsl	r1, r3, r1
 897              	.LVL91:
 203:boards/TMC5072_eval.c **** 		} else if(readWrite == WRITE) {
 898              		.loc 1 203 13 view .LVU269
 899 02dc 41F01501 		orr	r1, r1, #21
 900 02e0 5448     		ldr	r0, .L174
 901              	.LVL92:
 203:boards/TMC5072_eval.c **** 		} else if(readWrite == WRITE) {
 902              		.loc 1 203 13 view .LVU270
 903 02e2 C9B2     		uxtb	r1, r1
 904 02e4 FFF7FEFF 		bl	tmc5072_readInt
 905              	.LVL93:
 203:boards/TMC5072_eval.c **** 		} else if(readWrite == WRITE) {
 906              		.loc 1 203 13 view .LVU271
 907 02e8 C0F34020 		ubfx	r0, r0, #9, #1
 203:boards/TMC5072_eval.c **** 		} else if(readWrite == WRITE) {
 908              		.loc 1 203 11 view .LVU272
 909 02ec 2860     		str	r0, [r5]
 910 02ee C8E6     		b	.L18
 911              	.LVL94:
 912              	.L64:
 210:boards/TMC5072_eval.c **** 			*value = TMC5072_FIELD_READ(motorToIC(motor), TMC5072_RAMPSTAT(motor), TMC5072_STATUS_STOP_R_MAS
 913              		.loc 1 210 3 is_stmt 1 view .LVU273
 210:boards/TMC5072_eval.c **** 			*value = TMC5072_FIELD_READ(motorToIC(motor), TMC5072_RAMPSTAT(motor), TMC5072_STATUS_STOP_R_MAS
 914              		.loc 1 210 5 is_stmt 0 view .LVU274
 915 02f0 0028     		cmp	r0, #0
 916 02f2 40F0D584 		bne	.L158
 211:boards/TMC5072_eval.c **** 		} else if(readWrite == WRITE) {
 917              		.loc 1 211 4 is_stmt 1 view .LVU275
 918              	.LBB335:
 919              	.LBI335:
  41:boards/TMC5072_eval.c **** {
 920              		.loc 1 41 31 view .LVU276
 921              	.LVL95:
  41:boards/TMC5072_eval.c **** {
 922              		.loc 1 41 31 is_stmt 0 view .LVU277
 923              	.LBE335:
  43:boards/TMC5072_eval.c **** 
 924              		.loc 1 43 2 is_stmt 1 view .LVU278
  45:boards/TMC5072_eval.c **** }
 925              		.loc 1 45 2 view .LVU279
 211:boards/TMC5072_eval.c **** 		} else if(readWrite == WRITE) {
 926              		.loc 1 211 13 is_stmt 0 view .LVU280
 927 02f6 2023     		movs	r3, #32
 928 02f8 03FA01F1 		lsl	r1, r3, r1
 929              	.LVL96:
 211:boards/TMC5072_eval.c **** 		} else if(readWrite == WRITE) {
 930              		.loc 1 211 13 view .LVU281
 931 02fc 41F01501 		orr	r1, r1, #21
 932 0300 4C48     		ldr	r0, .L174
 933              	.LVL97:
 211:boards/TMC5072_eval.c **** 		} else if(readWrite == WRITE) {
 934              		.loc 1 211 13 view .LVU282
 935 0302 C9B2     		uxtb	r1, r1
 936 0304 FFF7FEFF 		bl	tmc5072_readInt
 937              	.LVL98:
 211:boards/TMC5072_eval.c **** 		} else if(readWrite == WRITE) {
 938              		.loc 1 211 13 view .LVU283
 939 0308 C0F34000 		ubfx	r0, r0, #1, #1
 211:boards/TMC5072_eval.c **** 		} else if(readWrite == WRITE) {
 940              		.loc 1 211 11 view .LVU284
 941 030c 2860     		str	r0, [r5]
 942 030e B8E6     		b	.L18
 943              	.LVL99:
 944              	.L63:
 218:boards/TMC5072_eval.c **** 			*value = TMC5072_FIELD_READ(motorToIC(motor), TMC5072_RAMPSTAT(motor), TMC5072_STATUS_STOP_L_MAS
 945              		.loc 1 218 3 is_stmt 1 view .LVU285
 218:boards/TMC5072_eval.c **** 			*value = TMC5072_FIELD_READ(motorToIC(motor), TMC5072_RAMPSTAT(motor), TMC5072_STATUS_STOP_L_MAS
 946              		.loc 1 218 5 is_stmt 0 view .LVU286
 947 0310 0028     		cmp	r0, #0
 948 0312 40F0C884 		bne	.L159
 219:boards/TMC5072_eval.c **** 		} else if(readWrite == WRITE) {
 949              		.loc 1 219 4 is_stmt 1 view .LVU287
 950              	.LBB336:
 951              	.LBI336:
  41:boards/TMC5072_eval.c **** {
 952              		.loc 1 41 31 view .LVU288
 953              	.LVL100:
  41:boards/TMC5072_eval.c **** {
 954              		.loc 1 41 31 is_stmt 0 view .LVU289
 955              	.LBE336:
  43:boards/TMC5072_eval.c **** 
 956              		.loc 1 43 2 is_stmt 1 view .LVU290
  45:boards/TMC5072_eval.c **** }
 957              		.loc 1 45 2 view .LVU291
 219:boards/TMC5072_eval.c **** 		} else if(readWrite == WRITE) {
 958              		.loc 1 219 13 is_stmt 0 view .LVU292
 959 0316 2023     		movs	r3, #32
 960 0318 03FA01F1 		lsl	r1, r3, r1
 961              	.LVL101:
 219:boards/TMC5072_eval.c **** 		} else if(readWrite == WRITE) {
 962              		.loc 1 219 13 view .LVU293
 963 031c 41F01501 		orr	r1, r1, #21
 964 0320 4448     		ldr	r0, .L174
 965              	.LVL102:
 219:boards/TMC5072_eval.c **** 		} else if(readWrite == WRITE) {
 966              		.loc 1 219 13 view .LVU294
 967 0322 C9B2     		uxtb	r1, r1
 968 0324 FFF7FEFF 		bl	tmc5072_readInt
 969              	.LVL103:
 219:boards/TMC5072_eval.c **** 		} else if(readWrite == WRITE) {
 970              		.loc 1 219 13 view .LVU295
 971 0328 00F00100 		and	r0, r0, #1
 219:boards/TMC5072_eval.c **** 		} else if(readWrite == WRITE) {
 972              		.loc 1 219 11 view .LVU296
 973 032c 2860     		str	r0, [r5]
 974 032e A8E6     		b	.L18
 975              	.LVL104:
 976              	.L62:
 226:boards/TMC5072_eval.c **** 			*value = TMC5072_FIELD_READ(motorToIC(motor), TMC5072_SWMODE(motor), TMC5072_STOP_R_ENABLE_MASK,
 977              		.loc 1 226 3 is_stmt 1 view .LVU297
 978 0330 2026     		movs	r6, #32
 979 0332 06FA01F1 		lsl	r1, r6, r1
 980              	.LVL105:
 226:boards/TMC5072_eval.c **** 			*value = TMC5072_FIELD_READ(motorToIC(motor), TMC5072_SWMODE(motor), TMC5072_STOP_R_ENABLE_MASK,
 981              		.loc 1 226 3 is_stmt 0 view .LVU298
 982 0336 41F01406 		orr	r6, r1, #20
 983 033a F6B2     		uxtb	r6, r6
 227:boards/TMC5072_eval.c **** 		} else if(readWrite == WRITE) {
 984              		.loc 1 227 13 view .LVU299
 985 033c 3D48     		ldr	r0, .L174
 986              	.LVL106:
 227:boards/TMC5072_eval.c **** 		} else if(readWrite == WRITE) {
 987              		.loc 1 227 13 view .LVU300
 988 033e 3146     		mov	r1, r6
 226:boards/TMC5072_eval.c **** 			*value = TMC5072_FIELD_READ(motorToIC(motor), TMC5072_SWMODE(motor), TMC5072_STOP_R_ENABLE_MASK,
 989              		.loc 1 226 5 view .LVU301
 990 0340 2CB9     		cbnz	r4, .L85
 227:boards/TMC5072_eval.c **** 		} else if(readWrite == WRITE) {
 991              		.loc 1 227 4 is_stmt 1 view .LVU302
 992              	.LBB337:
 993              	.LBI337:
  41:boards/TMC5072_eval.c **** {
 994              		.loc 1 41 31 view .LVU303
 995              	.LVL107:
  41:boards/TMC5072_eval.c **** {
 996              		.loc 1 41 31 is_stmt 0 view .LVU304
 997              	.LBE337:
  43:boards/TMC5072_eval.c **** 
 998              		.loc 1 43 2 is_stmt 1 view .LVU305
  45:boards/TMC5072_eval.c **** }
 999              		.loc 1 45 2 view .LVU306
 227:boards/TMC5072_eval.c **** 		} else if(readWrite == WRITE) {
 1000              		.loc 1 227 13 is_stmt 0 view .LVU307
 1001 0342 FFF7FEFF 		bl	tmc5072_readInt
 1002              	.LVL108:
 227:boards/TMC5072_eval.c **** 		} else if(readWrite == WRITE) {
 1003              		.loc 1 227 13 view .LVU308
 1004 0346 C0F34000 		ubfx	r0, r0, #1, #1
 227:boards/TMC5072_eval.c **** 		} else if(readWrite == WRITE) {
 1005              		.loc 1 227 11 view .LVU309
 1006 034a 2860     		str	r0, [r5]
 1007 034c 99E6     		b	.L18
 1008              	.LVL109:
 1009              	.L85:
 228:boards/TMC5072_eval.c **** 			// configure right stop bits
 1010              		.loc 1 228 10 is_stmt 1 view .LVU310
 230:boards/TMC5072_eval.c **** 			TMC5072_FIELD_WRITE(motorToIC(motor), TMC5072_SWMODE(motor), TMC5072_POL_STOP_R_MASK, TMC5072_PO
 1011              		.loc 1 230 4 view .LVU311
 1012              	.LBB338:
 1013              	.LBI338:
  41:boards/TMC5072_eval.c **** {
 1014              		.loc 1 41 31 view .LVU312
  41:boards/TMC5072_eval.c **** {
 1015              		.loc 1 41 31 is_stmt 0 view .LVU313
 1016              	.LBE338:
  43:boards/TMC5072_eval.c **** 
 1017              		.loc 1 43 2 is_stmt 1 view .LVU314
  45:boards/TMC5072_eval.c **** }
 1018              		.loc 1 45 2 view .LVU315
 1019              	.LBB339:
 1020              	.LBI339:
  41:boards/TMC5072_eval.c **** {
 1021              		.loc 1 41 31 view .LVU316
  41:boards/TMC5072_eval.c **** {
 1022              		.loc 1 41 31 is_stmt 0 view .LVU317
 1023              	.LBE339:
  43:boards/TMC5072_eval.c **** 
 1024              		.loc 1 43 2 is_stmt 1 view .LVU318
  45:boards/TMC5072_eval.c **** }
 1025              		.loc 1 45 2 view .LVU319
 230:boards/TMC5072_eval.c **** 			TMC5072_FIELD_WRITE(motorToIC(motor), TMC5072_SWMODE(motor), TMC5072_POL_STOP_R_MASK, TMC5072_PO
 1026              		.loc 1 230 4 is_stmt 0 view .LVU320
 1027 034e FFF7FEFF 		bl	tmc5072_readInt
 1028              	.LVL110:
 230:boards/TMC5072_eval.c **** 			TMC5072_FIELD_WRITE(motorToIC(motor), TMC5072_SWMODE(motor), TMC5072_POL_STOP_R_MASK, TMC5072_PO
 1029              		.loc 1 230 4 view .LVU321
 1030 0352 2B68     		ldr	r3, [r5]
 1031 0354 002B     		cmp	r3, #0
 1032 0356 CCBF     		ite	gt
 1033 0358 0222     		movgt	r2, #2
 1034 035a 0022     		movle	r2, #0
 1035 035c 20F00200 		bic	r0, r0, #2
 1036 0360 0243     		orrs	r2, r2, r0
 1037 0362 3146     		mov	r1, r6
 1038 0364 3348     		ldr	r0, .L174
 1039 0366 FFF7FEFF 		bl	tmc5072_writeInt
 1040              	.LVL111:
 231:boards/TMC5072_eval.c **** 		}
 1041              		.loc 1 231 4 is_stmt 1 view .LVU322
 1042              	.LBB340:
 1043              	.LBI340:
  41:boards/TMC5072_eval.c **** {
 1044              		.loc 1 41 31 view .LVU323
  41:boards/TMC5072_eval.c **** {
 1045              		.loc 1 41 31 is_stmt 0 view .LVU324
 1046              	.LBE340:
  43:boards/TMC5072_eval.c **** 
 1047              		.loc 1 43 2 is_stmt 1 view .LVU325
  45:boards/TMC5072_eval.c **** }
 1048              		.loc 1 45 2 view .LVU326
 1049              	.LBB341:
 1050              	.LBI341:
  41:boards/TMC5072_eval.c **** {
 1051              		.loc 1 41 31 view .LVU327
  41:boards/TMC5072_eval.c **** {
 1052              		.loc 1 41 31 is_stmt 0 view .LVU328
 1053              	.LBE341:
  43:boards/TMC5072_eval.c **** 
 1054              		.loc 1 43 2 is_stmt 1 view .LVU329
  45:boards/TMC5072_eval.c **** }
 1055              		.loc 1 45 2 view .LVU330
 231:boards/TMC5072_eval.c **** 		}
 1056              		.loc 1 231 4 is_stmt 0 view .LVU331
 1057 036a 3146     		mov	r1, r6
 1058 036c 3148     		ldr	r0, .L174
 1059 036e FFF7FEFF 		bl	tmc5072_readInt
 1060              	.LVL112:
 1061 0372 2B68     		ldr	r3, [r5]
 1062 0374 022B     		cmp	r3, #2
 1063 0376 20F00800 		bic	r0, r0, #8
 1064 037a 0CBF     		ite	eq
 1065 037c 0822     		moveq	r2, #8
 1066 037e 0022     		movne	r2, #0
 1067 0380 0243     		orrs	r2, r2, r0
 1068 0382 3146     		mov	r1, r6
 1069 0384 2B48     		ldr	r0, .L174
 1070 0386 FFF7FEFF 		bl	tmc5072_writeInt
 1071              	.LVL113:
 124:boards/TMC5072_eval.c **** 	int tempValue;
 1072              		.loc 1 124 11 view .LVU332
 1073 038a 0024     		movs	r4, #0
 1074 038c 79E6     		b	.L18
 1075              	.LVL114:
 1076              	.L61:
 236:boards/TMC5072_eval.c **** 			*value = TMC5072_FIELD_READ(motorToIC(motor), TMC5072_SWMODE(motor), TMC5072_STOP_L_ENABLE_MASK,
 1077              		.loc 1 236 3 is_stmt 1 view .LVU333
 1078 038e 2026     		movs	r6, #32
 1079 0390 06FA01F1 		lsl	r1, r6, r1
 1080              	.LVL115:
 236:boards/TMC5072_eval.c **** 			*value = TMC5072_FIELD_READ(motorToIC(motor), TMC5072_SWMODE(motor), TMC5072_STOP_L_ENABLE_MASK,
 1081              		.loc 1 236 3 is_stmt 0 view .LVU334
 1082 0394 41F01406 		orr	r6, r1, #20
 1083 0398 F6B2     		uxtb	r6, r6
 237:boards/TMC5072_eval.c **** 		} else if(readWrite == WRITE) {
 1084              		.loc 1 237 13 view .LVU335
 1085 039a 2648     		ldr	r0, .L174
 1086              	.LVL116:
 237:boards/TMC5072_eval.c **** 		} else if(readWrite == WRITE) {
 1087              		.loc 1 237 13 view .LVU336
 1088 039c 3146     		mov	r1, r6
 236:boards/TMC5072_eval.c **** 			*value = TMC5072_FIELD_READ(motorToIC(motor), TMC5072_SWMODE(motor), TMC5072_STOP_L_ENABLE_MASK,
 1089              		.loc 1 236 5 view .LVU337
 1090 039e 2CB9     		cbnz	r4, .L88
 237:boards/TMC5072_eval.c **** 		} else if(readWrite == WRITE) {
 1091              		.loc 1 237 4 is_stmt 1 view .LVU338
 1092              	.LBB342:
 1093              	.LBI342:
  41:boards/TMC5072_eval.c **** {
 1094              		.loc 1 41 31 view .LVU339
 1095              	.LVL117:
  41:boards/TMC5072_eval.c **** {
 1096              		.loc 1 41 31 is_stmt 0 view .LVU340
 1097              	.LBE342:
  43:boards/TMC5072_eval.c **** 
 1098              		.loc 1 43 2 is_stmt 1 view .LVU341
  45:boards/TMC5072_eval.c **** }
 1099              		.loc 1 45 2 view .LVU342
 237:boards/TMC5072_eval.c **** 		} else if(readWrite == WRITE) {
 1100              		.loc 1 237 13 is_stmt 0 view .LVU343
 1101 03a0 FFF7FEFF 		bl	tmc5072_readInt
 1102              	.LVL118:
 237:boards/TMC5072_eval.c **** 		} else if(readWrite == WRITE) {
 1103              		.loc 1 237 13 view .LVU344
 1104 03a4 00F00100 		and	r0, r0, #1
 237:boards/TMC5072_eval.c **** 		} else if(readWrite == WRITE) {
 1105              		.loc 1 237 11 view .LVU345
 1106 03a8 2860     		str	r0, [r5]
 1107 03aa 6AE6     		b	.L18
 1108              	.LVL119:
 1109              	.L88:
 238:boards/TMC5072_eval.c **** 			// configure left stop bits
 1110              		.loc 1 238 10 is_stmt 1 view .LVU346
 240:boards/TMC5072_eval.c **** 			TMC5072_FIELD_WRITE(motorToIC(motor), TMC5072_SWMODE(motor), TMC5072_POL_STOP_L_MASK, TMC5072_PO
 1111              		.loc 1 240 4 view .LVU347
 1112              	.LBB343:
 1113              	.LBI343:
  41:boards/TMC5072_eval.c **** {
 1114              		.loc 1 41 31 view .LVU348
  41:boards/TMC5072_eval.c **** {
 1115              		.loc 1 41 31 is_stmt 0 view .LVU349
 1116              	.LBE343:
  43:boards/TMC5072_eval.c **** 
 1117              		.loc 1 43 2 is_stmt 1 view .LVU350
  45:boards/TMC5072_eval.c **** }
 1118              		.loc 1 45 2 view .LVU351
 1119              	.LBB344:
 1120              	.LBI344:
  41:boards/TMC5072_eval.c **** {
 1121              		.loc 1 41 31 view .LVU352
  41:boards/TMC5072_eval.c **** {
 1122              		.loc 1 41 31 is_stmt 0 view .LVU353
 1123              	.LBE344:
  43:boards/TMC5072_eval.c **** 
 1124              		.loc 1 43 2 is_stmt 1 view .LVU354
  45:boards/TMC5072_eval.c **** }
 1125              		.loc 1 45 2 view .LVU355
 240:boards/TMC5072_eval.c **** 			TMC5072_FIELD_WRITE(motorToIC(motor), TMC5072_SWMODE(motor), TMC5072_POL_STOP_L_MASK, TMC5072_PO
 1126              		.loc 1 240 4 is_stmt 0 view .LVU356
 1127 03ac FFF7FEFF 		bl	tmc5072_readInt
 1128              	.LVL120:
 240:boards/TMC5072_eval.c **** 			TMC5072_FIELD_WRITE(motorToIC(motor), TMC5072_SWMODE(motor), TMC5072_POL_STOP_L_MASK, TMC5072_PO
 1129              		.loc 1 240 4 view .LVU357
 1130 03b0 2A68     		ldr	r2, [r5]
 1131 03b2 20F00100 		bic	r0, r0, #1
 1132 03b6 002A     		cmp	r2, #0
 1133 03b8 D4BF     		ite	le
 1134 03ba 0246     		movle	r2, r0
 1135 03bc 40F00102 		orrgt	r2, r0, #1
 1136 03c0 3146     		mov	r1, r6
 1137 03c2 1C48     		ldr	r0, .L174
 1138 03c4 FFF7FEFF 		bl	tmc5072_writeInt
 1139              	.LVL121:
 241:boards/TMC5072_eval.c **** 		}
 1140              		.loc 1 241 4 is_stmt 1 view .LVU358
 1141              	.LBB345:
 1142              	.LBI345:
  41:boards/TMC5072_eval.c **** {
 1143              		.loc 1 41 31 view .LVU359
  41:boards/TMC5072_eval.c **** {
 1144              		.loc 1 41 31 is_stmt 0 view .LVU360
 1145              	.LBE345:
  43:boards/TMC5072_eval.c **** 
 1146              		.loc 1 43 2 is_stmt 1 view .LVU361
  45:boards/TMC5072_eval.c **** }
 1147              		.loc 1 45 2 view .LVU362
 1148              	.LBB346:
 1149              	.LBI346:
  41:boards/TMC5072_eval.c **** {
 1150              		.loc 1 41 31 view .LVU363
  41:boards/TMC5072_eval.c **** {
 1151              		.loc 1 41 31 is_stmt 0 view .LVU364
 1152              	.LBE346:
  43:boards/TMC5072_eval.c **** 
 1153              		.loc 1 43 2 is_stmt 1 view .LVU365
  45:boards/TMC5072_eval.c **** }
 1154              		.loc 1 45 2 view .LVU366
 241:boards/TMC5072_eval.c **** 		}
 1155              		.loc 1 241 4 is_stmt 0 view .LVU367
 1156 03c8 3146     		mov	r1, r6
 1157 03ca 1A48     		ldr	r0, .L174
 1158 03cc FFF7FEFF 		bl	tmc5072_readInt
 1159              	.LVL122:
 1160 03d0 2B68     		ldr	r3, [r5]
 1161 03d2 022B     		cmp	r3, #2
 1162 03d4 20F00400 		bic	r0, r0, #4
 1163 03d8 0CBF     		ite	eq
 1164 03da 0422     		moveq	r2, #4
 1165 03dc 0022     		movne	r2, #0
 1166 03de 0243     		orrs	r2, r2, r0
 1167 03e0 3146     		mov	r1, r6
 1168 03e2 1448     		ldr	r0, .L174
 1169 03e4 FFF7FEFF 		bl	tmc5072_writeInt
 1170              	.LVL123:
 124:boards/TMC5072_eval.c **** 	int tempValue;
 1171              		.loc 1 124 11 view .LVU368
 1172 03e8 0024     		movs	r4, #0
 1173 03ea 4AE6     		b	.L18
 1174              	.LVL124:
 1175              	.L60:
 246:boards/TMC5072_eval.c **** 			*value = tmc5072_readInt(motorToIC(motor), TMC5072_SWMODE(motor));
 1176              		.loc 1 246 3 is_stmt 1 view .LVU369
 1177 03ec 2023     		movs	r3, #32
 1178 03ee 03FA01F1 		lsl	r1, r3, r1
 1179              	.LVL125:
 246:boards/TMC5072_eval.c **** 			*value = tmc5072_readInt(motorToIC(motor), TMC5072_SWMODE(motor));
 1180              		.loc 1 246 3 is_stmt 0 view .LVU370
 1181 03f2 41F01401 		orr	r1, r1, #20
 1182 03f6 C9B2     		uxtb	r1, r1
 246:boards/TMC5072_eval.c **** 			*value = tmc5072_readInt(motorToIC(motor), TMC5072_SWMODE(motor));
 1183              		.loc 1 246 5 view .LVU371
 1184 03f8 20B9     		cbnz	r0, .L90
 247:boards/TMC5072_eval.c **** 		} else if(readWrite == WRITE) {
 1185              		.loc 1 247 4 is_stmt 1 view .LVU372
 1186              	.LBB347:
 1187              	.LBI347:
  41:boards/TMC5072_eval.c **** {
 1188              		.loc 1 41 31 view .LVU373
 1189              	.LVL126:
  41:boards/TMC5072_eval.c **** {
 1190              		.loc 1 41 31 is_stmt 0 view .LVU374
 1191              	.LBE347:
  43:boards/TMC5072_eval.c **** 
 1192              		.loc 1 43 2 is_stmt 1 view .LVU375
  45:boards/TMC5072_eval.c **** }
 1193              		.loc 1 45 2 view .LVU376
 247:boards/TMC5072_eval.c **** 		} else if(readWrite == WRITE) {
 1194              		.loc 1 247 13 is_stmt 0 view .LVU377
 1195 03fa 0E48     		ldr	r0, .L174
 1196              	.LVL127:
 247:boards/TMC5072_eval.c **** 		} else if(readWrite == WRITE) {
 1197              		.loc 1 247 13 view .LVU378
 1198 03fc FFF7FEFF 		bl	tmc5072_readInt
 1199              	.LVL128:
 247:boards/TMC5072_eval.c **** 		} else if(readWrite == WRITE) {
 1200              		.loc 1 247 11 view .LVU379
 1201 0400 2860     		str	r0, [r5]
 1202 0402 3EE6     		b	.L18
 1203              	.LVL129:
 1204              	.L90:
 248:boards/TMC5072_eval.c **** 			tmc5072_writeInt(motorToIC(motor), TMC5072_SWMODE(motor), *value);
 1205              		.loc 1 248 10 is_stmt 1 view .LVU380
 249:boards/TMC5072_eval.c **** 		}
 1206              		.loc 1 249 4 view .LVU381
 1207              	.LBB348:
 1208              	.LBI348:
  41:boards/TMC5072_eval.c **** {
 1209              		.loc 1 41 31 view .LVU382
  41:boards/TMC5072_eval.c **** {
 1210              		.loc 1 41 31 is_stmt 0 view .LVU383
 1211              	.LBE348:
  43:boards/TMC5072_eval.c **** 
 1212              		.loc 1 43 2 is_stmt 1 view .LVU384
  45:boards/TMC5072_eval.c **** }
 1213              		.loc 1 45 2 view .LVU385
 249:boards/TMC5072_eval.c **** 		}
 1214              		.loc 1 249 4 is_stmt 0 view .LVU386
 1215 0404 2A68     		ldr	r2, [r5]
 1216              	.LVL130:
 249:boards/TMC5072_eval.c **** 		}
 1217              		.loc 1 249 4 view .LVU387
 1218 0406 0B48     		ldr	r0, .L174
 1219              	.LVL131:
 249:boards/TMC5072_eval.c **** 		}
 1220              		.loc 1 249 4 view .LVU388
 1221 0408 FFF7FEFF 		bl	tmc5072_writeInt
 1222              	.LVL132:
 124:boards/TMC5072_eval.c **** 	int tempValue;
 1223              		.loc 1 124 11 view .LVU389
 1224 040c 0024     		movs	r4, #0
 1225 040e 38E6     		b	.L18
 1226              	.LVL133:
 1227              	.L59:
 254:boards/TMC5072_eval.c **** 			*value = tmc5072_readInt(motorToIC(motor), TMC5072_A1(motor));
 1228              		.loc 1 254 3 is_stmt 1 view .LVU390
 1229 0410 2023     		movs	r3, #32
 1230 0412 03FA01F1 		lsl	r1, r3, r1
 1231              	.LVL134:
 254:boards/TMC5072_eval.c **** 			*value = tmc5072_readInt(motorToIC(motor), TMC5072_A1(motor));
 1232              		.loc 1 254 3 is_stmt 0 view .LVU391
 1233 0416 41F00401 		orr	r1, r1, #4
 1234 041a C9B2     		uxtb	r1, r1
 254:boards/TMC5072_eval.c **** 			*value = tmc5072_readInt(motorToIC(motor), TMC5072_A1(motor));
 1235              		.loc 1 254 5 view .LVU392
 1236 041c 20B9     		cbnz	r0, .L91
 255:boards/TMC5072_eval.c **** 		} else if(readWrite == WRITE) {
 1237              		.loc 1 255 4 is_stmt 1 view .LVU393
 1238              	.LBB349:
 1239              	.LBI349:
  41:boards/TMC5072_eval.c **** {
 1240              		.loc 1 41 31 view .LVU394
 1241              	.LVL135:
  41:boards/TMC5072_eval.c **** {
 1242              		.loc 1 41 31 is_stmt 0 view .LVU395
 1243              	.LBE349:
  43:boards/TMC5072_eval.c **** 
 1244              		.loc 1 43 2 is_stmt 1 view .LVU396
  45:boards/TMC5072_eval.c **** }
 1245              		.loc 1 45 2 view .LVU397
 255:boards/TMC5072_eval.c **** 		} else if(readWrite == WRITE) {
 1246              		.loc 1 255 13 is_stmt 0 view .LVU398
 1247 041e 0548     		ldr	r0, .L174
 1248              	.LVL136:
 255:boards/TMC5072_eval.c **** 		} else if(readWrite == WRITE) {
 1249              		.loc 1 255 13 view .LVU399
 1250 0420 FFF7FEFF 		bl	tmc5072_readInt
 1251              	.LVL137:
 255:boards/TMC5072_eval.c **** 		} else if(readWrite == WRITE) {
 1252              		.loc 1 255 11 view .LVU400
 1253 0424 2860     		str	r0, [r5]
 1254 0426 2CE6     		b	.L18
 1255              	.LVL138:
 1256              	.L91:
 256:boards/TMC5072_eval.c **** 			tmc5072_writeInt(motorToIC(motor), TMC5072_A1(motor), *value);
 1257              		.loc 1 256 10 is_stmt 1 view .LVU401
 257:boards/TMC5072_eval.c **** 		}
 1258              		.loc 1 257 4 view .LVU402
 1259              	.LBB350:
 1260              	.LBI350:
  41:boards/TMC5072_eval.c **** {
 1261              		.loc 1 41 31 view .LVU403
  41:boards/TMC5072_eval.c **** {
 1262              		.loc 1 41 31 is_stmt 0 view .LVU404
 1263              	.LBE350:
  43:boards/TMC5072_eval.c **** 
 1264              		.loc 1 43 2 is_stmt 1 view .LVU405
  45:boards/TMC5072_eval.c **** }
 1265              		.loc 1 45 2 view .LVU406
 257:boards/TMC5072_eval.c **** 		}
 1266              		.loc 1 257 4 is_stmt 0 view .LVU407
 1267 0428 2A68     		ldr	r2, [r5]
 1268              	.LVL139:
 257:boards/TMC5072_eval.c **** 		}
 1269              		.loc 1 257 4 view .LVU408
 1270 042a 0248     		ldr	r0, .L174
 1271              	.LVL140:
 257:boards/TMC5072_eval.c **** 		}
 1272              		.loc 1 257 4 view .LVU409
 1273 042c FFF7FEFF 		bl	tmc5072_writeInt
 1274              	.LVL141:
 124:boards/TMC5072_eval.c **** 	int tempValue;
 1275              		.loc 1 124 11 view .LVU410
 1276 0430 0024     		movs	r4, #0
 1277 0432 26E6     		b	.L18
 1278              	.L175:
 1279              		.align	2
 1280              	.L174:
 1281 0434 00000000 		.word	.LANCHOR0
 1282              	.LVL142:
 1283              	.L58:
 262:boards/TMC5072_eval.c **** 			*value = tmc5072_readInt(motorToIC(motor), TMC5072_V1(motor));
 1284              		.loc 1 262 3 is_stmt 1 view .LVU411
 1285 0438 2023     		movs	r3, #32
 1286 043a 03FA01F1 		lsl	r1, r3, r1
 1287              	.LVL143:
 262:boards/TMC5072_eval.c **** 			*value = tmc5072_readInt(motorToIC(motor), TMC5072_V1(motor));
 1288              		.loc 1 262 3 is_stmt 0 view .LVU412
 1289 043e 41F00501 		orr	r1, r1, #5
 1290 0442 C9B2     		uxtb	r1, r1
 262:boards/TMC5072_eval.c **** 			*value = tmc5072_readInt(motorToIC(motor), TMC5072_V1(motor));
 1291              		.loc 1 262 5 view .LVU413
 1292 0444 20B9     		cbnz	r0, .L92
 263:boards/TMC5072_eval.c **** 		} else if(readWrite == WRITE) {
 1293              		.loc 1 263 4 is_stmt 1 view .LVU414
 1294              	.LBB351:
 1295              	.LBI351:
  41:boards/TMC5072_eval.c **** {
 1296              		.loc 1 41 31 view .LVU415
 1297              	.LVL144:
  41:boards/TMC5072_eval.c **** {
 1298              		.loc 1 41 31 is_stmt 0 view .LVU416
 1299              	.LBE351:
  43:boards/TMC5072_eval.c **** 
 1300              		.loc 1 43 2 is_stmt 1 view .LVU417
  45:boards/TMC5072_eval.c **** }
 1301              		.loc 1 45 2 view .LVU418
 263:boards/TMC5072_eval.c **** 		} else if(readWrite == WRITE) {
 1302              		.loc 1 263 13 is_stmt 0 view .LVU419
 1303 0446 A648     		ldr	r0, .L176
 1304              	.LVL145:
 263:boards/TMC5072_eval.c **** 		} else if(readWrite == WRITE) {
 1305              		.loc 1 263 13 view .LVU420
 1306 0448 FFF7FEFF 		bl	tmc5072_readInt
 1307              	.LVL146:
 263:boards/TMC5072_eval.c **** 		} else if(readWrite == WRITE) {
 1308              		.loc 1 263 11 view .LVU421
 1309 044c 2860     		str	r0, [r5]
 1310 044e 18E6     		b	.L18
 1311              	.LVL147:
 1312              	.L92:
 264:boards/TMC5072_eval.c **** 			tmc5072_writeInt(motorToIC(motor), TMC5072_V1(motor), *value);
 1313              		.loc 1 264 10 is_stmt 1 view .LVU422
 265:boards/TMC5072_eval.c **** 		}
 1314              		.loc 1 265 4 view .LVU423
 1315              	.LBB352:
 1316              	.LBI352:
  41:boards/TMC5072_eval.c **** {
 1317              		.loc 1 41 31 view .LVU424
  41:boards/TMC5072_eval.c **** {
 1318              		.loc 1 41 31 is_stmt 0 view .LVU425
 1319              	.LBE352:
  43:boards/TMC5072_eval.c **** 
 1320              		.loc 1 43 2 is_stmt 1 view .LVU426
  45:boards/TMC5072_eval.c **** }
 1321              		.loc 1 45 2 view .LVU427
 265:boards/TMC5072_eval.c **** 		}
 1322              		.loc 1 265 4 is_stmt 0 view .LVU428
 1323 0450 2A68     		ldr	r2, [r5]
 1324              	.LVL148:
 265:boards/TMC5072_eval.c **** 		}
 1325              		.loc 1 265 4 view .LVU429
 1326 0452 A348     		ldr	r0, .L176
 1327              	.LVL149:
 265:boards/TMC5072_eval.c **** 		}
 1328              		.loc 1 265 4 view .LVU430
 1329 0454 FFF7FEFF 		bl	tmc5072_writeInt
 1330              	.LVL150:
 124:boards/TMC5072_eval.c **** 	int tempValue;
 1331              		.loc 1 124 11 view .LVU431
 1332 0458 0024     		movs	r4, #0
 1333 045a 12E6     		b	.L18
 1334              	.LVL151:
 1335              	.L57:
 270:boards/TMC5072_eval.c **** 			*value = tmc5072_readInt(motorToIC(motor), TMC5072_DMAX(motor));
 1336              		.loc 1 270 3 is_stmt 1 view .LVU432
 1337 045c 2023     		movs	r3, #32
 1338 045e 03FA01F1 		lsl	r1, r3, r1
 1339              	.LVL152:
 270:boards/TMC5072_eval.c **** 			*value = tmc5072_readInt(motorToIC(motor), TMC5072_DMAX(motor));
 1340              		.loc 1 270 3 is_stmt 0 view .LVU433
 1341 0462 41F00801 		orr	r1, r1, #8
 1342 0466 C9B2     		uxtb	r1, r1
 270:boards/TMC5072_eval.c **** 			*value = tmc5072_readInt(motorToIC(motor), TMC5072_DMAX(motor));
 1343              		.loc 1 270 5 view .LVU434
 1344 0468 20B9     		cbnz	r0, .L93
 271:boards/TMC5072_eval.c **** 		} else if(readWrite == WRITE) {
 1345              		.loc 1 271 4 is_stmt 1 view .LVU435
 1346              	.LBB353:
 1347              	.LBI353:
  41:boards/TMC5072_eval.c **** {
 1348              		.loc 1 41 31 view .LVU436
 1349              	.LVL153:
  41:boards/TMC5072_eval.c **** {
 1350              		.loc 1 41 31 is_stmt 0 view .LVU437
 1351              	.LBE353:
  43:boards/TMC5072_eval.c **** 
 1352              		.loc 1 43 2 is_stmt 1 view .LVU438
  45:boards/TMC5072_eval.c **** }
 1353              		.loc 1 45 2 view .LVU439
 271:boards/TMC5072_eval.c **** 		} else if(readWrite == WRITE) {
 1354              		.loc 1 271 13 is_stmt 0 view .LVU440
 1355 046a 9D48     		ldr	r0, .L176
 1356              	.LVL154:
 271:boards/TMC5072_eval.c **** 		} else if(readWrite == WRITE) {
 1357              		.loc 1 271 13 view .LVU441
 1358 046c FFF7FEFF 		bl	tmc5072_readInt
 1359              	.LVL155:
 271:boards/TMC5072_eval.c **** 		} else if(readWrite == WRITE) {
 1360              		.loc 1 271 11 view .LVU442
 1361 0470 2860     		str	r0, [r5]
 1362 0472 06E6     		b	.L18
 1363              	.LVL156:
 1364              	.L93:
 272:boards/TMC5072_eval.c **** 			tmc5072_writeInt(motorToIC(motor), TMC5072_DMAX(motor), *value);
 1365              		.loc 1 272 10 is_stmt 1 view .LVU443
 273:boards/TMC5072_eval.c **** 		}
 1366              		.loc 1 273 4 view .LVU444
 1367              	.LBB354:
 1368              	.LBI354:
  41:boards/TMC5072_eval.c **** {
 1369              		.loc 1 41 31 view .LVU445
  41:boards/TMC5072_eval.c **** {
 1370              		.loc 1 41 31 is_stmt 0 view .LVU446
 1371              	.LBE354:
  43:boards/TMC5072_eval.c **** 
 1372              		.loc 1 43 2 is_stmt 1 view .LVU447
  45:boards/TMC5072_eval.c **** }
 1373              		.loc 1 45 2 view .LVU448
 273:boards/TMC5072_eval.c **** 		}
 1374              		.loc 1 273 4 is_stmt 0 view .LVU449
 1375 0474 2A68     		ldr	r2, [r5]
 1376              	.LVL157:
 273:boards/TMC5072_eval.c **** 		}
 1377              		.loc 1 273 4 view .LVU450
 1378 0476 9A48     		ldr	r0, .L176
 1379              	.LVL158:
 273:boards/TMC5072_eval.c **** 		}
 1380              		.loc 1 273 4 view .LVU451
 1381 0478 FFF7FEFF 		bl	tmc5072_writeInt
 1382              	.LVL159:
 124:boards/TMC5072_eval.c **** 	int tempValue;
 1383              		.loc 1 124 11 view .LVU452
 1384 047c 0024     		movs	r4, #0
 1385 047e 00E6     		b	.L18
 1386              	.LVL160:
 1387              	.L56:
 278:boards/TMC5072_eval.c **** 			*value = tmc5072_readInt(motorToIC(motor), TMC5072_D1(motor));
 1388              		.loc 1 278 3 is_stmt 1 view .LVU453
 1389 0480 2023     		movs	r3, #32
 1390 0482 03FA01F1 		lsl	r1, r3, r1
 1391              	.LVL161:
 278:boards/TMC5072_eval.c **** 			*value = tmc5072_readInt(motorToIC(motor), TMC5072_D1(motor));
 1392              		.loc 1 278 3 is_stmt 0 view .LVU454
 1393 0486 41F00A01 		orr	r1, r1, #10
 1394 048a C9B2     		uxtb	r1, r1
 278:boards/TMC5072_eval.c **** 			*value = tmc5072_readInt(motorToIC(motor), TMC5072_D1(motor));
 1395              		.loc 1 278 5 view .LVU455
 1396 048c 20B9     		cbnz	r0, .L94
 279:boards/TMC5072_eval.c **** 		} else if(readWrite == WRITE) {
 1397              		.loc 1 279 4 is_stmt 1 view .LVU456
 1398              	.LBB355:
 1399              	.LBI355:
  41:boards/TMC5072_eval.c **** {
 1400              		.loc 1 41 31 view .LVU457
 1401              	.LVL162:
  41:boards/TMC5072_eval.c **** {
 1402              		.loc 1 41 31 is_stmt 0 view .LVU458
 1403              	.LBE355:
  43:boards/TMC5072_eval.c **** 
 1404              		.loc 1 43 2 is_stmt 1 view .LVU459
  45:boards/TMC5072_eval.c **** }
 1405              		.loc 1 45 2 view .LVU460
 279:boards/TMC5072_eval.c **** 		} else if(readWrite == WRITE) {
 1406              		.loc 1 279 13 is_stmt 0 view .LVU461
 1407 048e 9448     		ldr	r0, .L176
 1408              	.LVL163:
 279:boards/TMC5072_eval.c **** 		} else if(readWrite == WRITE) {
 1409              		.loc 1 279 13 view .LVU462
 1410 0490 FFF7FEFF 		bl	tmc5072_readInt
 1411              	.LVL164:
 279:boards/TMC5072_eval.c **** 		} else if(readWrite == WRITE) {
 1412              		.loc 1 279 11 view .LVU463
 1413 0494 2860     		str	r0, [r5]
 1414 0496 F4E5     		b	.L18
 1415              	.LVL165:
 1416              	.L94:
 280:boards/TMC5072_eval.c **** 			tmc5072_writeInt(motorToIC(motor), TMC5072_D1(motor), *value);
 1417              		.loc 1 280 10 is_stmt 1 view .LVU464
 281:boards/TMC5072_eval.c **** 		}
 1418              		.loc 1 281 4 view .LVU465
 1419              	.LBB356:
 1420              	.LBI356:
  41:boards/TMC5072_eval.c **** {
 1421              		.loc 1 41 31 view .LVU466
  41:boards/TMC5072_eval.c **** {
 1422              		.loc 1 41 31 is_stmt 0 view .LVU467
 1423              	.LBE356:
  43:boards/TMC5072_eval.c **** 
 1424              		.loc 1 43 2 is_stmt 1 view .LVU468
  45:boards/TMC5072_eval.c **** }
 1425              		.loc 1 45 2 view .LVU469
 281:boards/TMC5072_eval.c **** 		}
 1426              		.loc 1 281 4 is_stmt 0 view .LVU470
 1427 0498 2A68     		ldr	r2, [r5]
 1428              	.LVL166:
 281:boards/TMC5072_eval.c **** 		}
 1429              		.loc 1 281 4 view .LVU471
 1430 049a 9148     		ldr	r0, .L176
 1431              	.LVL167:
 281:boards/TMC5072_eval.c **** 		}
 1432              		.loc 1 281 4 view .LVU472
 1433 049c FFF7FEFF 		bl	tmc5072_writeInt
 1434              	.LVL168:
 124:boards/TMC5072_eval.c **** 	int tempValue;
 1435              		.loc 1 124 11 view .LVU473
 1436 04a0 0024     		movs	r4, #0
 1437 04a2 EEE5     		b	.L18
 1438              	.LVL169:
 1439              	.L55:
 286:boards/TMC5072_eval.c **** 			*value = tmc5072_readInt(motorToIC(motor), TMC5072_VSTART(motor));
 1440              		.loc 1 286 3 is_stmt 1 view .LVU474
 1441 04a4 2023     		movs	r3, #32
 1442 04a6 03FA01F1 		lsl	r1, r3, r1
 1443              	.LVL170:
 286:boards/TMC5072_eval.c **** 			*value = tmc5072_readInt(motorToIC(motor), TMC5072_VSTART(motor));
 1444              		.loc 1 286 3 is_stmt 0 view .LVU475
 1445 04aa 41F00301 		orr	r1, r1, #3
 1446 04ae C9B2     		uxtb	r1, r1
 286:boards/TMC5072_eval.c **** 			*value = tmc5072_readInt(motorToIC(motor), TMC5072_VSTART(motor));
 1447              		.loc 1 286 5 view .LVU476
 1448 04b0 20B9     		cbnz	r0, .L95
 287:boards/TMC5072_eval.c **** 		} else if(readWrite == WRITE) {
 1449              		.loc 1 287 4 is_stmt 1 view .LVU477
 1450              	.LBB357:
 1451              	.LBI357:
  41:boards/TMC5072_eval.c **** {
 1452              		.loc 1 41 31 view .LVU478
 1453              	.LVL171:
  41:boards/TMC5072_eval.c **** {
 1454              		.loc 1 41 31 is_stmt 0 view .LVU479
 1455              	.LBE357:
  43:boards/TMC5072_eval.c **** 
 1456              		.loc 1 43 2 is_stmt 1 view .LVU480
  45:boards/TMC5072_eval.c **** }
 1457              		.loc 1 45 2 view .LVU481
 287:boards/TMC5072_eval.c **** 		} else if(readWrite == WRITE) {
 1458              		.loc 1 287 13 is_stmt 0 view .LVU482
 1459 04b2 8B48     		ldr	r0, .L176
 1460              	.LVL172:
 287:boards/TMC5072_eval.c **** 		} else if(readWrite == WRITE) {
 1461              		.loc 1 287 13 view .LVU483
 1462 04b4 FFF7FEFF 		bl	tmc5072_readInt
 1463              	.LVL173:
 287:boards/TMC5072_eval.c **** 		} else if(readWrite == WRITE) {
 1464              		.loc 1 287 11 view .LVU484
 1465 04b8 2860     		str	r0, [r5]
 1466 04ba E2E5     		b	.L18
 1467              	.LVL174:
 1468              	.L95:
 288:boards/TMC5072_eval.c **** 			tmc5072_writeInt(motorToIC(motor), TMC5072_VSTART(motor), *value);
 1469              		.loc 1 288 10 is_stmt 1 view .LVU485
 289:boards/TMC5072_eval.c **** 		}
 1470              		.loc 1 289 4 view .LVU486
 1471              	.LBB358:
 1472              	.LBI358:
  41:boards/TMC5072_eval.c **** {
 1473              		.loc 1 41 31 view .LVU487
  41:boards/TMC5072_eval.c **** {
 1474              		.loc 1 41 31 is_stmt 0 view .LVU488
 1475              	.LBE358:
  43:boards/TMC5072_eval.c **** 
 1476              		.loc 1 43 2 is_stmt 1 view .LVU489
  45:boards/TMC5072_eval.c **** }
 1477              		.loc 1 45 2 view .LVU490
 289:boards/TMC5072_eval.c **** 		}
 1478              		.loc 1 289 4 is_stmt 0 view .LVU491
 1479 04bc 2A68     		ldr	r2, [r5]
 1480              	.LVL175:
 289:boards/TMC5072_eval.c **** 		}
 1481              		.loc 1 289 4 view .LVU492
 1482 04be 8848     		ldr	r0, .L176
 1483              	.LVL176:
 289:boards/TMC5072_eval.c **** 		}
 1484              		.loc 1 289 4 view .LVU493
 1485 04c0 FFF7FEFF 		bl	tmc5072_writeInt
 1486              	.LVL177:
 124:boards/TMC5072_eval.c **** 	int tempValue;
 1487              		.loc 1 124 11 view .LVU494
 1488 04c4 0024     		movs	r4, #0
 1489 04c6 DCE5     		b	.L18
 1490              	.LVL178:
 1491              	.L54:
 294:boards/TMC5072_eval.c **** 			*value = tmc5072_readInt(motorToIC(motor), TMC5072_VSTOP(motor));
 1492              		.loc 1 294 3 is_stmt 1 view .LVU495
 1493 04c8 2023     		movs	r3, #32
 1494 04ca 03FA01F1 		lsl	r1, r3, r1
 1495              	.LVL179:
 294:boards/TMC5072_eval.c **** 			*value = tmc5072_readInt(motorToIC(motor), TMC5072_VSTOP(motor));
 1496              		.loc 1 294 3 is_stmt 0 view .LVU496
 1497 04ce 41F00B01 		orr	r1, r1, #11
 1498 04d2 C9B2     		uxtb	r1, r1
 294:boards/TMC5072_eval.c **** 			*value = tmc5072_readInt(motorToIC(motor), TMC5072_VSTOP(motor));
 1499              		.loc 1 294 5 view .LVU497
 1500 04d4 20B9     		cbnz	r0, .L96
 295:boards/TMC5072_eval.c **** 		} else if(readWrite == WRITE) {
 1501              		.loc 1 295 4 is_stmt 1 view .LVU498
 1502              	.LBB359:
 1503              	.LBI359:
  41:boards/TMC5072_eval.c **** {
 1504              		.loc 1 41 31 view .LVU499
 1505              	.LVL180:
  41:boards/TMC5072_eval.c **** {
 1506              		.loc 1 41 31 is_stmt 0 view .LVU500
 1507              	.LBE359:
  43:boards/TMC5072_eval.c **** 
 1508              		.loc 1 43 2 is_stmt 1 view .LVU501
  45:boards/TMC5072_eval.c **** }
 1509              		.loc 1 45 2 view .LVU502
 295:boards/TMC5072_eval.c **** 		} else if(readWrite == WRITE) {
 1510              		.loc 1 295 13 is_stmt 0 view .LVU503
 1511 04d6 8248     		ldr	r0, .L176
 1512              	.LVL181:
 295:boards/TMC5072_eval.c **** 		} else if(readWrite == WRITE) {
 1513              		.loc 1 295 13 view .LVU504
 1514 04d8 FFF7FEFF 		bl	tmc5072_readInt
 1515              	.LVL182:
 295:boards/TMC5072_eval.c **** 		} else if(readWrite == WRITE) {
 1516              		.loc 1 295 11 view .LVU505
 1517 04dc 2860     		str	r0, [r5]
 1518 04de D0E5     		b	.L18
 1519              	.LVL183:
 1520              	.L96:
 296:boards/TMC5072_eval.c **** 			tmc5072_writeInt(motorToIC(motor), TMC5072_VSTOP(motor), *value);
 1521              		.loc 1 296 10 is_stmt 1 view .LVU506
 297:boards/TMC5072_eval.c **** 		}
 1522              		.loc 1 297 4 view .LVU507
 1523              	.LBB360:
 1524              	.LBI360:
  41:boards/TMC5072_eval.c **** {
 1525              		.loc 1 41 31 view .LVU508
  41:boards/TMC5072_eval.c **** {
 1526              		.loc 1 41 31 is_stmt 0 view .LVU509
 1527              	.LBE360:
  43:boards/TMC5072_eval.c **** 
 1528              		.loc 1 43 2 is_stmt 1 view .LVU510
  45:boards/TMC5072_eval.c **** }
 1529              		.loc 1 45 2 view .LVU511
 297:boards/TMC5072_eval.c **** 		}
 1530              		.loc 1 297 4 is_stmt 0 view .LVU512
 1531 04e0 2A68     		ldr	r2, [r5]
 1532              	.LVL184:
 297:boards/TMC5072_eval.c **** 		}
 1533              		.loc 1 297 4 view .LVU513
 1534 04e2 7F48     		ldr	r0, .L176
 1535              	.LVL185:
 297:boards/TMC5072_eval.c **** 		}
 1536              		.loc 1 297 4 view .LVU514
 1537 04e4 FFF7FEFF 		bl	tmc5072_writeInt
 1538              	.LVL186:
 124:boards/TMC5072_eval.c **** 	int tempValue;
 1539              		.loc 1 124 11 view .LVU515
 1540 04e8 0024     		movs	r4, #0
 1541 04ea CAE5     		b	.L18
 1542              	.LVL187:
 1543              	.L53:
 302:boards/TMC5072_eval.c **** 			*value = tmc5072_readInt(motorToIC(motor), TMC5072_TZEROWAIT(motor));
 1544              		.loc 1 302 3 is_stmt 1 view .LVU516
 1545 04ec 2023     		movs	r3, #32
 1546 04ee 03FA01F1 		lsl	r1, r3, r1
 1547              	.LVL188:
 302:boards/TMC5072_eval.c **** 			*value = tmc5072_readInt(motorToIC(motor), TMC5072_TZEROWAIT(motor));
 1548              		.loc 1 302 3 is_stmt 0 view .LVU517
 1549 04f2 41F00C01 		orr	r1, r1, #12
 1550 04f6 C9B2     		uxtb	r1, r1
 302:boards/TMC5072_eval.c **** 			*value = tmc5072_readInt(motorToIC(motor), TMC5072_TZEROWAIT(motor));
 1551              		.loc 1 302 5 view .LVU518
 1552 04f8 20B9     		cbnz	r0, .L97
 303:boards/TMC5072_eval.c **** 		} else if(readWrite == WRITE) {
 1553              		.loc 1 303 4 is_stmt 1 view .LVU519
 1554              	.LBB361:
 1555              	.LBI361:
  41:boards/TMC5072_eval.c **** {
 1556              		.loc 1 41 31 view .LVU520
 1557              	.LVL189:
  41:boards/TMC5072_eval.c **** {
 1558              		.loc 1 41 31 is_stmt 0 view .LVU521
 1559              	.LBE361:
  43:boards/TMC5072_eval.c **** 
 1560              		.loc 1 43 2 is_stmt 1 view .LVU522
  45:boards/TMC5072_eval.c **** }
 1561              		.loc 1 45 2 view .LVU523
 303:boards/TMC5072_eval.c **** 		} else if(readWrite == WRITE) {
 1562              		.loc 1 303 13 is_stmt 0 view .LVU524
 1563 04fa 7948     		ldr	r0, .L176
 1564              	.LVL190:
 303:boards/TMC5072_eval.c **** 		} else if(readWrite == WRITE) {
 1565              		.loc 1 303 13 view .LVU525
 1566 04fc FFF7FEFF 		bl	tmc5072_readInt
 1567              	.LVL191:
 303:boards/TMC5072_eval.c **** 		} else if(readWrite == WRITE) {
 1568              		.loc 1 303 11 view .LVU526
 1569 0500 2860     		str	r0, [r5]
 1570 0502 BEE5     		b	.L18
 1571              	.LVL192:
 1572              	.L97:
 304:boards/TMC5072_eval.c **** 			tmc5072_writeInt(motorToIC(motor), TMC5072_TZEROWAIT(motor), *value);
 1573              		.loc 1 304 10 is_stmt 1 view .LVU527
 305:boards/TMC5072_eval.c **** 		}
 1574              		.loc 1 305 4 view .LVU528
 1575              	.LBB362:
 1576              	.LBI362:
  41:boards/TMC5072_eval.c **** {
 1577              		.loc 1 41 31 view .LVU529
  41:boards/TMC5072_eval.c **** {
 1578              		.loc 1 41 31 is_stmt 0 view .LVU530
 1579              	.LBE362:
  43:boards/TMC5072_eval.c **** 
 1580              		.loc 1 43 2 is_stmt 1 view .LVU531
  45:boards/TMC5072_eval.c **** }
 1581              		.loc 1 45 2 view .LVU532
 305:boards/TMC5072_eval.c **** 		}
 1582              		.loc 1 305 4 is_stmt 0 view .LVU533
 1583 0504 2A68     		ldr	r2, [r5]
 1584              	.LVL193:
 305:boards/TMC5072_eval.c **** 		}
 1585              		.loc 1 305 4 view .LVU534
 1586 0506 7648     		ldr	r0, .L176
 1587              	.LVL194:
 305:boards/TMC5072_eval.c **** 		}
 1588              		.loc 1 305 4 view .LVU535
 1589 0508 FFF7FEFF 		bl	tmc5072_writeInt
 1590              	.LVL195:
 124:boards/TMC5072_eval.c **** 	int tempValue;
 1591              		.loc 1 124 11 view .LVU536
 1592 050c 0024     		movs	r4, #0
 1593 050e B8E5     		b	.L18
 1594              	.LVL196:
 1595              	.L52:
 310:boards/TMC5072_eval.c **** 			*value = tmc5072_readInt(motorToIC(motor), TMC5072_VCOOLTHRS(motor));
 1596              		.loc 1 310 3 is_stmt 1 view .LVU537
 1597 0510 2023     		movs	r3, #32
 1598 0512 03FA01F1 		lsl	r1, r3, r1
 1599              	.LVL197:
 310:boards/TMC5072_eval.c **** 			*value = tmc5072_readInt(motorToIC(motor), TMC5072_VCOOLTHRS(motor));
 1600              		.loc 1 310 3 is_stmt 0 view .LVU538
 1601 0516 41F01101 		orr	r1, r1, #17
 1602 051a C9B2     		uxtb	r1, r1
 310:boards/TMC5072_eval.c **** 			*value = tmc5072_readInt(motorToIC(motor), TMC5072_VCOOLTHRS(motor));
 1603              		.loc 1 310 5 view .LVU539
 1604 051c 20B9     		cbnz	r0, .L98
 311:boards/TMC5072_eval.c **** 		} else if(readWrite == WRITE) {
 1605              		.loc 1 311 4 is_stmt 1 view .LVU540
 1606              	.LBB363:
 1607              	.LBI363:
  41:boards/TMC5072_eval.c **** {
 1608              		.loc 1 41 31 view .LVU541
 1609              	.LVL198:
  41:boards/TMC5072_eval.c **** {
 1610              		.loc 1 41 31 is_stmt 0 view .LVU542
 1611              	.LBE363:
  43:boards/TMC5072_eval.c **** 
 1612              		.loc 1 43 2 is_stmt 1 view .LVU543
  45:boards/TMC5072_eval.c **** }
 1613              		.loc 1 45 2 view .LVU544
 311:boards/TMC5072_eval.c **** 		} else if(readWrite == WRITE) {
 1614              		.loc 1 311 13 is_stmt 0 view .LVU545
 1615 051e 7048     		ldr	r0, .L176
 1616              	.LVL199:
 311:boards/TMC5072_eval.c **** 		} else if(readWrite == WRITE) {
 1617              		.loc 1 311 13 view .LVU546
 1618 0520 FFF7FEFF 		bl	tmc5072_readInt
 1619              	.LVL200:
 311:boards/TMC5072_eval.c **** 		} else if(readWrite == WRITE) {
 1620              		.loc 1 311 11 view .LVU547
 1621 0524 2860     		str	r0, [r5]
 1622 0526 ACE5     		b	.L18
 1623              	.LVL201:
 1624              	.L98:
 312:boards/TMC5072_eval.c **** 			tmc5072_writeInt(motorToIC(motor), TMC5072_VCOOLTHRS(motor), *value);
 1625              		.loc 1 312 10 is_stmt 1 view .LVU548
 313:boards/TMC5072_eval.c **** 		}
 1626              		.loc 1 313 4 view .LVU549
 1627              	.LBB364:
 1628              	.LBI364:
  41:boards/TMC5072_eval.c **** {
 1629              		.loc 1 41 31 view .LVU550
  41:boards/TMC5072_eval.c **** {
 1630              		.loc 1 41 31 is_stmt 0 view .LVU551
 1631              	.LBE364:
  43:boards/TMC5072_eval.c **** 
 1632              		.loc 1 43 2 is_stmt 1 view .LVU552
  45:boards/TMC5072_eval.c **** }
 1633              		.loc 1 45 2 view .LVU553
 313:boards/TMC5072_eval.c **** 		}
 1634              		.loc 1 313 4 is_stmt 0 view .LVU554
 1635 0528 2A68     		ldr	r2, [r5]
 1636              	.LVL202:
 313:boards/TMC5072_eval.c **** 		}
 1637              		.loc 1 313 4 view .LVU555
 1638 052a 6D48     		ldr	r0, .L176
 1639              	.LVL203:
 313:boards/TMC5072_eval.c **** 		}
 1640              		.loc 1 313 4 view .LVU556
 1641 052c FFF7FEFF 		bl	tmc5072_writeInt
 1642              	.LVL204:
 124:boards/TMC5072_eval.c **** 	int tempValue;
 1643              		.loc 1 124 11 view .LVU557
 1644 0530 0024     		movs	r4, #0
 1645 0532 A6E5     		b	.L18
 1646              	.LVL205:
 1647              	.L51:
 318:boards/TMC5072_eval.c **** 			*value = tmc5072_readInt(motorToIC(motor), TMC5072_VHIGH(motor));
 1648              		.loc 1 318 3 is_stmt 1 view .LVU558
 1649 0534 2023     		movs	r3, #32
 1650 0536 03FA01F1 		lsl	r1, r3, r1
 1651              	.LVL206:
 318:boards/TMC5072_eval.c **** 			*value = tmc5072_readInt(motorToIC(motor), TMC5072_VHIGH(motor));
 1652              		.loc 1 318 3 is_stmt 0 view .LVU559
 1653 053a 41F01201 		orr	r1, r1, #18
 1654 053e C9B2     		uxtb	r1, r1
 318:boards/TMC5072_eval.c **** 			*value = tmc5072_readInt(motorToIC(motor), TMC5072_VHIGH(motor));
 1655              		.loc 1 318 5 view .LVU560
 1656 0540 20B9     		cbnz	r0, .L99
 319:boards/TMC5072_eval.c **** 		} else if(readWrite == WRITE) {
 1657              		.loc 1 319 4 is_stmt 1 view .LVU561
 1658              	.LBB365:
 1659              	.LBI365:
  41:boards/TMC5072_eval.c **** {
 1660              		.loc 1 41 31 view .LVU562
 1661              	.LVL207:
  41:boards/TMC5072_eval.c **** {
 1662              		.loc 1 41 31 is_stmt 0 view .LVU563
 1663              	.LBE365:
  43:boards/TMC5072_eval.c **** 
 1664              		.loc 1 43 2 is_stmt 1 view .LVU564
  45:boards/TMC5072_eval.c **** }
 1665              		.loc 1 45 2 view .LVU565
 319:boards/TMC5072_eval.c **** 		} else if(readWrite == WRITE) {
 1666              		.loc 1 319 13 is_stmt 0 view .LVU566
 1667 0542 6748     		ldr	r0, .L176
 1668              	.LVL208:
 319:boards/TMC5072_eval.c **** 		} else if(readWrite == WRITE) {
 1669              		.loc 1 319 13 view .LVU567
 1670 0544 FFF7FEFF 		bl	tmc5072_readInt
 1671              	.LVL209:
 319:boards/TMC5072_eval.c **** 		} else if(readWrite == WRITE) {
 1672              		.loc 1 319 11 view .LVU568
 1673 0548 2860     		str	r0, [r5]
 1674 054a 9AE5     		b	.L18
 1675              	.LVL210:
 1676              	.L99:
 320:boards/TMC5072_eval.c **** 			tmc5072_writeInt(motorToIC(motor), TMC5072_VHIGH(motor), *value);
 1677              		.loc 1 320 10 is_stmt 1 view .LVU569
 321:boards/TMC5072_eval.c **** 		}
 1678              		.loc 1 321 4 view .LVU570
 1679              	.LBB366:
 1680              	.LBI366:
  41:boards/TMC5072_eval.c **** {
 1681              		.loc 1 41 31 view .LVU571
  41:boards/TMC5072_eval.c **** {
 1682              		.loc 1 41 31 is_stmt 0 view .LVU572
 1683              	.LBE366:
  43:boards/TMC5072_eval.c **** 
 1684              		.loc 1 43 2 is_stmt 1 view .LVU573
  45:boards/TMC5072_eval.c **** }
 1685              		.loc 1 45 2 view .LVU574
 321:boards/TMC5072_eval.c **** 		}
 1686              		.loc 1 321 4 is_stmt 0 view .LVU575
 1687 054c 2A68     		ldr	r2, [r5]
 1688              	.LVL211:
 321:boards/TMC5072_eval.c **** 		}
 1689              		.loc 1 321 4 view .LVU576
 1690 054e 6448     		ldr	r0, .L176
 1691              	.LVL212:
 321:boards/TMC5072_eval.c **** 		}
 1692              		.loc 1 321 4 view .LVU577
 1693 0550 FFF7FEFF 		bl	tmc5072_writeInt
 1694              	.LVL213:
 124:boards/TMC5072_eval.c **** 	int tempValue;
 1695              		.loc 1 124 11 view .LVU578
 1696 0554 0024     		movs	r4, #0
 1697 0556 94E5     		b	.L18
 1698              	.LVL214:
 1699              	.L50:
 326:boards/TMC5072_eval.c **** 			*value = tmc5072_readInt(motorToIC(motor), TMC5072_VDCMIN(motor));
 1700              		.loc 1 326 3 is_stmt 1 view .LVU579
 1701 0558 2023     		movs	r3, #32
 1702 055a 03FA01F1 		lsl	r1, r3, r1
 1703              	.LVL215:
 326:boards/TMC5072_eval.c **** 			*value = tmc5072_readInt(motorToIC(motor), TMC5072_VDCMIN(motor));
 1704              		.loc 1 326 3 is_stmt 0 view .LVU580
 1705 055e 41F01301 		orr	r1, r1, #19
 1706 0562 C9B2     		uxtb	r1, r1
 326:boards/TMC5072_eval.c **** 			*value = tmc5072_readInt(motorToIC(motor), TMC5072_VDCMIN(motor));
 1707              		.loc 1 326 5 view .LVU581
 1708 0564 20B9     		cbnz	r0, .L100
 327:boards/TMC5072_eval.c **** 		} else if(readWrite == WRITE) {
 1709              		.loc 1 327 4 is_stmt 1 view .LVU582
 1710              	.LBB367:
 1711              	.LBI367:
  41:boards/TMC5072_eval.c **** {
 1712              		.loc 1 41 31 view .LVU583
 1713              	.LVL216:
  41:boards/TMC5072_eval.c **** {
 1714              		.loc 1 41 31 is_stmt 0 view .LVU584
 1715              	.LBE367:
  43:boards/TMC5072_eval.c **** 
 1716              		.loc 1 43 2 is_stmt 1 view .LVU585
  45:boards/TMC5072_eval.c **** }
 1717              		.loc 1 45 2 view .LVU586
 327:boards/TMC5072_eval.c **** 		} else if(readWrite == WRITE) {
 1718              		.loc 1 327 13 is_stmt 0 view .LVU587
 1719 0566 5E48     		ldr	r0, .L176
 1720              	.LVL217:
 327:boards/TMC5072_eval.c **** 		} else if(readWrite == WRITE) {
 1721              		.loc 1 327 13 view .LVU588
 1722 0568 FFF7FEFF 		bl	tmc5072_readInt
 1723              	.LVL218:
 327:boards/TMC5072_eval.c **** 		} else if(readWrite == WRITE) {
 1724              		.loc 1 327 11 view .LVU589
 1725 056c 2860     		str	r0, [r5]
 1726 056e 88E5     		b	.L18
 1727              	.LVL219:
 1728              	.L100:
 328:boards/TMC5072_eval.c **** 			tmc5072_writeInt(motorToIC(motor), TMC5072_VDCMIN(motor), *value);
 1729              		.loc 1 328 10 is_stmt 1 view .LVU590
 329:boards/TMC5072_eval.c **** 		}
 1730              		.loc 1 329 4 view .LVU591
 1731              	.LBB368:
 1732              	.LBI368:
  41:boards/TMC5072_eval.c **** {
 1733              		.loc 1 41 31 view .LVU592
  41:boards/TMC5072_eval.c **** {
 1734              		.loc 1 41 31 is_stmt 0 view .LVU593
 1735              	.LBE368:
  43:boards/TMC5072_eval.c **** 
 1736              		.loc 1 43 2 is_stmt 1 view .LVU594
  45:boards/TMC5072_eval.c **** }
 1737              		.loc 1 45 2 view .LVU595
 329:boards/TMC5072_eval.c **** 		}
 1738              		.loc 1 329 4 is_stmt 0 view .LVU596
 1739 0570 2A68     		ldr	r2, [r5]
 1740              	.LVL220:
 329:boards/TMC5072_eval.c **** 		}
 1741              		.loc 1 329 4 view .LVU597
 1742 0572 5B48     		ldr	r0, .L176
 1743              	.LVL221:
 329:boards/TMC5072_eval.c **** 		}
 1744              		.loc 1 329 4 view .LVU598
 1745 0574 FFF7FEFF 		bl	tmc5072_writeInt
 1746              	.LVL222:
 124:boards/TMC5072_eval.c **** 	int tempValue;
 1747              		.loc 1 124 11 view .LVU599
 1748 0578 0024     		movs	r4, #0
 1749 057a 82E5     		b	.L18
 1750              	.LVL223:
 1751              	.L49:
 334:boards/TMC5072_eval.c **** 			*value = TMC5072_FIELD_READ(motorToIC(motor), TMC5072_CHOPCONF(motor), TMC5072_VHIGHFS_MASK, TMC
 1752              		.loc 1 334 3 is_stmt 1 view .LVU600
 1753 057c 0901     		lsls	r1, r1, #4
 1754              	.LVL224:
 334:boards/TMC5072_eval.c **** 			*value = TMC5072_FIELD_READ(motorToIC(motor), TMC5072_CHOPCONF(motor), TMC5072_VHIGHFS_MASK, TMC
 1755              		.loc 1 334 3 is_stmt 0 view .LVU601
 1756 057e 41F06C06 		orr	r6, r1, #108
 1757 0582 F6B2     		uxtb	r6, r6
 335:boards/TMC5072_eval.c **** 		} else if(readWrite == WRITE) {
 1758              		.loc 1 335 13 view .LVU602
 1759 0584 5648     		ldr	r0, .L176
 1760              	.LVL225:
 335:boards/TMC5072_eval.c **** 		} else if(readWrite == WRITE) {
 1761              		.loc 1 335 13 view .LVU603
 1762 0586 3146     		mov	r1, r6
 334:boards/TMC5072_eval.c **** 			*value = TMC5072_FIELD_READ(motorToIC(motor), TMC5072_CHOPCONF(motor), TMC5072_VHIGHFS_MASK, TMC
 1763              		.loc 1 334 5 view .LVU604
 1764 0588 2CB9     		cbnz	r4, .L101
 335:boards/TMC5072_eval.c **** 		} else if(readWrite == WRITE) {
 1765              		.loc 1 335 4 is_stmt 1 view .LVU605
 1766              	.LBB369:
 1767              	.LBI369:
  41:boards/TMC5072_eval.c **** {
 1768              		.loc 1 41 31 view .LVU606
 1769              	.LVL226:
  41:boards/TMC5072_eval.c **** {
 1770              		.loc 1 41 31 is_stmt 0 view .LVU607
 1771              	.LBE369:
  43:boards/TMC5072_eval.c **** 
 1772              		.loc 1 43 2 is_stmt 1 view .LVU608
  45:boards/TMC5072_eval.c **** }
 1773              		.loc 1 45 2 view .LVU609
 335:boards/TMC5072_eval.c **** 		} else if(readWrite == WRITE) {
 1774              		.loc 1 335 13 is_stmt 0 view .LVU610
 1775 058a FFF7FEFF 		bl	tmc5072_readInt
 1776              	.LVL227:
 335:boards/TMC5072_eval.c **** 		} else if(readWrite == WRITE) {
 1777              		.loc 1 335 13 view .LVU611
 1778 058e C0F38040 		ubfx	r0, r0, #18, #1
 335:boards/TMC5072_eval.c **** 		} else if(readWrite == WRITE) {
 1779              		.loc 1 335 11 view .LVU612
 1780 0592 2860     		str	r0, [r5]
 1781 0594 75E5     		b	.L18
 1782              	.LVL228:
 1783              	.L101:
 336:boards/TMC5072_eval.c **** 			TMC5072_FIELD_WRITE(motorToIC(motor), TMC5072_CHOPCONF(motor), TMC5072_VHIGHFS_MASK, TMC5072_VHI
 1784              		.loc 1 336 10 is_stmt 1 view .LVU613
 337:boards/TMC5072_eval.c **** 		}
 1785              		.loc 1 337 4 view .LVU614
 1786              	.LBB370:
 1787              	.LBI370:
  41:boards/TMC5072_eval.c **** {
 1788              		.loc 1 41 31 view .LVU615
  41:boards/TMC5072_eval.c **** {
 1789              		.loc 1 41 31 is_stmt 0 view .LVU616
 1790              	.LBE370:
  43:boards/TMC5072_eval.c **** 
 1791              		.loc 1 43 2 is_stmt 1 view .LVU617
  45:boards/TMC5072_eval.c **** }
 1792              		.loc 1 45 2 view .LVU618
 1793              	.LBB371:
 1794              	.LBI371:
  41:boards/TMC5072_eval.c **** {
 1795              		.loc 1 41 31 view .LVU619
  41:boards/TMC5072_eval.c **** {
 1796              		.loc 1 41 31 is_stmt 0 view .LVU620
 1797              	.LBE371:
  43:boards/TMC5072_eval.c **** 
 1798              		.loc 1 43 2 is_stmt 1 view .LVU621
  45:boards/TMC5072_eval.c **** }
 1799              		.loc 1 45 2 view .LVU622
 337:boards/TMC5072_eval.c **** 		}
 1800              		.loc 1 337 4 is_stmt 0 view .LVU623
 1801 0596 FFF7FEFF 		bl	tmc5072_readInt
 1802              	.LVL229:
 337:boards/TMC5072_eval.c **** 		}
 1803              		.loc 1 337 4 view .LVU624
 1804 059a 2B68     		ldr	r3, [r5]
 1805 059c 9B04     		lsls	r3, r3, #18
 1806 059e 03F48023 		and	r3, r3, #262144
 1807 05a2 20F48022 		bic	r2, r0, #262144
 1808 05a6 1A43     		orrs	r2, r2, r3
 1809 05a8 4D48     		ldr	r0, .L176
 1810 05aa 3146     		mov	r1, r6
 1811 05ac FFF7FEFF 		bl	tmc5072_writeInt
 1812              	.LVL230:
 124:boards/TMC5072_eval.c **** 	int tempValue;
 1813              		.loc 1 124 11 view .LVU625
 1814 05b0 0024     		movs	r4, #0
 1815 05b2 66E5     		b	.L18
 1816              	.LVL231:
 1817              	.L47:
 341:boards/TMC5072_eval.c **** 			*value = motorToIC(motor)->velocity[motor];
 1818              		.loc 1 341 3 is_stmt 1 view .LVU626
 341:boards/TMC5072_eval.c **** 			*value = motorToIC(motor)->velocity[motor];
 1819              		.loc 1 341 5 is_stmt 0 view .LVU627
 1820 05b4 0028     		cmp	r0, #0
 1821 05b6 40F07983 		bne	.L163
 342:boards/TMC5072_eval.c **** 		} else if(readWrite == WRITE) {
 1822              		.loc 1 342 4 is_stmt 1 view .LVU628
 1823              	.LVL232:
  43:boards/TMC5072_eval.c **** 
 1824              		.loc 1 43 2 view .LVU629
  45:boards/TMC5072_eval.c **** }
 1825              		.loc 1 45 2 view .LVU630
 342:boards/TMC5072_eval.c **** 		} else if(readWrite == WRITE) {
 1826              		.loc 1 342 39 is_stmt 0 view .LVU631
 1827 05ba 494B     		ldr	r3, .L176
 1828 05bc 03EB8101 		add	r1, r3, r1, lsl #2
 1829              	.LVL233:
 342:boards/TMC5072_eval.c **** 		} else if(readWrite == WRITE) {
 1830              		.loc 1 342 11 view .LVU632
 1831 05c0 CB68     		ldr	r3, [r1, #12]
 1832 05c2 2B60     		str	r3, [r5]
 1833 05c4 5DE5     		b	.L18
 1834              	.LVL234:
 1835              	.L46:
 349:boards/TMC5072_eval.c **** 			*value = 256 >> TMC5072_FIELD_READ(motorToIC(motor), TMC5072_CHOPCONF(motor), TMC5072_TOFF_MASK,
 1836              		.loc 1 349 3 is_stmt 1 view .LVU633
 349:boards/TMC5072_eval.c **** 			*value = 256 >> TMC5072_FIELD_READ(motorToIC(motor), TMC5072_CHOPCONF(motor), TMC5072_TOFF_MASK,
 1837              		.loc 1 349 5 is_stmt 0 view .LVU634
 1838 05c6 74B9     		cbnz	r4, .L102
 350:boards/TMC5072_eval.c **** 		} else if(readWrite == WRITE) {
 1839              		.loc 1 350 4 is_stmt 1 view .LVU635
 1840              	.LBB372:
 1841              	.LBI372:
  41:boards/TMC5072_eval.c **** {
 1842              		.loc 1 41 31 view .LVU636
 1843              	.LVL235:
  41:boards/TMC5072_eval.c **** {
 1844              		.loc 1 41 31 is_stmt 0 view .LVU637
 1845              	.LBE372:
  43:boards/TMC5072_eval.c **** 
 1846              		.loc 1 43 2 is_stmt 1 view .LVU638
  45:boards/TMC5072_eval.c **** }
 1847              		.loc 1 45 2 view .LVU639
 350:boards/TMC5072_eval.c **** 		} else if(readWrite == WRITE) {
 1848              		.loc 1 350 20 is_stmt 0 view .LVU640
 1849 05c8 0901     		lsls	r1, r1, #4
 1850              	.LVL236:
 350:boards/TMC5072_eval.c **** 		} else if(readWrite == WRITE) {
 1851              		.loc 1 350 20 view .LVU641
 1852 05ca 41F06C01 		orr	r1, r1, #108
 1853 05ce 4448     		ldr	r0, .L176
 1854              	.LVL237:
 350:boards/TMC5072_eval.c **** 		} else if(readWrite == WRITE) {
 1855              		.loc 1 350 20 view .LVU642
 1856 05d0 01F0FC01 		and	r1, r1, #252
 1857 05d4 FFF7FEFF 		bl	tmc5072_readInt
 1858              	.LVL238:
 1859 05d8 00F00F03 		and	r3, r0, #15
 350:boards/TMC5072_eval.c **** 		} else if(readWrite == WRITE) {
 1860              		.loc 1 350 17 view .LVU643
 1861 05dc 4FF48070 		mov	r0, #256
 1862 05e0 1841     		asrs	r0, r0, r3
 350:boards/TMC5072_eval.c **** 		} else if(readWrite == WRITE) {
 1863              		.loc 1 350 11 view .LVU644
 1864 05e2 2860     		str	r0, [r5]
 1865 05e4 4DE5     		b	.L18
 1866              	.LVL239:
 1867              	.L102:
 351:boards/TMC5072_eval.c **** 			switch(*value)
 1868              		.loc 1 351 10 is_stmt 1 view .LVU645
 352:boards/TMC5072_eval.c **** 			{
 1869              		.loc 1 352 4 view .LVU646
 352:boards/TMC5072_eval.c **** 			{
 1870              		.loc 1 352 11 is_stmt 0 view .LVU647
 1871 05e6 2B68     		ldr	r3, [r5]
 1872 05e8 102B     		cmp	r3, #16
 1873 05ea 39D0     		beq	.L103
 1874 05ec 0ADC     		bgt	.L104
 1875 05ee 013B     		subs	r3, r3, #1
 1876 05f0 072B     		cmp	r3, #7
 1877 05f2 0ED8     		bhi	.L105
 1878 05f4 072B     		cmp	r3, #7
 1879 05f6 0CD8     		bhi	.L105
 1880 05f8 DFE803F0 		tbb	[pc, r3]
 1881              	.L107:
 1882 05fc 15       		.byte	(.L110-.L107)/2
 1883 05fd 2C       		.byte	(.L109-.L107)/2
 1884 05fe 0B       		.byte	(.L105-.L107)/2
 1885 05ff 2E       		.byte	(.L108-.L107)/2
 1886 0600 0B       		.byte	(.L105-.L107)/2
 1887 0601 0B       		.byte	(.L105-.L107)/2
 1888 0602 0B       		.byte	(.L105-.L107)/2
 1889 0603 30       		.byte	(.L106-.L107)/2
 1890              		.p2align 1
 1891              	.L104:
 1892 0604 802B     		cmp	r3, #128
 1893 0606 31D0     		beq	.L111
 1894 0608 08DC     		bgt	.L112
 1895 060a 202B     		cmp	r3, #32
 1896 060c 2AD0     		beq	.L113
 1897 060e 402B     		cmp	r3, #64
 1898 0610 2AD0     		beq	.L114
 1899              	.L105:
 363:boards/TMC5072_eval.c **** 			}
 1900              		.loc 1 363 15 is_stmt 1 view .LVU648
 363:boards/TMC5072_eval.c **** 			}
 1901              		.loc 1 363 22 is_stmt 0 view .LVU649
 1902 0612 4FF0FF33 		mov	r3, #-1
 1903 0616 2B60     		str	r3, [r5]
 363:boards/TMC5072_eval.c **** 			}
 1904              		.loc 1 363 29 is_stmt 1 view .LVU650
 366:boards/TMC5072_eval.c **** 			{
 1905              		.loc 1 366 4 view .LVU651
 124:boards/TMC5072_eval.c **** 	int tempValue;
 1906              		.loc 1 124 11 is_stmt 0 view .LVU652
 1907 0618 0024     		movs	r4, #0
 1908 061a 32E5     		b	.L18
 1909              	.L112:
 124:boards/TMC5072_eval.c **** 	int tempValue;
 1910              		.loc 1 124 11 view .LVU653
 1911 061c B3F5807F 		cmp	r3, #256
 1912 0620 F7D1     		bne	.L105
 362:boards/TMC5072_eval.c **** 			default:   *value = -1;  break;
 1913              		.loc 1 362 15 is_stmt 1 view .LVU654
 362:boards/TMC5072_eval.c **** 			default:   *value = -1;  break;
 1914              		.loc 1 362 22 is_stmt 0 view .LVU655
 1915 0622 0023     		movs	r3, #0
 1916 0624 00E0     		b	.L173
 1917              	.L110:
 354:boards/TMC5072_eval.c **** 			case 2:    *value = 7;   break;
 1918              		.loc 1 354 15 is_stmt 1 view .LVU656
 354:boards/TMC5072_eval.c **** 			case 2:    *value = 7;   break;
 1919              		.loc 1 354 22 is_stmt 0 view .LVU657
 1920 0626 0823     		movs	r3, #8
 1921              	.L173:
 368:boards/TMC5072_eval.c **** 			}
 1922              		.loc 1 368 5 view .LVU658
 1923 0628 0901     		lsls	r1, r1, #4
 1924              	.LVL240:
 368:boards/TMC5072_eval.c **** 			}
 1925              		.loc 1 368 5 view .LVU659
 1926 062a 41F06C04 		orr	r4, r1, #108
 1927 062e E4B2     		uxtb	r4, r4
 1928 0630 2146     		mov	r1, r4
 362:boards/TMC5072_eval.c **** 			default:   *value = -1;  break;
 1929              		.loc 1 362 22 view .LVU660
 1930 0632 2B60     		str	r3, [r5]
 362:boards/TMC5072_eval.c **** 			default:   *value = -1;  break;
 1931              		.loc 1 362 29 is_stmt 1 view .LVU661
 366:boards/TMC5072_eval.c **** 			{
 1932              		.loc 1 366 4 view .LVU662
 368:boards/TMC5072_eval.c **** 			}
 1933              		.loc 1 368 5 view .LVU663
 1934              	.LBB373:
 1935              	.LBI373:
  41:boards/TMC5072_eval.c **** {
 1936              		.loc 1 41 31 view .LVU664
 1937              	.LVL241:
  41:boards/TMC5072_eval.c **** {
 1938              		.loc 1 41 31 is_stmt 0 view .LVU665
 1939              	.LBE373:
  43:boards/TMC5072_eval.c **** 
 1940              		.loc 1 43 2 is_stmt 1 view .LVU666
  45:boards/TMC5072_eval.c **** }
 1941              		.loc 1 45 2 view .LVU667
 1942              	.LBB374:
 1943              	.LBI374:
  41:boards/TMC5072_eval.c **** {
 1944              		.loc 1 41 31 view .LVU668
  41:boards/TMC5072_eval.c **** {
 1945              		.loc 1 41 31 is_stmt 0 view .LVU669
 1946              	.LBE374:
  43:boards/TMC5072_eval.c **** 
 1947              		.loc 1 43 2 is_stmt 1 view .LVU670
  45:boards/TMC5072_eval.c **** }
 1948              		.loc 1 45 2 view .LVU671
 368:boards/TMC5072_eval.c **** 			}
 1949              		.loc 1 368 5 is_stmt 0 view .LVU672
 1950 0634 2A48     		ldr	r0, .L176
 1951              	.LVL242:
 368:boards/TMC5072_eval.c **** 			}
 1952              		.loc 1 368 5 view .LVU673
 1953 0636 FFF7FEFF 		bl	tmc5072_readInt
 1954              	.LVL243:
 1955 063a 2B68     		ldr	r3, [r5]
 1956 063c 1B06     		lsls	r3, r3, #24
 1957 063e 03F07063 		and	r3, r3, #251658240
 1958 0642 20F07062 		bic	r2, r0, #251658240
 1959 0646 2146     		mov	r1, r4
 1960 0648 2548     		ldr	r0, .L176
 1961 064a 1A43     		orrs	r2, r2, r3
 1962 064c FFF7FEFF 		bl	tmc5072_writeInt
 1963              	.LVL244:
 124:boards/TMC5072_eval.c **** 	int tempValue;
 1964              		.loc 1 124 11 view .LVU674
 1965 0650 0024     		movs	r4, #0
 1966 0652 16E5     		b	.L18
 1967              	.LVL245:
 1968              	.L109:
 355:boards/TMC5072_eval.c **** 			case 4:    *value = 6;   break;
 1969              		.loc 1 355 15 is_stmt 1 view .LVU675
 355:boards/TMC5072_eval.c **** 			case 4:    *value = 6;   break;
 1970              		.loc 1 355 22 is_stmt 0 view .LVU676
 1971 0654 0723     		movs	r3, #7
 1972 0656 E7E7     		b	.L173
 1973              	.L108:
 356:boards/TMC5072_eval.c **** 			case 8:    *value = 5;   break;
 1974              		.loc 1 356 15 is_stmt 1 view .LVU677
 356:boards/TMC5072_eval.c **** 			case 8:    *value = 5;   break;
 1975              		.loc 1 356 22 is_stmt 0 view .LVU678
 1976 0658 0623     		movs	r3, #6
 1977 065a E5E7     		b	.L173
 1978              	.L106:
 357:boards/TMC5072_eval.c **** 			case 16:   *value = 4;   break;
 1979              		.loc 1 357 15 is_stmt 1 view .LVU679
 357:boards/TMC5072_eval.c **** 			case 16:   *value = 4;   break;
 1980              		.loc 1 357 22 is_stmt 0 view .LVU680
 1981 065c 0523     		movs	r3, #5
 1982 065e E3E7     		b	.L173
 1983              	.L103:
 358:boards/TMC5072_eval.c **** 			case 32:   *value = 3;   break;
 1984              		.loc 1 358 15 is_stmt 1 view .LVU681
 358:boards/TMC5072_eval.c **** 			case 32:   *value = 3;   break;
 1985              		.loc 1 358 22 is_stmt 0 view .LVU682
 1986 0660 0423     		movs	r3, #4
 1987 0662 E1E7     		b	.L173
 1988              	.L113:
 359:boards/TMC5072_eval.c **** 			case 64:   *value = 2;   break;
 1989              		.loc 1 359 15 is_stmt 1 view .LVU683
 359:boards/TMC5072_eval.c **** 			case 64:   *value = 2;   break;
 1990              		.loc 1 359 22 is_stmt 0 view .LVU684
 1991 0664 0323     		movs	r3, #3
 1992 0666 DFE7     		b	.L173
 1993              	.L114:
 360:boards/TMC5072_eval.c **** 			case 128:  *value = 1;   break;
 1994              		.loc 1 360 15 is_stmt 1 view .LVU685
 360:boards/TMC5072_eval.c **** 			case 128:  *value = 1;   break;
 1995              		.loc 1 360 22 is_stmt 0 view .LVU686
 1996 0668 0223     		movs	r3, #2
 1997 066a DDE7     		b	.L173
 1998              	.L111:
 361:boards/TMC5072_eval.c **** 			case 256:  *value = 0;   break;
 1999              		.loc 1 361 15 is_stmt 1 view .LVU687
 361:boards/TMC5072_eval.c **** 			case 256:  *value = 0;   break;
 2000              		.loc 1 361 22 is_stmt 0 view .LVU688
 2001 066c 0123     		movs	r3, #1
 2002 066e DBE7     		b	.L173
 2003              	.L45:
 375:boards/TMC5072_eval.c **** 			*value = TMC5072_FIELD_READ(motorToIC(motor), TMC5072_CHOPCONF(motor), TMC5072_TBL_MASK, TMC5072
 2004              		.loc 1 375 3 is_stmt 1 view .LVU689
 2005 0670 0901     		lsls	r1, r1, #4
 2006              	.LVL246:
 375:boards/TMC5072_eval.c **** 			*value = TMC5072_FIELD_READ(motorToIC(motor), TMC5072_CHOPCONF(motor), TMC5072_TBL_MASK, TMC5072
 2007              		.loc 1 375 3 is_stmt 0 view .LVU690
 2008 0672 41F06C06 		orr	r6, r1, #108
 2009 0676 F6B2     		uxtb	r6, r6
 376:boards/TMC5072_eval.c **** 		} else if(readWrite == WRITE) {
 2010              		.loc 1 376 13 view .LVU691
 2011 0678 1948     		ldr	r0, .L176
 2012              	.LVL247:
 376:boards/TMC5072_eval.c **** 		} else if(readWrite == WRITE) {
 2013              		.loc 1 376 13 view .LVU692
 2014 067a 3146     		mov	r1, r6
 375:boards/TMC5072_eval.c **** 			*value = TMC5072_FIELD_READ(motorToIC(motor), TMC5072_CHOPCONF(motor), TMC5072_TBL_MASK, TMC5072
 2015              		.loc 1 375 5 view .LVU693
 2016 067c 2CB9     		cbnz	r4, .L117
 376:boards/TMC5072_eval.c **** 		} else if(readWrite == WRITE) {
 2017              		.loc 1 376 4 is_stmt 1 view .LVU694
 2018              	.LBB375:
 2019              	.LBI375:
  41:boards/TMC5072_eval.c **** {
 2020              		.loc 1 41 31 view .LVU695
 2021              	.LVL248:
  41:boards/TMC5072_eval.c **** {
 2022              		.loc 1 41 31 is_stmt 0 view .LVU696
 2023              	.LBE375:
  43:boards/TMC5072_eval.c **** 
 2024              		.loc 1 43 2 is_stmt 1 view .LVU697
  45:boards/TMC5072_eval.c **** }
 2025              		.loc 1 45 2 view .LVU698
 376:boards/TMC5072_eval.c **** 		} else if(readWrite == WRITE) {
 2026              		.loc 1 376 13 is_stmt 0 view .LVU699
 2027 067e FFF7FEFF 		bl	tmc5072_readInt
 2028              	.LVL249:
 2029 0682 C0F3C130 		ubfx	r0, r0, #15, #2
 376:boards/TMC5072_eval.c **** 		} else if(readWrite == WRITE) {
 2030              		.loc 1 376 11 view .LVU700
 2031 0686 2860     		str	r0, [r5]
 2032 0688 FBE4     		b	.L18
 2033              	.L117:
 377:boards/TMC5072_eval.c **** 			TMC5072_FIELD_WRITE(motorToIC(motor), TMC5072_CHOPCONF(motor), TMC5072_TBL_MASK, TMC5072_TBL_SHI
 2034              		.loc 1 377 10 is_stmt 1 view .LVU701
 378:boards/TMC5072_eval.c **** 		}
 2035              		.loc 1 378 4 view .LVU702
 2036              	.LBB376:
 2037              	.LBI376:
  41:boards/TMC5072_eval.c **** {
 2038              		.loc 1 41 31 view .LVU703
 2039              	.LVL250:
  41:boards/TMC5072_eval.c **** {
 2040              		.loc 1 41 31 is_stmt 0 view .LVU704
 2041              	.LBE376:
  43:boards/TMC5072_eval.c **** 
 2042              		.loc 1 43 2 is_stmt 1 view .LVU705
  45:boards/TMC5072_eval.c **** }
 2043              		.loc 1 45 2 view .LVU706
 2044              	.LBB377:
 2045              	.LBI377:
  41:boards/TMC5072_eval.c **** {
 2046              		.loc 1 41 31 view .LVU707
  41:boards/TMC5072_eval.c **** {
 2047              		.loc 1 41 31 is_stmt 0 view .LVU708
 2048              	.LBE377:
  43:boards/TMC5072_eval.c **** 
 2049              		.loc 1 43 2 is_stmt 1 view .LVU709
  45:boards/TMC5072_eval.c **** }
 2050              		.loc 1 45 2 view .LVU710
 378:boards/TMC5072_eval.c **** 		}
 2051              		.loc 1 378 4 is_stmt 0 view .LVU711
 2052 068a FFF7FEFF 		bl	tmc5072_readInt
 2053              	.LVL251:
 2054 068e 2B68     		ldr	r3, [r5]
 2055 0690 DB03     		lsls	r3, r3, #15
 2056 0692 03F4C033 		and	r3, r3, #98304
 2057 0696 20F4C032 		bic	r2, r0, #98304
 2058 069a 1A43     		orrs	r2, r2, r3
 2059 069c 1048     		ldr	r0, .L176
 2060 069e 3146     		mov	r1, r6
 2061 06a0 FFF7FEFF 		bl	tmc5072_writeInt
 2062              	.LVL252:
 124:boards/TMC5072_eval.c **** 	int tempValue;
 2063              		.loc 1 124 11 view .LVU712
 2064 06a4 0024     		movs	r4, #0
 2065 06a6 ECE4     		b	.L18
 2066              	.LVL253:
 2067              	.L44:
 383:boards/TMC5072_eval.c **** 			*value = TMC5072_FIELD_READ(motorToIC(motor), TMC5072_CHOPCONF(motor), TMC5072_RNDTF_MASK, TMC50
 2068              		.loc 1 383 3 is_stmt 1 view .LVU713
 2069 06a8 0901     		lsls	r1, r1, #4
 2070              	.LVL254:
 383:boards/TMC5072_eval.c **** 			*value = TMC5072_FIELD_READ(motorToIC(motor), TMC5072_CHOPCONF(motor), TMC5072_RNDTF_MASK, TMC50
 2071              		.loc 1 383 3 is_stmt 0 view .LVU714
 2072 06aa 41F06C06 		orr	r6, r1, #108
 2073 06ae F6B2     		uxtb	r6, r6
 384:boards/TMC5072_eval.c **** 		} else if(readWrite == WRITE) {
 2074              		.loc 1 384 13 view .LVU715
 2075 06b0 0B48     		ldr	r0, .L176
 2076              	.LVL255:
 384:boards/TMC5072_eval.c **** 		} else if(readWrite == WRITE) {
 2077              		.loc 1 384 13 view .LVU716
 2078 06b2 3146     		mov	r1, r6
 383:boards/TMC5072_eval.c **** 			*value = TMC5072_FIELD_READ(motorToIC(motor), TMC5072_CHOPCONF(motor), TMC5072_RNDTF_MASK, TMC50
 2079              		.loc 1 383 5 view .LVU717
 2080 06b4 2CB9     		cbnz	r4, .L118
 384:boards/TMC5072_eval.c **** 		} else if(readWrite == WRITE) {
 2081              		.loc 1 384 4 is_stmt 1 view .LVU718
 2082              	.LBB378:
 2083              	.LBI378:
  41:boards/TMC5072_eval.c **** {
 2084              		.loc 1 41 31 view .LVU719
 2085              	.LVL256:
  41:boards/TMC5072_eval.c **** {
 2086              		.loc 1 41 31 is_stmt 0 view .LVU720
 2087              	.LBE378:
  43:boards/TMC5072_eval.c **** 
 2088              		.loc 1 43 2 is_stmt 1 view .LVU721
  45:boards/TMC5072_eval.c **** }
 2089              		.loc 1 45 2 view .LVU722
 384:boards/TMC5072_eval.c **** 		} else if(readWrite == WRITE) {
 2090              		.loc 1 384 13 is_stmt 0 view .LVU723
 2091 06b6 FFF7FEFF 		bl	tmc5072_readInt
 2092              	.LVL257:
 2093 06ba C0F34030 		ubfx	r0, r0, #13, #1
 384:boards/TMC5072_eval.c **** 		} else if(readWrite == WRITE) {
 2094              		.loc 1 384 11 view .LVU724
 2095 06be 2860     		str	r0, [r5]
 2096 06c0 DFE4     		b	.L18
 2097              	.L118:
 385:boards/TMC5072_eval.c **** 			TMC5072_FIELD_WRITE(motorToIC(motor), TMC5072_CHOPCONF(motor), TMC5072_RNDTF_MASK, TMC5072_RNDTF
 2098              		.loc 1 385 10 is_stmt 1 view .LVU725
 386:boards/TMC5072_eval.c **** 		}
 2099              		.loc 1 386 4 view .LVU726
 2100              	.LBB379:
 2101              	.LBI379:
  41:boards/TMC5072_eval.c **** {
 2102              		.loc 1 41 31 view .LVU727
 2103              	.LVL258:
  41:boards/TMC5072_eval.c **** {
 2104              		.loc 1 41 31 is_stmt 0 view .LVU728
 2105              	.LBE379:
  43:boards/TMC5072_eval.c **** 
 2106              		.loc 1 43 2 is_stmt 1 view .LVU729
  45:boards/TMC5072_eval.c **** }
 2107              		.loc 1 45 2 view .LVU730
 2108              	.LBB380:
 2109              	.LBI380:
  41:boards/TMC5072_eval.c **** {
 2110              		.loc 1 41 31 view .LVU731
  41:boards/TMC5072_eval.c **** {
 2111              		.loc 1 41 31 is_stmt 0 view .LVU732
 2112              	.LBE380:
  43:boards/TMC5072_eval.c **** 
 2113              		.loc 1 43 2 is_stmt 1 view .LVU733
  45:boards/TMC5072_eval.c **** }
 2114              		.loc 1 45 2 view .LVU734
 386:boards/TMC5072_eval.c **** 		}
 2115              		.loc 1 386 4 is_stmt 0 view .LVU735
 2116 06c2 FFF7FEFF 		bl	tmc5072_readInt
 2117              	.LVL259:
 2118 06c6 2B68     		ldr	r3, [r5]
 2119 06c8 5B03     		lsls	r3, r3, #13
 2120 06ca 03F40053 		and	r3, r3, #8192
 2121 06ce 20F40052 		bic	r2, r0, #8192
 2122 06d2 1A43     		orrs	r2, r2, r3
 2123 06d4 0248     		ldr	r0, .L176
 2124 06d6 3146     		mov	r1, r6
 2125 06d8 FFF7FEFF 		bl	tmc5072_writeInt
 2126              	.LVL260:
 124:boards/TMC5072_eval.c **** 	int tempValue;
 2127              		.loc 1 124 11 view .LVU736
 2128 06dc 0024     		movs	r4, #0
 2129 06de D0E4     		b	.L18
 2130              	.L177:
 2131              		.align	2
 2132              	.L176:
 2133 06e0 00000000 		.word	.LANCHOR0
 2134              	.LVL261:
 2135              	.L43:
 391:boards/TMC5072_eval.c **** 			*value = TMC5072_FIELD_READ(motorToIC(motor), TMC5072_CHOPCONF(motor), TMC5072_DISFDCC_MASK, TMC
 2136              		.loc 1 391 3 is_stmt 1 view .LVU737
 2137 06e4 0901     		lsls	r1, r1, #4
 2138              	.LVL262:
 391:boards/TMC5072_eval.c **** 			*value = TMC5072_FIELD_READ(motorToIC(motor), TMC5072_CHOPCONF(motor), TMC5072_DISFDCC_MASK, TMC
 2139              		.loc 1 391 3 is_stmt 0 view .LVU738
 2140 06e6 41F06C06 		orr	r6, r1, #108
 2141 06ea F6B2     		uxtb	r6, r6
 392:boards/TMC5072_eval.c **** 		} else if(readWrite == WRITE) {
 2142              		.loc 1 392 13 view .LVU739
 2143 06ec B748     		ldr	r0, .L178
 2144              	.LVL263:
 392:boards/TMC5072_eval.c **** 		} else if(readWrite == WRITE) {
 2145              		.loc 1 392 13 view .LVU740
 2146 06ee 3146     		mov	r1, r6
 391:boards/TMC5072_eval.c **** 			*value = TMC5072_FIELD_READ(motorToIC(motor), TMC5072_CHOPCONF(motor), TMC5072_DISFDCC_MASK, TMC
 2147              		.loc 1 391 5 view .LVU741
 2148 06f0 2CB9     		cbnz	r4, .L119
 392:boards/TMC5072_eval.c **** 		} else if(readWrite == WRITE) {
 2149              		.loc 1 392 4 is_stmt 1 view .LVU742
 2150              	.LBB381:
 2151              	.LBI381:
  41:boards/TMC5072_eval.c **** {
 2152              		.loc 1 41 31 view .LVU743
 2153              	.LVL264:
  41:boards/TMC5072_eval.c **** {
 2154              		.loc 1 41 31 is_stmt 0 view .LVU744
 2155              	.LBE381:
  43:boards/TMC5072_eval.c **** 
 2156              		.loc 1 43 2 is_stmt 1 view .LVU745
  45:boards/TMC5072_eval.c **** }
 2157              		.loc 1 45 2 view .LVU746
 392:boards/TMC5072_eval.c **** 		} else if(readWrite == WRITE) {
 2158              		.loc 1 392 13 is_stmt 0 view .LVU747
 2159 06f2 FFF7FEFF 		bl	tmc5072_readInt
 2160              	.LVL265:
 2161 06f6 C0F30030 		ubfx	r0, r0, #12, #1
 392:boards/TMC5072_eval.c **** 		} else if(readWrite == WRITE) {
 2162              		.loc 1 392 11 view .LVU748
 2163 06fa 2860     		str	r0, [r5]
 2164 06fc C1E4     		b	.L18
 2165              	.L119:
 393:boards/TMC5072_eval.c **** 			TMC5072_FIELD_WRITE(motorToIC(motor), TMC5072_CHOPCONF(motor), TMC5072_DISFDCC_MASK, TMC5072_DIS
 2166              		.loc 1 393 10 is_stmt 1 view .LVU749
 394:boards/TMC5072_eval.c **** 		}
 2167              		.loc 1 394 4 view .LVU750
 2168              	.LBB382:
 2169              	.LBI382:
  41:boards/TMC5072_eval.c **** {
 2170              		.loc 1 41 31 view .LVU751
 2171              	.LVL266:
  41:boards/TMC5072_eval.c **** {
 2172              		.loc 1 41 31 is_stmt 0 view .LVU752
 2173              	.LBE382:
  43:boards/TMC5072_eval.c **** 
 2174              		.loc 1 43 2 is_stmt 1 view .LVU753
  45:boards/TMC5072_eval.c **** }
 2175              		.loc 1 45 2 view .LVU754
 2176              	.LBB383:
 2177              	.LBI383:
  41:boards/TMC5072_eval.c **** {
 2178              		.loc 1 41 31 view .LVU755
  41:boards/TMC5072_eval.c **** {
 2179              		.loc 1 41 31 is_stmt 0 view .LVU756
 2180              	.LBE383:
  43:boards/TMC5072_eval.c **** 
 2181              		.loc 1 43 2 is_stmt 1 view .LVU757
  45:boards/TMC5072_eval.c **** }
 2182              		.loc 1 45 2 view .LVU758
 394:boards/TMC5072_eval.c **** 		}
 2183              		.loc 1 394 4 is_stmt 0 view .LVU759
 2184 06fe FFF7FEFF 		bl	tmc5072_readInt
 2185              	.LVL267:
 2186 0702 2B68     		ldr	r3, [r5]
 2187 0704 1B03     		lsls	r3, r3, #12
 2188 0706 03F48053 		and	r3, r3, #4096
 2189 070a 20F48052 		bic	r2, r0, #4096
 2190 070e 1A43     		orrs	r2, r2, r3
 2191 0710 AE48     		ldr	r0, .L178
 2192 0712 3146     		mov	r1, r6
 2193 0714 FFF7FEFF 		bl	tmc5072_writeInt
 2194              	.LVL268:
 124:boards/TMC5072_eval.c **** 	int tempValue;
 2195              		.loc 1 124 11 view .LVU760
 2196 0718 0024     		movs	r4, #0
 2197 071a B2E4     		b	.L18
 2198              	.LVL269:
 2199              	.L42:
 399:boards/TMC5072_eval.c **** 		if(readWrite == READ) {
 2200              		.loc 1 399 3 is_stmt 1 view .LVU761
 2201              	.LBB384:
 2202              	.LBI384:
  41:boards/TMC5072_eval.c **** {
 2203              		.loc 1 41 31 view .LVU762
  41:boards/TMC5072_eval.c **** {
 2204              		.loc 1 41 31 is_stmt 0 view .LVU763
 2205              	.LBE384:
  43:boards/TMC5072_eval.c **** 
 2206              		.loc 1 43 2 is_stmt 1 view .LVU764
  45:boards/TMC5072_eval.c **** }
 2207              		.loc 1 45 2 view .LVU765
 399:boards/TMC5072_eval.c **** 		if(readWrite == READ) {
 2208              		.loc 1 399 15 is_stmt 0 view .LVU766
 2209 071c 0901     		lsls	r1, r1, #4
 2210              	.LVL270:
 399:boards/TMC5072_eval.c **** 		if(readWrite == READ) {
 2211              		.loc 1 399 15 view .LVU767
 2212 071e 41F06C06 		orr	r6, r1, #108
 2213 0722 F6B2     		uxtb	r6, r6
 2214 0724 3146     		mov	r1, r6
 2215 0726 A948     		ldr	r0, .L178
 2216              	.LVL271:
 399:boards/TMC5072_eval.c **** 		if(readWrite == READ) {
 2217              		.loc 1 399 15 view .LVU768
 2218 0728 FFF7FEFF 		bl	tmc5072_readInt
 2219              	.LVL272:
 403:boards/TMC5072_eval.c **** 			}
 2220              		.loc 1 403 14 view .LVU769
 2221 072c 3146     		mov	r1, r6
 399:boards/TMC5072_eval.c **** 		if(readWrite == READ) {
 2222              		.loc 1 399 13 view .LVU770
 2223 072e C0F38037 		ubfx	r7, r0, #14, #1
 2224              	.LVL273:
 400:boards/TMC5072_eval.c **** 			if(tempValue)
 2225              		.loc 1 400 3 is_stmt 1 view .LVU771
 403:boards/TMC5072_eval.c **** 			}
 2226              		.loc 1 403 14 is_stmt 0 view .LVU772
 2227 0732 A648     		ldr	r0, .L178
 400:boards/TMC5072_eval.c **** 			if(tempValue)
 2228              		.loc 1 400 5 view .LVU773
 2229 0734 64B9     		cbnz	r4, .L120
 401:boards/TMC5072_eval.c **** 			{
 2230              		.loc 1 401 4 is_stmt 1 view .LVU774
 401:boards/TMC5072_eval.c **** 			{
 2231              		.loc 1 401 6 is_stmt 0 view .LVU775
 2232 0736 2FB1     		cbz	r7, .L121
 403:boards/TMC5072_eval.c **** 			}
 2233              		.loc 1 403 5 is_stmt 1 view .LVU776
 2234              	.LBB385:
 2235              	.LBI385:
  41:boards/TMC5072_eval.c **** {
 2236              		.loc 1 41 31 view .LVU777
 2237              	.LVL274:
  41:boards/TMC5072_eval.c **** {
 2238              		.loc 1 41 31 is_stmt 0 view .LVU778
 2239              	.LBE385:
  43:boards/TMC5072_eval.c **** 
 2240              		.loc 1 43 2 is_stmt 1 view .LVU779
  45:boards/TMC5072_eval.c **** }
 2241              		.loc 1 45 2 view .LVU780
 403:boards/TMC5072_eval.c **** 			}
 2242              		.loc 1 403 14 is_stmt 0 view .LVU781
 2243 0738 FFF7FEFF 		bl	tmc5072_readInt
 2244              	.LVL275:
 2245 073c C0F3C310 		ubfx	r0, r0, #7, #4
 403:boards/TMC5072_eval.c **** 			}
 2246              		.loc 1 403 12 view .LVU782
 2247 0740 2860     		str	r0, [r5]
 2248 0742 9EE4     		b	.L18
 2249              	.L121:
 407:boards/TMC5072_eval.c **** 				*value |= (*value & (1<<11)) << 3;
 2250              		.loc 1 407 5 is_stmt 1 view .LVU783
 2251              	.LBB386:
 2252              	.LBI386:
  41:boards/TMC5072_eval.c **** {
 2253              		.loc 1 41 31 view .LVU784
 2254              	.LVL276:
  41:boards/TMC5072_eval.c **** {
 2255              		.loc 1 41 31 is_stmt 0 view .LVU785
 2256              	.LBE386:
  43:boards/TMC5072_eval.c **** 
 2257              		.loc 1 43 2 is_stmt 1 view .LVU786
  45:boards/TMC5072_eval.c **** }
 2258              		.loc 1 45 2 view .LVU787
 407:boards/TMC5072_eval.c **** 				*value |= (*value & (1<<11)) << 3;
 2259              		.loc 1 407 14 is_stmt 0 view .LVU788
 2260 0744 FFF7FEFF 		bl	tmc5072_readInt
 2261              	.LVL277:
 408:boards/TMC5072_eval.c **** 			}
 2262              		.loc 1 408 5 is_stmt 1 view .LVU789
 407:boards/TMC5072_eval.c **** 				*value |= (*value & (1<<11)) << 3;
 2263              		.loc 1 407 14 is_stmt 0 view .LVU790
 2264 0748 C0F30210 		ubfx	r0, r0, #4, #3
 408:boards/TMC5072_eval.c **** 			}
 2265              		.loc 1 408 12 view .LVU791
 2266 074c 2860     		str	r0, [r5]
 2267 074e 98E4     		b	.L18
 2268              	.L120:
 410:boards/TMC5072_eval.c **** 			if(tempValue)
 2269              		.loc 1 410 10 is_stmt 1 view .LVU792
 411:boards/TMC5072_eval.c **** 			{
 2270              		.loc 1 411 4 view .LVU793
 411:boards/TMC5072_eval.c **** 			{
 2271              		.loc 1 411 6 is_stmt 0 view .LVU794
 2272 0750 77B1     		cbz	r7, .L122
 413:boards/TMC5072_eval.c **** 			}
 2273              		.loc 1 413 5 is_stmt 1 view .LVU795
 2274              	.LBB387:
 2275              	.LBI387:
  41:boards/TMC5072_eval.c **** {
 2276              		.loc 1 41 31 view .LVU796
 2277              	.LVL278:
  41:boards/TMC5072_eval.c **** {
 2278              		.loc 1 41 31 is_stmt 0 view .LVU797
 2279              	.LBE387:
  43:boards/TMC5072_eval.c **** 
 2280              		.loc 1 43 2 is_stmt 1 view .LVU798
  45:boards/TMC5072_eval.c **** }
 2281              		.loc 1 45 2 view .LVU799
 2282              	.LBB388:
 2283              	.LBI388:
  41:boards/TMC5072_eval.c **** {
 2284              		.loc 1 41 31 view .LVU800
  41:boards/TMC5072_eval.c **** {
 2285              		.loc 1 41 31 is_stmt 0 view .LVU801
 2286              	.LBE388:
  43:boards/TMC5072_eval.c **** 
 2287              		.loc 1 43 2 is_stmt 1 view .LVU802
  45:boards/TMC5072_eval.c **** }
 2288              		.loc 1 45 2 view .LVU803
 413:boards/TMC5072_eval.c **** 			}
 2289              		.loc 1 413 5 is_stmt 0 view .LVU804
 2290 0752 FFF7FEFF 		bl	tmc5072_readInt
 2291              	.LVL279:
 2292 0756 2B68     		ldr	r3, [r5]
 2293 0758 DB01     		lsls	r3, r3, #7
 2294 075a 03F4F063 		and	r3, r3, #1920
 2295 075e 20F4F062 		bic	r2, r0, #1920
 2296 0762 1A43     		orrs	r2, r2, r3
 2297 0764 9948     		ldr	r0, .L178
 2298 0766 3146     		mov	r1, r6
 2299 0768 FFF7FEFF 		bl	tmc5072_writeInt
 2300              	.LVL280:
 124:boards/TMC5072_eval.c **** 	int tempValue;
 2301              		.loc 1 124 11 view .LVU805
 2302 076c 0024     		movs	r4, #0
 2303 076e 88E4     		b	.L18
 2304              	.L122:
 417:boards/TMC5072_eval.c **** 				TMC5072_FIELD_WRITE(motorToIC(motor), TMC5072_CHOPCONF(motor), TMC5072_TFD_ALL_MASK, TMC5072_TF
 2305              		.loc 1 417 5 is_stmt 1 view .LVU806
 2306              	.LBB389:
 2307              	.LBI389:
  41:boards/TMC5072_eval.c **** {
 2308              		.loc 1 41 31 view .LVU807
 2309              	.LVL281:
  41:boards/TMC5072_eval.c **** {
 2310              		.loc 1 41 31 is_stmt 0 view .LVU808
 2311              	.LBE389:
  43:boards/TMC5072_eval.c **** 
 2312              		.loc 1 43 2 is_stmt 1 view .LVU809
  45:boards/TMC5072_eval.c **** }
 2313              		.loc 1 45 2 view .LVU810
 2314              	.LBB390:
 2315              	.LBI390:
  41:boards/TMC5072_eval.c **** {
 2316              		.loc 1 41 31 view .LVU811
  41:boards/TMC5072_eval.c **** {
 2317              		.loc 1 41 31 is_stmt 0 view .LVU812
 2318              	.LBE390:
  43:boards/TMC5072_eval.c **** 
 2319              		.loc 1 43 2 is_stmt 1 view .LVU813
  45:boards/TMC5072_eval.c **** }
 2320              		.loc 1 45 2 view .LVU814
 417:boards/TMC5072_eval.c **** 				TMC5072_FIELD_WRITE(motorToIC(motor), TMC5072_CHOPCONF(motor), TMC5072_TFD_ALL_MASK, TMC5072_TF
 2321              		.loc 1 417 5 is_stmt 0 view .LVU815
 2322 0770 FFF7FEFF 		bl	tmc5072_readInt
 2323              	.LVL282:
 2324 0774 2B68     		ldr	r3, [r5]
 2325 0776 1B02     		lsls	r3, r3, #8
 2326 0778 03F40063 		and	r3, r3, #2048
 2327 077c 20F40062 		bic	r2, r0, #2048
 2328 0780 1A43     		orrs	r2, r2, r3
 2329 0782 9248     		ldr	r0, .L178
 2330 0784 3146     		mov	r1, r6
 2331 0786 FFF7FEFF 		bl	tmc5072_writeInt
 2332              	.LVL283:
 418:boards/TMC5072_eval.c **** 			}
 2333              		.loc 1 418 5 is_stmt 1 view .LVU816
 2334              	.LBB391:
 2335              	.LBI391:
  41:boards/TMC5072_eval.c **** {
 2336              		.loc 1 41 31 view .LVU817
  41:boards/TMC5072_eval.c **** {
 2337              		.loc 1 41 31 is_stmt 0 view .LVU818
 2338              	.LBE391:
  43:boards/TMC5072_eval.c **** 
 2339              		.loc 1 43 2 is_stmt 1 view .LVU819
  45:boards/TMC5072_eval.c **** }
 2340              		.loc 1 45 2 view .LVU820
 2341              	.LBB392:
 2342              	.LBI392:
  41:boards/TMC5072_eval.c **** {
 2343              		.loc 1 41 31 view .LVU821
  41:boards/TMC5072_eval.c **** {
 2344              		.loc 1 41 31 is_stmt 0 view .LVU822
 2345              	.LBE392:
  43:boards/TMC5072_eval.c **** 
 2346              		.loc 1 43 2 is_stmt 1 view .LVU823
  45:boards/TMC5072_eval.c **** }
 2347              		.loc 1 45 2 view .LVU824
 418:boards/TMC5072_eval.c **** 			}
 2348              		.loc 1 418 5 is_stmt 0 view .LVU825
 2349 078a 3146     		mov	r1, r6
 2350 078c 8F48     		ldr	r0, .L178
 2351 078e FFF7FEFF 		bl	tmc5072_readInt
 2352              	.LVL284:
 2353 0792 2B68     		ldr	r3, [r5]
 2354 0794 1B01     		lsls	r3, r3, #4
 2355 0796 03F07003 		and	r3, r3, #112
 2356 079a 20F07002 		bic	r2, r0, #112
 2357 079e 1A43     		orrs	r2, r2, r3
 2358 07a0 8A48     		ldr	r0, .L178
 2359 07a2 3146     		mov	r1, r6
 2360 07a4 FFF7FEFF 		bl	tmc5072_writeInt
 2361              	.LVL285:
 124:boards/TMC5072_eval.c **** 	int tempValue;
 2362              		.loc 1 124 11 view .LVU826
 2363 07a8 3C46     		mov	r4, r7
 2364 07aa 6AE4     		b	.L18
 2365              	.LVL286:
 2366              	.L41:
 424:boards/TMC5072_eval.c **** 		if(readWrite == READ) {
 2367              		.loc 1 424 3 is_stmt 1 view .LVU827
 2368              	.LBB393:
 2369              	.LBI393:
  41:boards/TMC5072_eval.c **** {
 2370              		.loc 1 41 31 view .LVU828
  41:boards/TMC5072_eval.c **** {
 2371              		.loc 1 41 31 is_stmt 0 view .LVU829
 2372              	.LBE393:
  43:boards/TMC5072_eval.c **** 
 2373              		.loc 1 43 2 is_stmt 1 view .LVU830
  45:boards/TMC5072_eval.c **** }
 2374              		.loc 1 45 2 view .LVU831
 424:boards/TMC5072_eval.c **** 		if(readWrite == READ) {
 2375              		.loc 1 424 15 is_stmt 0 view .LVU832
 2376 07ac 0901     		lsls	r1, r1, #4
 2377              	.LVL287:
 424:boards/TMC5072_eval.c **** 		if(readWrite == READ) {
 2378              		.loc 1 424 15 view .LVU833
 2379 07ae 41F06C06 		orr	r6, r1, #108
 2380 07b2 F6B2     		uxtb	r6, r6
 2381 07b4 3146     		mov	r1, r6
 2382 07b6 8548     		ldr	r0, .L178
 2383              	.LVL288:
 424:boards/TMC5072_eval.c **** 		if(readWrite == READ) {
 2384              		.loc 1 424 15 view .LVU834
 2385 07b8 FFF7FEFF 		bl	tmc5072_readInt
 2386              	.LVL289:
 428:boards/TMC5072_eval.c **** 			}
 2387              		.loc 1 428 14 view .LVU835
 2388 07bc 3146     		mov	r1, r6
 424:boards/TMC5072_eval.c **** 		if(readWrite == READ) {
 2389              		.loc 1 424 13 view .LVU836
 2390 07be C0F38037 		ubfx	r7, r0, #14, #1
 2391              	.LVL290:
 425:boards/TMC5072_eval.c **** 			if(tempValue)
 2392              		.loc 1 425 3 is_stmt 1 view .LVU837
 428:boards/TMC5072_eval.c **** 			}
 2393              		.loc 1 428 14 is_stmt 0 view .LVU838
 2394 07c2 8248     		ldr	r0, .L178
 425:boards/TMC5072_eval.c **** 			if(tempValue)
 2395              		.loc 1 425 5 view .LVU839
 2396 07c4 B4B9     		cbnz	r4, .L123
 426:boards/TMC5072_eval.c **** 			{
 2397              		.loc 1 426 4 is_stmt 1 view .LVU840
 426:boards/TMC5072_eval.c **** 			{
 2398              		.loc 1 426 6 is_stmt 0 view .LVU841
 2399 07c6 2FB1     		cbz	r7, .L124
 428:boards/TMC5072_eval.c **** 			}
 2400              		.loc 1 428 5 is_stmt 1 view .LVU842
 2401              	.LBB394:
 2402              	.LBI394:
  41:boards/TMC5072_eval.c **** {
 2403              		.loc 1 41 31 view .LVU843
 2404              	.LVL291:
  41:boards/TMC5072_eval.c **** {
 2405              		.loc 1 41 31 is_stmt 0 view .LVU844
 2406              	.LBE394:
  43:boards/TMC5072_eval.c **** 
 2407              		.loc 1 43 2 is_stmt 1 view .LVU845
  45:boards/TMC5072_eval.c **** }
 2408              		.loc 1 45 2 view .LVU846
 428:boards/TMC5072_eval.c **** 			}
 2409              		.loc 1 428 14 is_stmt 0 view .LVU847
 2410 07c8 FFF7FEFF 		bl	tmc5072_readInt
 2411              	.LVL292:
 2412 07cc C0F30210 		ubfx	r0, r0, #4, #3
 428:boards/TMC5072_eval.c **** 			}
 2413              		.loc 1 428 12 view .LVU848
 2414 07d0 2860     		str	r0, [r5]
 2415 07d2 56E4     		b	.L18
 2416              	.L124:
 432:boards/TMC5072_eval.c **** 				tempValue = TMC5072_FIELD_READ(motorToIC(motor), TMC5072_CHOPCONF(motor), TMC5072_TFD_3_MASK, T
 2417              		.loc 1 432 5 is_stmt 1 view .LVU849
 2418              	.LBB395:
 2419              	.LBI395:
  41:boards/TMC5072_eval.c **** {
 2420              		.loc 1 41 31 view .LVU850
 2421              	.LVL293:
  41:boards/TMC5072_eval.c **** {
 2422              		.loc 1 41 31 is_stmt 0 view .LVU851
 2423              	.LBE395:
  43:boards/TMC5072_eval.c **** 
 2424              		.loc 1 43 2 is_stmt 1 view .LVU852
  45:boards/TMC5072_eval.c **** }
 2425              		.loc 1 45 2 view .LVU853
 432:boards/TMC5072_eval.c **** 				tempValue = TMC5072_FIELD_READ(motorToIC(motor), TMC5072_CHOPCONF(motor), TMC5072_TFD_3_MASK, T
 2426              		.loc 1 432 14 is_stmt 0 view .LVU854
 2427 07d4 FFF7FEFF 		bl	tmc5072_readInt
 2428              	.LVL294:
 2429 07d8 C0F3C310 		ubfx	r0, r0, #7, #4
 432:boards/TMC5072_eval.c **** 				tempValue = TMC5072_FIELD_READ(motorToIC(motor), TMC5072_CHOPCONF(motor), TMC5072_TFD_3_MASK, T
 2430              		.loc 1 432 12 view .LVU855
 2431 07dc 2860     		str	r0, [r5]
 433:boards/TMC5072_eval.c **** 				*value |= tempValue << 3;
 2432              		.loc 1 433 5 is_stmt 1 view .LVU856
 2433              	.LBB396:
 2434              	.LBI396:
  41:boards/TMC5072_eval.c **** {
 2435              		.loc 1 41 31 view .LVU857
 2436              	.LVL295:
  41:boards/TMC5072_eval.c **** {
 2437              		.loc 1 41 31 is_stmt 0 view .LVU858
 2438              	.LBE396:
  43:boards/TMC5072_eval.c **** 
 2439              		.loc 1 43 2 is_stmt 1 view .LVU859
  45:boards/TMC5072_eval.c **** }
 2440              		.loc 1 45 2 view .LVU860
 433:boards/TMC5072_eval.c **** 				*value |= tempValue << 3;
 2441              		.loc 1 433 17 is_stmt 0 view .LVU861
 2442 07de 3146     		mov	r1, r6
 2443 07e0 7A48     		ldr	r0, .L178
 2444 07e2 FFF7FEFF 		bl	tmc5072_readInt
 2445              	.LVL296:
 434:boards/TMC5072_eval.c **** 			}
 2446              		.loc 1 434 5 is_stmt 1 view .LVU862
 434:boards/TMC5072_eval.c **** 			}
 2447              		.loc 1 434 12 is_stmt 0 view .LVU863
 2448 07e6 2B68     		ldr	r3, [r5]
 434:boards/TMC5072_eval.c **** 			}
 2449              		.loc 1 434 25 view .LVU864
 2450 07e8 000A     		lsrs	r0, r0, #8
 2451              	.LVL297:
 434:boards/TMC5072_eval.c **** 			}
 2452              		.loc 1 434 25 view .LVU865
 2453 07ea 00F00800 		and	r0, r0, #8
 434:boards/TMC5072_eval.c **** 			}
 2454              		.loc 1 434 12 view .LVU866
 2455 07ee 1843     		orrs	r0, r0, r3
 2456 07f0 2860     		str	r0, [r5]
 2457 07f2 46E4     		b	.L18
 2458              	.LVL298:
 2459              	.L123:
 436:boards/TMC5072_eval.c **** 			if(tempValue)
 2460              		.loc 1 436 10 is_stmt 1 view .LVU867
 437:boards/TMC5072_eval.c **** 			{
 2461              		.loc 1 437 4 view .LVU868
 437:boards/TMC5072_eval.c **** 			{
 2462              		.loc 1 437 6 is_stmt 0 view .LVU869
 2463 07f4 77B1     		cbz	r7, .L125
 439:boards/TMC5072_eval.c **** 			}
 2464              		.loc 1 439 5 is_stmt 1 view .LVU870
 2465              	.LBB397:
 2466              	.LBI397:
  41:boards/TMC5072_eval.c **** {
 2467              		.loc 1 41 31 view .LVU871
 2468              	.LVL299:
  41:boards/TMC5072_eval.c **** {
 2469              		.loc 1 41 31 is_stmt 0 view .LVU872
 2470              	.LBE397:
  43:boards/TMC5072_eval.c **** 
 2471              		.loc 1 43 2 is_stmt 1 view .LVU873
  45:boards/TMC5072_eval.c **** }
 2472              		.loc 1 45 2 view .LVU874
 2473              	.LBB398:
 2474              	.LBI398:
  41:boards/TMC5072_eval.c **** {
 2475              		.loc 1 41 31 view .LVU875
  41:boards/TMC5072_eval.c **** {
 2476              		.loc 1 41 31 is_stmt 0 view .LVU876
 2477              	.LBE398:
  43:boards/TMC5072_eval.c **** 
 2478              		.loc 1 43 2 is_stmt 1 view .LVU877
  45:boards/TMC5072_eval.c **** }
 2479              		.loc 1 45 2 view .LVU878
 439:boards/TMC5072_eval.c **** 			}
 2480              		.loc 1 439 5 is_stmt 0 view .LVU879
 2481 07f6 FFF7FEFF 		bl	tmc5072_readInt
 2482              	.LVL300:
 2483 07fa 2B68     		ldr	r3, [r5]
 2484 07fc 1B01     		lsls	r3, r3, #4
 2485 07fe 03F07003 		and	r3, r3, #112
 2486 0802 20F07002 		bic	r2, r0, #112
 2487 0806 1A43     		orrs	r2, r2, r3
 2488 0808 7048     		ldr	r0, .L178
 2489 080a 3146     		mov	r1, r6
 2490 080c FFF7FEFF 		bl	tmc5072_writeInt
 2491              	.LVL301:
 124:boards/TMC5072_eval.c **** 	int tempValue;
 2492              		.loc 1 124 11 view .LVU880
 2493 0810 0024     		movs	r4, #0
 2494 0812 36E4     		b	.L18
 2495              	.L125:
 443:boards/TMC5072_eval.c **** 			}
 2496              		.loc 1 443 5 is_stmt 1 view .LVU881
 2497              	.LBB399:
 2498              	.LBI399:
  41:boards/TMC5072_eval.c **** {
 2499              		.loc 1 41 31 view .LVU882
 2500              	.LVL302:
  41:boards/TMC5072_eval.c **** {
 2501              		.loc 1 41 31 is_stmt 0 view .LVU883
 2502              	.LBE399:
  43:boards/TMC5072_eval.c **** 
 2503              		.loc 1 43 2 is_stmt 1 view .LVU884
  45:boards/TMC5072_eval.c **** }
 2504              		.loc 1 45 2 view .LVU885
 2505              	.LBB400:
 2506              	.LBI400:
  41:boards/TMC5072_eval.c **** {
 2507              		.loc 1 41 31 view .LVU886
  41:boards/TMC5072_eval.c **** {
 2508              		.loc 1 41 31 is_stmt 0 view .LVU887
 2509              	.LBE400:
  43:boards/TMC5072_eval.c **** 
 2510              		.loc 1 43 2 is_stmt 1 view .LVU888
  45:boards/TMC5072_eval.c **** }
 2511              		.loc 1 45 2 view .LVU889
 443:boards/TMC5072_eval.c **** 			}
 2512              		.loc 1 443 5 is_stmt 0 view .LVU890
 2513 0814 FFF7FEFF 		bl	tmc5072_readInt
 2514              	.LVL303:
 2515 0818 2B68     		ldr	r3, [r5]
 2516 081a DB01     		lsls	r3, r3, #7
 2517 081c 03F4F063 		and	r3, r3, #1920
 2518 0820 20F4F062 		bic	r2, r0, #1920
 2519 0824 1A43     		orrs	r2, r2, r3
 2520 0826 6948     		ldr	r0, .L178
 2521 0828 3146     		mov	r1, r6
 2522 082a FFF7FEFF 		bl	tmc5072_writeInt
 2523              	.LVL304:
 124:boards/TMC5072_eval.c **** 	int tempValue;
 2524              		.loc 1 124 11 view .LVU891
 2525 082e 3C46     		mov	r4, r7
 2526 0830 27E4     		b	.L18
 2527              	.LVL305:
 2528              	.L40:
 449:boards/TMC5072_eval.c **** 			*value = TMC5072_FIELD_READ(motorToIC(motor), TMC5072_CHOPCONF(motor), TMC5072_TOFF_MASK, TMC507
 2529              		.loc 1 449 3 is_stmt 1 view .LVU892
 2530 0832 0901     		lsls	r1, r1, #4
 2531              	.LVL306:
 449:boards/TMC5072_eval.c **** 			*value = TMC5072_FIELD_READ(motorToIC(motor), TMC5072_CHOPCONF(motor), TMC5072_TOFF_MASK, TMC507
 2532              		.loc 1 449 3 is_stmt 0 view .LVU893
 2533 0834 41F06C06 		orr	r6, r1, #108
 2534 0838 F6B2     		uxtb	r6, r6
 450:boards/TMC5072_eval.c **** 		} else if(readWrite == WRITE) {
 2535              		.loc 1 450 13 view .LVU894
 2536 083a 6448     		ldr	r0, .L178
 2537              	.LVL307:
 450:boards/TMC5072_eval.c **** 		} else if(readWrite == WRITE) {
 2538              		.loc 1 450 13 view .LVU895
 2539 083c 3146     		mov	r1, r6
 449:boards/TMC5072_eval.c **** 			*value = TMC5072_FIELD_READ(motorToIC(motor), TMC5072_CHOPCONF(motor), TMC5072_TOFF_MASK, TMC507
 2540              		.loc 1 449 5 view .LVU896
 2541 083e 2CB9     		cbnz	r4, .L126
 450:boards/TMC5072_eval.c **** 		} else if(readWrite == WRITE) {
 2542              		.loc 1 450 4 is_stmt 1 view .LVU897
 2543              	.LBB401:
 2544              	.LBI401:
  41:boards/TMC5072_eval.c **** {
 2545              		.loc 1 41 31 view .LVU898
 2546              	.LVL308:
  41:boards/TMC5072_eval.c **** {
 2547              		.loc 1 41 31 is_stmt 0 view .LVU899
 2548              	.LBE401:
  43:boards/TMC5072_eval.c **** 
 2549              		.loc 1 43 2 is_stmt 1 view .LVU900
  45:boards/TMC5072_eval.c **** }
 2550              		.loc 1 45 2 view .LVU901
 450:boards/TMC5072_eval.c **** 		} else if(readWrite == WRITE) {
 2551              		.loc 1 450 13 is_stmt 0 view .LVU902
 2552 0840 FFF7FEFF 		bl	tmc5072_readInt
 2553              	.LVL309:
 2554 0844 00F00F00 		and	r0, r0, #15
 450:boards/TMC5072_eval.c **** 		} else if(readWrite == WRITE) {
 2555              		.loc 1 450 11 view .LVU903
 2556 0848 2860     		str	r0, [r5]
 2557 084a 1AE4     		b	.L18
 2558              	.L126:
 451:boards/TMC5072_eval.c **** 			TMC5072_FIELD_WRITE(motorToIC(motor), TMC5072_CHOPCONF(motor), TMC5072_TOFF_MASK, TMC5072_TOFF_S
 2559              		.loc 1 451 10 is_stmt 1 view .LVU904
 452:boards/TMC5072_eval.c **** 		}
 2560              		.loc 1 452 4 view .LVU905
 2561              	.LBB402:
 2562              	.LBI402:
  41:boards/TMC5072_eval.c **** {
 2563              		.loc 1 41 31 view .LVU906
 2564              	.LVL310:
  41:boards/TMC5072_eval.c **** {
 2565              		.loc 1 41 31 is_stmt 0 view .LVU907
 2566              	.LBE402:
  43:boards/TMC5072_eval.c **** 
 2567              		.loc 1 43 2 is_stmt 1 view .LVU908
  45:boards/TMC5072_eval.c **** }
 2568              		.loc 1 45 2 view .LVU909
 2569              	.LBB403:
 2570              	.LBI403:
  41:boards/TMC5072_eval.c **** {
 2571              		.loc 1 41 31 view .LVU910
  41:boards/TMC5072_eval.c **** {
 2572              		.loc 1 41 31 is_stmt 0 view .LVU911
 2573              	.LBE403:
  43:boards/TMC5072_eval.c **** 
 2574              		.loc 1 43 2 is_stmt 1 view .LVU912
  45:boards/TMC5072_eval.c **** }
 2575              		.loc 1 45 2 view .LVU913
 452:boards/TMC5072_eval.c **** 		}
 2576              		.loc 1 452 4 is_stmt 0 view .LVU914
 2577 084c FFF7FEFF 		bl	tmc5072_readInt
 2578              	.LVL311:
 2579 0850 2A68     		ldr	r2, [r5]
 2580 0852 20F00F00 		bic	r0, r0, #15
 2581 0856 02F00F02 		and	r2, r2, #15
 2582 085a 0243     		orrs	r2, r2, r0
 2583 085c 3146     		mov	r1, r6
 2584 085e 5B48     		ldr	r0, .L178
 2585 0860 FFF7FEFF 		bl	tmc5072_writeInt
 2586              	.LVL312:
 124:boards/TMC5072_eval.c **** 	int tempValue;
 2587              		.loc 1 124 11 view .LVU915
 2588 0864 0024     		movs	r4, #0
 2589 0866 0CE4     		b	.L18
 2590              	.LVL313:
 2591              	.L39:
 457:boards/TMC5072_eval.c **** 			*value = TMC5072_FIELD_READ(motorToIC(motor), TMC5072_COOLCONF(motor), TMC5072_SEIMIN_MASK, TMC5
 2592              		.loc 1 457 3 is_stmt 1 view .LVU916
 2593 0868 0901     		lsls	r1, r1, #4
 2594              	.LVL314:
 457:boards/TMC5072_eval.c **** 			*value = TMC5072_FIELD_READ(motorToIC(motor), TMC5072_COOLCONF(motor), TMC5072_SEIMIN_MASK, TMC5
 2595              		.loc 1 457 3 is_stmt 0 view .LVU917
 2596 086a 41F06D06 		orr	r6, r1, #109
 2597 086e F6B2     		uxtb	r6, r6
 458:boards/TMC5072_eval.c **** 		} else if(readWrite == WRITE) {
 2598              		.loc 1 458 13 view .LVU918
 2599 0870 5648     		ldr	r0, .L178
 2600              	.LVL315:
 458:boards/TMC5072_eval.c **** 		} else if(readWrite == WRITE) {
 2601              		.loc 1 458 13 view .LVU919
 2602 0872 3146     		mov	r1, r6
 457:boards/TMC5072_eval.c **** 			*value = TMC5072_FIELD_READ(motorToIC(motor), TMC5072_COOLCONF(motor), TMC5072_SEIMIN_MASK, TMC5
 2603              		.loc 1 457 5 view .LVU920
 2604 0874 34B9     		cbnz	r4, .L127
 458:boards/TMC5072_eval.c **** 		} else if(readWrite == WRITE) {
 2605              		.loc 1 458 4 is_stmt 1 view .LVU921
 2606              	.LBB404:
 2607              	.LBI404:
  41:boards/TMC5072_eval.c **** {
 2608              		.loc 1 41 31 view .LVU922
 2609              	.LVL316:
  41:boards/TMC5072_eval.c **** {
 2610              		.loc 1 41 31 is_stmt 0 view .LVU923
 2611              	.LBE404:
  43:boards/TMC5072_eval.c **** 
 2612              		.loc 1 43 2 is_stmt 1 view .LVU924
  45:boards/TMC5072_eval.c **** }
 2613              		.loc 1 45 2 view .LVU925
 458:boards/TMC5072_eval.c **** 		} else if(readWrite == WRITE) {
 2614              		.loc 1 458 13 is_stmt 0 view .LVU926
 2615 0876 FFF7FEFF 		bl	tmc5072_readInt
 2616              	.LVL317:
 2617 087a C0F3C030 		ubfx	r0, r0, #15, #1
 458:boards/TMC5072_eval.c **** 		} else if(readWrite == WRITE) {
 2618              		.loc 1 458 11 view .LVU927
 2619 087e 2860     		str	r0, [r5]
 2620 0880 FFF7FFBB 		b	.L18
 2621              	.L127:
 459:boards/TMC5072_eval.c **** 			TMC5072_FIELD_WRITE(motorToIC(motor), TMC5072_COOLCONF(motor), TMC5072_SEIMIN_MASK, TMC5072_SEIM
 2622              		.loc 1 459 10 is_stmt 1 view .LVU928
 460:boards/TMC5072_eval.c **** 		}
 2623              		.loc 1 460 4 view .LVU929
 2624              	.LBB405:
 2625              	.LBI405:
  41:boards/TMC5072_eval.c **** {
 2626              		.loc 1 41 31 view .LVU930
 2627              	.LVL318:
  41:boards/TMC5072_eval.c **** {
 2628              		.loc 1 41 31 is_stmt 0 view .LVU931
 2629              	.LBE405:
  43:boards/TMC5072_eval.c **** 
 2630              		.loc 1 43 2 is_stmt 1 view .LVU932
  45:boards/TMC5072_eval.c **** }
 2631              		.loc 1 45 2 view .LVU933
 2632              	.LBB406:
 2633              	.LBI406:
  41:boards/TMC5072_eval.c **** {
 2634              		.loc 1 41 31 view .LVU934
  41:boards/TMC5072_eval.c **** {
 2635              		.loc 1 41 31 is_stmt 0 view .LVU935
 2636              	.LBE406:
  43:boards/TMC5072_eval.c **** 
 2637              		.loc 1 43 2 is_stmt 1 view .LVU936
  45:boards/TMC5072_eval.c **** }
 2638              		.loc 1 45 2 view .LVU937
 460:boards/TMC5072_eval.c **** 		}
 2639              		.loc 1 460 4 is_stmt 0 view .LVU938
 2640 0884 FFF7FEFF 		bl	tmc5072_readInt
 2641              	.LVL319:
 2642 0888 2B68     		ldr	r3, [r5]
 2643 088a DB03     		lsls	r3, r3, #15
 2644 088c 9BB2     		uxth	r3, r3
 2645 088e 20F40042 		bic	r2, r0, #32768
 2646 0892 1A43     		orrs	r2, r2, r3
 2647 0894 4D48     		ldr	r0, .L178
 2648 0896 3146     		mov	r1, r6
 2649 0898 FFF7FEFF 		bl	tmc5072_writeInt
 2650              	.LVL320:
 124:boards/TMC5072_eval.c **** 	int tempValue;
 2651              		.loc 1 124 11 view .LVU939
 2652 089c 0024     		movs	r4, #0
 2653 089e FFF7F0BB 		b	.L18
 2654              	.LVL321:
 2655              	.L38:
 465:boards/TMC5072_eval.c **** 			*value = TMC5072_FIELD_READ(motorToIC(motor), TMC5072_COOLCONF(motor), TMC5072_SEDN_MASK, TMC507
 2656              		.loc 1 465 3 is_stmt 1 view .LVU940
 2657 08a2 0901     		lsls	r1, r1, #4
 2658              	.LVL322:
 465:boards/TMC5072_eval.c **** 			*value = TMC5072_FIELD_READ(motorToIC(motor), TMC5072_COOLCONF(motor), TMC5072_SEDN_MASK, TMC507
 2659              		.loc 1 465 3 is_stmt 0 view .LVU941
 2660 08a4 41F06D06 		orr	r6, r1, #109
 2661 08a8 F6B2     		uxtb	r6, r6
 466:boards/TMC5072_eval.c **** 		} else if(readWrite == WRITE) {
 2662              		.loc 1 466 13 view .LVU942
 2663 08aa 4848     		ldr	r0, .L178
 2664              	.LVL323:
 466:boards/TMC5072_eval.c **** 		} else if(readWrite == WRITE) {
 2665              		.loc 1 466 13 view .LVU943
 2666 08ac 3146     		mov	r1, r6
 465:boards/TMC5072_eval.c **** 			*value = TMC5072_FIELD_READ(motorToIC(motor), TMC5072_COOLCONF(motor), TMC5072_SEDN_MASK, TMC507
 2667              		.loc 1 465 5 view .LVU944
 2668 08ae 34B9     		cbnz	r4, .L128
 466:boards/TMC5072_eval.c **** 		} else if(readWrite == WRITE) {
 2669              		.loc 1 466 4 is_stmt 1 view .LVU945
 2670              	.LBB407:
 2671              	.LBI407:
  41:boards/TMC5072_eval.c **** {
 2672              		.loc 1 41 31 view .LVU946
 2673              	.LVL324:
  41:boards/TMC5072_eval.c **** {
 2674              		.loc 1 41 31 is_stmt 0 view .LVU947
 2675              	.LBE407:
  43:boards/TMC5072_eval.c **** 
 2676              		.loc 1 43 2 is_stmt 1 view .LVU948
  45:boards/TMC5072_eval.c **** }
 2677              		.loc 1 45 2 view .LVU949
 466:boards/TMC5072_eval.c **** 		} else if(readWrite == WRITE) {
 2678              		.loc 1 466 13 is_stmt 0 view .LVU950
 2679 08b0 FFF7FEFF 		bl	tmc5072_readInt
 2680              	.LVL325:
 2681 08b4 C0F34130 		ubfx	r0, r0, #13, #2
 466:boards/TMC5072_eval.c **** 		} else if(readWrite == WRITE) {
 2682              		.loc 1 466 11 view .LVU951
 2683 08b8 2860     		str	r0, [r5]
 2684 08ba FFF7E2BB 		b	.L18
 2685              	.L128:
 467:boards/TMC5072_eval.c **** 			TMC5072_FIELD_WRITE(motorToIC(motor), TMC5072_COOLCONF(motor), TMC5072_SEDN_MASK, TMC5072_SEDN_S
 2686              		.loc 1 467 10 is_stmt 1 view .LVU952
 468:boards/TMC5072_eval.c **** 		}
 2687              		.loc 1 468 4 view .LVU953
 2688              	.LBB408:
 2689              	.LBI408:
  41:boards/TMC5072_eval.c **** {
 2690              		.loc 1 41 31 view .LVU954
 2691              	.LVL326:
  41:boards/TMC5072_eval.c **** {
 2692              		.loc 1 41 31 is_stmt 0 view .LVU955
 2693              	.LBE408:
  43:boards/TMC5072_eval.c **** 
 2694              		.loc 1 43 2 is_stmt 1 view .LVU956
  45:boards/TMC5072_eval.c **** }
 2695              		.loc 1 45 2 view .LVU957
 2696              	.LBB409:
 2697              	.LBI409:
  41:boards/TMC5072_eval.c **** {
 2698              		.loc 1 41 31 view .LVU958
  41:boards/TMC5072_eval.c **** {
 2699              		.loc 1 41 31 is_stmt 0 view .LVU959
 2700              	.LBE409:
  43:boards/TMC5072_eval.c **** 
 2701              		.loc 1 43 2 is_stmt 1 view .LVU960
  45:boards/TMC5072_eval.c **** }
 2702              		.loc 1 45 2 view .LVU961
 468:boards/TMC5072_eval.c **** 		}
 2703              		.loc 1 468 4 is_stmt 0 view .LVU962
 2704 08be FFF7FEFF 		bl	tmc5072_readInt
 2705              	.LVL327:
 2706 08c2 2B68     		ldr	r3, [r5]
 2707 08c4 5B03     		lsls	r3, r3, #13
 2708 08c6 03F4C043 		and	r3, r3, #24576
 2709 08ca 20F4C042 		bic	r2, r0, #24576
 2710 08ce 1A43     		orrs	r2, r2, r3
 2711 08d0 3E48     		ldr	r0, .L178
 2712 08d2 3146     		mov	r1, r6
 2713 08d4 FFF7FEFF 		bl	tmc5072_writeInt
 2714              	.LVL328:
 124:boards/TMC5072_eval.c **** 	int tempValue;
 2715              		.loc 1 124 11 view .LVU963
 2716 08d8 0024     		movs	r4, #0
 2717 08da FFF7D2BB 		b	.L18
 2718              	.LVL329:
 2719              	.L37:
 473:boards/TMC5072_eval.c **** 			*value = TMC5072_FIELD_READ(motorToIC(motor), TMC5072_COOLCONF(motor), TMC5072_SEMAX_MASK, TMC50
 2720              		.loc 1 473 3 is_stmt 1 view .LVU964
 2721 08de 0901     		lsls	r1, r1, #4
 2722              	.LVL330:
 473:boards/TMC5072_eval.c **** 			*value = TMC5072_FIELD_READ(motorToIC(motor), TMC5072_COOLCONF(motor), TMC5072_SEMAX_MASK, TMC50
 2723              		.loc 1 473 3 is_stmt 0 view .LVU965
 2724 08e0 41F06D06 		orr	r6, r1, #109
 2725 08e4 F6B2     		uxtb	r6, r6
 474:boards/TMC5072_eval.c **** 		} else if(readWrite == WRITE) {
 2726              		.loc 1 474 13 view .LVU966
 2727 08e6 3948     		ldr	r0, .L178
 2728              	.LVL331:
 474:boards/TMC5072_eval.c **** 		} else if(readWrite == WRITE) {
 2729              		.loc 1 474 13 view .LVU967
 2730 08e8 3146     		mov	r1, r6
 473:boards/TMC5072_eval.c **** 			*value = TMC5072_FIELD_READ(motorToIC(motor), TMC5072_COOLCONF(motor), TMC5072_SEMAX_MASK, TMC50
 2731              		.loc 1 473 5 view .LVU968
 2732 08ea 34B9     		cbnz	r4, .L129
 474:boards/TMC5072_eval.c **** 		} else if(readWrite == WRITE) {
 2733              		.loc 1 474 4 is_stmt 1 view .LVU969
 2734              	.LBB410:
 2735              	.LBI410:
  41:boards/TMC5072_eval.c **** {
 2736              		.loc 1 41 31 view .LVU970
 2737              	.LVL332:
  41:boards/TMC5072_eval.c **** {
 2738              		.loc 1 41 31 is_stmt 0 view .LVU971
 2739              	.LBE410:
  43:boards/TMC5072_eval.c **** 
 2740              		.loc 1 43 2 is_stmt 1 view .LVU972
  45:boards/TMC5072_eval.c **** }
 2741              		.loc 1 45 2 view .LVU973
 474:boards/TMC5072_eval.c **** 		} else if(readWrite == WRITE) {
 2742              		.loc 1 474 13 is_stmt 0 view .LVU974
 2743 08ec FFF7FEFF 		bl	tmc5072_readInt
 2744              	.LVL333:
 2745 08f0 C0F30320 		ubfx	r0, r0, #8, #4
 474:boards/TMC5072_eval.c **** 		} else if(readWrite == WRITE) {
 2746              		.loc 1 474 11 view .LVU975
 2747 08f4 2860     		str	r0, [r5]
 2748 08f6 FFF7C4BB 		b	.L18
 2749              	.L129:
 475:boards/TMC5072_eval.c **** 			TMC5072_FIELD_WRITE(motorToIC(motor), TMC5072_COOLCONF(motor), TMC5072_SEMAX_MASK, TMC5072_SEMAX
 2750              		.loc 1 475 10 is_stmt 1 view .LVU976
 476:boards/TMC5072_eval.c **** 		}
 2751              		.loc 1 476 4 view .LVU977
 2752              	.LBB411:
 2753              	.LBI411:
  41:boards/TMC5072_eval.c **** {
 2754              		.loc 1 41 31 view .LVU978
 2755              	.LVL334:
  41:boards/TMC5072_eval.c **** {
 2756              		.loc 1 41 31 is_stmt 0 view .LVU979
 2757              	.LBE411:
  43:boards/TMC5072_eval.c **** 
 2758              		.loc 1 43 2 is_stmt 1 view .LVU980
  45:boards/TMC5072_eval.c **** }
 2759              		.loc 1 45 2 view .LVU981
 2760              	.LBB412:
 2761              	.LBI412:
  41:boards/TMC5072_eval.c **** {
 2762              		.loc 1 41 31 view .LVU982
  41:boards/TMC5072_eval.c **** {
 2763              		.loc 1 41 31 is_stmt 0 view .LVU983
 2764              	.LBE412:
  43:boards/TMC5072_eval.c **** 
 2765              		.loc 1 43 2 is_stmt 1 view .LVU984
  45:boards/TMC5072_eval.c **** }
 2766              		.loc 1 45 2 view .LVU985
 476:boards/TMC5072_eval.c **** 		}
 2767              		.loc 1 476 4 is_stmt 0 view .LVU986
 2768 08fa FFF7FEFF 		bl	tmc5072_readInt
 2769              	.LVL335:
 2770 08fe 2B68     		ldr	r3, [r5]
 2771 0900 1B02     		lsls	r3, r3, #8
 2772 0902 03F47063 		and	r3, r3, #3840
 2773 0906 20F47062 		bic	r2, r0, #3840
 2774 090a 1A43     		orrs	r2, r2, r3
 2775 090c 2F48     		ldr	r0, .L178
 2776 090e 3146     		mov	r1, r6
 2777 0910 FFF7FEFF 		bl	tmc5072_writeInt
 2778              	.LVL336:
 124:boards/TMC5072_eval.c **** 	int tempValue;
 2779              		.loc 1 124 11 view .LVU987
 2780 0914 0024     		movs	r4, #0
 2781 0916 FFF7B4BB 		b	.L18
 2782              	.LVL337:
 2783              	.L36:
 481:boards/TMC5072_eval.c **** 			*value = TMC5072_FIELD_READ(motorToIC(motor), TMC5072_COOLCONF(motor), TMC5072_SEUP_MASK, TMC507
 2784              		.loc 1 481 3 is_stmt 1 view .LVU988
 2785 091a 0901     		lsls	r1, r1, #4
 2786              	.LVL338:
 481:boards/TMC5072_eval.c **** 			*value = TMC5072_FIELD_READ(motorToIC(motor), TMC5072_COOLCONF(motor), TMC5072_SEUP_MASK, TMC507
 2787              		.loc 1 481 3 is_stmt 0 view .LVU989
 2788 091c 41F06D06 		orr	r6, r1, #109
 2789 0920 F6B2     		uxtb	r6, r6
 482:boards/TMC5072_eval.c **** 		} else if(readWrite == WRITE) {
 2790              		.loc 1 482 13 view .LVU990
 2791 0922 2A48     		ldr	r0, .L178
 2792              	.LVL339:
 482:boards/TMC5072_eval.c **** 		} else if(readWrite == WRITE) {
 2793              		.loc 1 482 13 view .LVU991
 2794 0924 3146     		mov	r1, r6
 481:boards/TMC5072_eval.c **** 			*value = TMC5072_FIELD_READ(motorToIC(motor), TMC5072_COOLCONF(motor), TMC5072_SEUP_MASK, TMC507
 2795              		.loc 1 481 5 view .LVU992
 2796 0926 34B9     		cbnz	r4, .L130
 482:boards/TMC5072_eval.c **** 		} else if(readWrite == WRITE) {
 2797              		.loc 1 482 4 is_stmt 1 view .LVU993
 2798              	.LBB413:
 2799              	.LBI413:
  41:boards/TMC5072_eval.c **** {
 2800              		.loc 1 41 31 view .LVU994
 2801              	.LVL340:
  41:boards/TMC5072_eval.c **** {
 2802              		.loc 1 41 31 is_stmt 0 view .LVU995
 2803              	.LBE413:
  43:boards/TMC5072_eval.c **** 
 2804              		.loc 1 43 2 is_stmt 1 view .LVU996
  45:boards/TMC5072_eval.c **** }
 2805              		.loc 1 45 2 view .LVU997
 482:boards/TMC5072_eval.c **** 		} else if(readWrite == WRITE) {
 2806              		.loc 1 482 13 is_stmt 0 view .LVU998
 2807 0928 FFF7FEFF 		bl	tmc5072_readInt
 2808              	.LVL341:
 2809 092c C0F34110 		ubfx	r0, r0, #5, #2
 482:boards/TMC5072_eval.c **** 		} else if(readWrite == WRITE) {
 2810              		.loc 1 482 11 view .LVU999
 2811 0930 2860     		str	r0, [r5]
 2812 0932 FFF7A6BB 		b	.L18
 2813              	.L130:
 483:boards/TMC5072_eval.c **** 			TMC5072_FIELD_WRITE(motorToIC(motor), TMC5072_COOLCONF(motor), TMC5072_SEUP_MASK, TMC5072_SEUP_S
 2814              		.loc 1 483 10 is_stmt 1 view .LVU1000
 484:boards/TMC5072_eval.c **** 		}
 2815              		.loc 1 484 4 view .LVU1001
 2816              	.LBB414:
 2817              	.LBI414:
  41:boards/TMC5072_eval.c **** {
 2818              		.loc 1 41 31 view .LVU1002
 2819              	.LVL342:
  41:boards/TMC5072_eval.c **** {
 2820              		.loc 1 41 31 is_stmt 0 view .LVU1003
 2821              	.LBE414:
  43:boards/TMC5072_eval.c **** 
 2822              		.loc 1 43 2 is_stmt 1 view .LVU1004
  45:boards/TMC5072_eval.c **** }
 2823              		.loc 1 45 2 view .LVU1005
 2824              	.LBB415:
 2825              	.LBI415:
  41:boards/TMC5072_eval.c **** {
 2826              		.loc 1 41 31 view .LVU1006
  41:boards/TMC5072_eval.c **** {
 2827              		.loc 1 41 31 is_stmt 0 view .LVU1007
 2828              	.LBE415:
  43:boards/TMC5072_eval.c **** 
 2829              		.loc 1 43 2 is_stmt 1 view .LVU1008
  45:boards/TMC5072_eval.c **** }
 2830              		.loc 1 45 2 view .LVU1009
 484:boards/TMC5072_eval.c **** 		}
 2831              		.loc 1 484 4 is_stmt 0 view .LVU1010
 2832 0936 FFF7FEFF 		bl	tmc5072_readInt
 2833              	.LVL343:
 2834 093a 2B68     		ldr	r3, [r5]
 2835 093c 5B01     		lsls	r3, r3, #5
 2836 093e 03F06003 		and	r3, r3, #96
 2837 0942 20F06002 		bic	r2, r0, #96
 2838 0946 1A43     		orrs	r2, r2, r3
 2839 0948 2048     		ldr	r0, .L178
 2840 094a 3146     		mov	r1, r6
 2841 094c FFF7FEFF 		bl	tmc5072_writeInt
 2842              	.LVL344:
 124:boards/TMC5072_eval.c **** 	int tempValue;
 2843              		.loc 1 124 11 view .LVU1011
 2844 0950 0024     		movs	r4, #0
 2845 0952 FFF796BB 		b	.L18
 2846              	.LVL345:
 2847              	.L35:
 489:boards/TMC5072_eval.c **** 			*value = TMC5072_FIELD_READ(motorToIC(motor), TMC5072_COOLCONF(motor), TMC5072_SEMIN_MASK, TMC50
 2848              		.loc 1 489 3 is_stmt 1 view .LVU1012
 2849 0956 0901     		lsls	r1, r1, #4
 2850              	.LVL346:
 489:boards/TMC5072_eval.c **** 			*value = TMC5072_FIELD_READ(motorToIC(motor), TMC5072_COOLCONF(motor), TMC5072_SEMIN_MASK, TMC50
 2851              		.loc 1 489 3 is_stmt 0 view .LVU1013
 2852 0958 41F06D06 		orr	r6, r1, #109
 2853 095c F6B2     		uxtb	r6, r6
 490:boards/TMC5072_eval.c **** 		} else if(readWrite == WRITE) {
 2854              		.loc 1 490 13 view .LVU1014
 2855 095e 1B48     		ldr	r0, .L178
 2856              	.LVL347:
 490:boards/TMC5072_eval.c **** 		} else if(readWrite == WRITE) {
 2857              		.loc 1 490 13 view .LVU1015
 2858 0960 3146     		mov	r1, r6
 489:boards/TMC5072_eval.c **** 			*value = TMC5072_FIELD_READ(motorToIC(motor), TMC5072_COOLCONF(motor), TMC5072_SEMIN_MASK, TMC50
 2859              		.loc 1 489 5 view .LVU1016
 2860 0962 34B9     		cbnz	r4, .L131
 490:boards/TMC5072_eval.c **** 		} else if(readWrite == WRITE) {
 2861              		.loc 1 490 4 is_stmt 1 view .LVU1017
 2862              	.LBB416:
 2863              	.LBI416:
  41:boards/TMC5072_eval.c **** {
 2864              		.loc 1 41 31 view .LVU1018
 2865              	.LVL348:
  41:boards/TMC5072_eval.c **** {
 2866              		.loc 1 41 31 is_stmt 0 view .LVU1019
 2867              	.LBE416:
  43:boards/TMC5072_eval.c **** 
 2868              		.loc 1 43 2 is_stmt 1 view .LVU1020
  45:boards/TMC5072_eval.c **** }
 2869              		.loc 1 45 2 view .LVU1021
 490:boards/TMC5072_eval.c **** 		} else if(readWrite == WRITE) {
 2870              		.loc 1 490 13 is_stmt 0 view .LVU1022
 2871 0964 FFF7FEFF 		bl	tmc5072_readInt
 2872              	.LVL349:
 2873 0968 00F00F00 		and	r0, r0, #15
 490:boards/TMC5072_eval.c **** 		} else if(readWrite == WRITE) {
 2874              		.loc 1 490 11 view .LVU1023
 2875 096c 2860     		str	r0, [r5]
 2876 096e FFF788BB 		b	.L18
 2877              	.L131:
 491:boards/TMC5072_eval.c **** 			TMC5072_FIELD_WRITE(motorToIC(motor), TMC5072_COOLCONF(motor), TMC5072_SEMIN_MASK, TMC5072_SEMIN
 2878              		.loc 1 491 10 is_stmt 1 view .LVU1024
 492:boards/TMC5072_eval.c **** 		}
 2879              		.loc 1 492 4 view .LVU1025
 2880              	.LBB417:
 2881              	.LBI417:
  41:boards/TMC5072_eval.c **** {
 2882              		.loc 1 41 31 view .LVU1026
 2883              	.LVL350:
  41:boards/TMC5072_eval.c **** {
 2884              		.loc 1 41 31 is_stmt 0 view .LVU1027
 2885              	.LBE417:
  43:boards/TMC5072_eval.c **** 
 2886              		.loc 1 43 2 is_stmt 1 view .LVU1028
  45:boards/TMC5072_eval.c **** }
 2887              		.loc 1 45 2 view .LVU1029
 2888              	.LBB418:
 2889              	.LBI418:
  41:boards/TMC5072_eval.c **** {
 2890              		.loc 1 41 31 view .LVU1030
  41:boards/TMC5072_eval.c **** {
 2891              		.loc 1 41 31 is_stmt 0 view .LVU1031
 2892              	.LBE418:
  43:boards/TMC5072_eval.c **** 
 2893              		.loc 1 43 2 is_stmt 1 view .LVU1032
  45:boards/TMC5072_eval.c **** }
 2894              		.loc 1 45 2 view .LVU1033
 492:boards/TMC5072_eval.c **** 		}
 2895              		.loc 1 492 4 is_stmt 0 view .LVU1034
 2896 0972 FFF7FEFF 		bl	tmc5072_readInt
 2897              	.LVL351:
 2898 0976 2A68     		ldr	r2, [r5]
 2899 0978 20F00F00 		bic	r0, r0, #15
 2900 097c 02F00F02 		and	r2, r2, #15
 2901 0980 0243     		orrs	r2, r2, r0
 2902 0982 3146     		mov	r1, r6
 2903 0984 1148     		ldr	r0, .L178
 2904 0986 FFF7FEFF 		bl	tmc5072_writeInt
 2905              	.LVL352:
 124:boards/TMC5072_eval.c **** 	int tempValue;
 2906              		.loc 1 124 11 view .LVU1035
 2907 098a 0024     		movs	r4, #0
 2908 098c FFF779BB 		b	.L18
 2909              	.LVL353:
 2910              	.L34:
 497:boards/TMC5072_eval.c **** 			*value = TMC5072_FIELD_READ(motorToIC(motor), TMC5072_COOLCONF(motor), TMC5072_SFILT_MASK, TMC50
 2911              		.loc 1 497 3 is_stmt 1 view .LVU1036
 2912 0990 0901     		lsls	r1, r1, #4
 2913              	.LVL354:
 497:boards/TMC5072_eval.c **** 			*value = TMC5072_FIELD_READ(motorToIC(motor), TMC5072_COOLCONF(motor), TMC5072_SFILT_MASK, TMC50
 2914              		.loc 1 497 3 is_stmt 0 view .LVU1037
 2915 0992 41F06D06 		orr	r6, r1, #109
 2916 0996 F6B2     		uxtb	r6, r6
 498:boards/TMC5072_eval.c **** 		} else if(readWrite == WRITE) {
 2917              		.loc 1 498 13 view .LVU1038
 2918 0998 0C48     		ldr	r0, .L178
 2919              	.LVL355:
 498:boards/TMC5072_eval.c **** 		} else if(readWrite == WRITE) {
 2920              		.loc 1 498 13 view .LVU1039
 2921 099a 3146     		mov	r1, r6
 497:boards/TMC5072_eval.c **** 			*value = TMC5072_FIELD_READ(motorToIC(motor), TMC5072_COOLCONF(motor), TMC5072_SFILT_MASK, TMC50
 2922              		.loc 1 497 5 view .LVU1040
 2923 099c 34B9     		cbnz	r4, .L132
 498:boards/TMC5072_eval.c **** 		} else if(readWrite == WRITE) {
 2924              		.loc 1 498 4 is_stmt 1 view .LVU1041
 2925              	.LBB419:
 2926              	.LBI419:
  41:boards/TMC5072_eval.c **** {
 2927              		.loc 1 41 31 view .LVU1042
 2928              	.LVL356:
  41:boards/TMC5072_eval.c **** {
 2929              		.loc 1 41 31 is_stmt 0 view .LVU1043
 2930              	.LBE419:
  43:boards/TMC5072_eval.c **** 
 2931              		.loc 1 43 2 is_stmt 1 view .LVU1044
  45:boards/TMC5072_eval.c **** }
 2932              		.loc 1 45 2 view .LVU1045
 498:boards/TMC5072_eval.c **** 		} else if(readWrite == WRITE) {
 2933              		.loc 1 498 13 is_stmt 0 view .LVU1046
 2934 099e FFF7FEFF 		bl	tmc5072_readInt
 2935              	.LVL357:
 2936 09a2 C0F30060 		ubfx	r0, r0, #24, #1
 498:boards/TMC5072_eval.c **** 		} else if(readWrite == WRITE) {
 2937              		.loc 1 498 11 view .LVU1047
 2938 09a6 2860     		str	r0, [r5]
 2939 09a8 FFF76BBB 		b	.L18
 2940              	.L132:
 499:boards/TMC5072_eval.c **** 			TMC5072_FIELD_WRITE(motorToIC(motor), TMC5072_COOLCONF(motor), TMC5072_SFILT_MASK, TMC5072_SFILT
 2941              		.loc 1 499 10 is_stmt 1 view .LVU1048
 500:boards/TMC5072_eval.c **** 		}
 2942              		.loc 1 500 4 view .LVU1049
 2943              	.LBB420:
 2944              	.LBI420:
  41:boards/TMC5072_eval.c **** {
 2945              		.loc 1 41 31 view .LVU1050
 2946              	.LVL358:
  41:boards/TMC5072_eval.c **** {
 2947              		.loc 1 41 31 is_stmt 0 view .LVU1051
 2948              	.LBE420:
  43:boards/TMC5072_eval.c **** 
 2949              		.loc 1 43 2 is_stmt 1 view .LVU1052
  45:boards/TMC5072_eval.c **** }
 2950              		.loc 1 45 2 view .LVU1053
 2951              	.LBB421:
 2952              	.LBI421:
  41:boards/TMC5072_eval.c **** {
 2953              		.loc 1 41 31 view .LVU1054
  41:boards/TMC5072_eval.c **** {
 2954              		.loc 1 41 31 is_stmt 0 view .LVU1055
 2955              	.LBE421:
  43:boards/TMC5072_eval.c **** 
 2956              		.loc 1 43 2 is_stmt 1 view .LVU1056
  45:boards/TMC5072_eval.c **** }
 2957              		.loc 1 45 2 view .LVU1057
 500:boards/TMC5072_eval.c **** 		}
 2958              		.loc 1 500 4 is_stmt 0 view .LVU1058
 2959 09ac FFF7FEFF 		bl	tmc5072_readInt
 2960              	.LVL359:
 2961 09b0 2B68     		ldr	r3, [r5]
 2962 09b2 1B06     		lsls	r3, r3, #24
 2963 09b4 03F08073 		and	r3, r3, #16777216
 2964 09b8 20F08072 		bic	r2, r0, #16777216
 2965 09bc 1A43     		orrs	r2, r2, r3
 2966 09be 0348     		ldr	r0, .L178
 2967 09c0 3146     		mov	r1, r6
 2968 09c2 FFF7FEFF 		bl	tmc5072_writeInt
 2969              	.LVL360:
 124:boards/TMC5072_eval.c **** 	int tempValue;
 2970              		.loc 1 124 11 view .LVU1059
 2971 09c6 0024     		movs	r4, #0
 2972 09c8 FFF75BBB 		b	.L18
 2973              	.L179:
 2974              		.align	2
 2975              	.L178:
 2976 09cc 00000000 		.word	.LANCHOR0
 2977              	.LVL361:
 2978              	.L33:
 505:boards/TMC5072_eval.c **** 			*value = TMC5072_FIELD_READ(motorToIC(motor), TMC5072_COOLCONF(motor), TMC5072_SGT_MASK, TMC5072
 2979              		.loc 1 505 3 is_stmt 1 view .LVU1060
 2980 09d0 0901     		lsls	r1, r1, #4
 2981              	.LVL362:
 505:boards/TMC5072_eval.c **** 			*value = TMC5072_FIELD_READ(motorToIC(motor), TMC5072_COOLCONF(motor), TMC5072_SGT_MASK, TMC5072
 2982              		.loc 1 505 3 is_stmt 0 view .LVU1061
 2983 09d2 41F06D06 		orr	r6, r1, #109
 2984 09d6 F6B2     		uxtb	r6, r6
 506:boards/TMC5072_eval.c **** 			*value = CAST_Sn_TO_S32(*value, 7);
 2985              		.loc 1 506 13 view .LVU1062
 2986 09d8 B948     		ldr	r0, .L180
 2987              	.LVL363:
 506:boards/TMC5072_eval.c **** 			*value = CAST_Sn_TO_S32(*value, 7);
 2988              		.loc 1 506 13 view .LVU1063
 2989 09da 3146     		mov	r1, r6
 505:boards/TMC5072_eval.c **** 			*value = TMC5072_FIELD_READ(motorToIC(motor), TMC5072_COOLCONF(motor), TMC5072_SGT_MASK, TMC5072
 2990              		.loc 1 505 5 view .LVU1064
 2991 09dc 6CB9     		cbnz	r4, .L133
 506:boards/TMC5072_eval.c **** 			*value = CAST_Sn_TO_S32(*value, 7);
 2992              		.loc 1 506 4 is_stmt 1 view .LVU1065
 2993              	.LBB422:
 2994              	.LBI422:
  41:boards/TMC5072_eval.c **** {
 2995              		.loc 1 41 31 view .LVU1066
 2996              	.LVL364:
  41:boards/TMC5072_eval.c **** {
 2997              		.loc 1 41 31 is_stmt 0 view .LVU1067
 2998              	.LBE422:
  43:boards/TMC5072_eval.c **** 
 2999              		.loc 1 43 2 is_stmt 1 view .LVU1068
  45:boards/TMC5072_eval.c **** }
 3000              		.loc 1 45 2 view .LVU1069
 506:boards/TMC5072_eval.c **** 			*value = CAST_Sn_TO_S32(*value, 7);
 3001              		.loc 1 506 13 is_stmt 0 view .LVU1070
 3002 09de FFF7FEFF 		bl	tmc5072_readInt
 3003              	.LVL365:
 3004 09e2 0314     		asrs	r3, r0, #16
 507:boards/TMC5072_eval.c **** 		} else if(readWrite == WRITE) {
 3005              		.loc 1 507 13 view .LVU1071
 3006 09e4 13F04003 		ands	r3, r3, #64
 506:boards/TMC5072_eval.c **** 			*value = CAST_Sn_TO_S32(*value, 7);
 3007              		.loc 1 506 13 view .LVU1072
 3008 09e8 C0F30640 		ubfx	r0, r0, #16, #7
 507:boards/TMC5072_eval.c **** 		} else if(readWrite == WRITE) {
 3009              		.loc 1 507 4 is_stmt 1 view .LVU1073
 507:boards/TMC5072_eval.c **** 		} else if(readWrite == WRITE) {
 3010              		.loc 1 507 13 is_stmt 0 view .LVU1074
 3011 09ec 18BF     		it	ne
 3012 09ee 6FF07F03 		mvnne	r3, #127
 3013 09f2 1843     		orrs	r0, r0, r3
 507:boards/TMC5072_eval.c **** 		} else if(readWrite == WRITE) {
 3014              		.loc 1 507 11 view .LVU1075
 3015 09f4 2860     		str	r0, [r5]
 3016 09f6 FFF744BB 		b	.L18
 3017              	.L133:
 508:boards/TMC5072_eval.c **** 			TMC5072_FIELD_WRITE(motorToIC(motor), TMC5072_COOLCONF(motor), TMC5072_SGT_MASK, TMC5072_SGT_SHI
 3018              		.loc 1 508 10 is_stmt 1 view .LVU1076
 509:boards/TMC5072_eval.c **** 		}
 3019              		.loc 1 509 4 view .LVU1077
 3020              	.LBB423:
 3021              	.LBI423:
  41:boards/TMC5072_eval.c **** {
 3022              		.loc 1 41 31 view .LVU1078
 3023              	.LVL366:
  41:boards/TMC5072_eval.c **** {
 3024              		.loc 1 41 31 is_stmt 0 view .LVU1079
 3025              	.LBE423:
  43:boards/TMC5072_eval.c **** 
 3026              		.loc 1 43 2 is_stmt 1 view .LVU1080
  45:boards/TMC5072_eval.c **** }
 3027              		.loc 1 45 2 view .LVU1081
 3028              	.LBB424:
 3029              	.LBI424:
  41:boards/TMC5072_eval.c **** {
 3030              		.loc 1 41 31 view .LVU1082
  41:boards/TMC5072_eval.c **** {
 3031              		.loc 1 41 31 is_stmt 0 view .LVU1083
 3032              	.LBE424:
  43:boards/TMC5072_eval.c **** 
 3033              		.loc 1 43 2 is_stmt 1 view .LVU1084
  45:boards/TMC5072_eval.c **** }
 3034              		.loc 1 45 2 view .LVU1085
 509:boards/TMC5072_eval.c **** 		}
 3035              		.loc 1 509 4 is_stmt 0 view .LVU1086
 3036 09fa FFF7FEFF 		bl	tmc5072_readInt
 3037              	.LVL367:
 3038 09fe 2B68     		ldr	r3, [r5]
 3039 0a00 1B04     		lsls	r3, r3, #16
 3040 0a02 03F4FE03 		and	r3, r3, #8323072
 3041 0a06 20F4FE02 		bic	r2, r0, #8323072
 3042 0a0a 1A43     		orrs	r2, r2, r3
 3043 0a0c AC48     		ldr	r0, .L180
 3044 0a0e 3146     		mov	r1, r6
 3045 0a10 FFF7FEFF 		bl	tmc5072_writeInt
 3046              	.LVL368:
 124:boards/TMC5072_eval.c **** 	int tempValue;
 3047              		.loc 1 124 11 view .LVU1087
 3048 0a14 0024     		movs	r4, #0
 3049 0a16 FFF734BB 		b	.L18
 3050              	.LVL369:
 3051              	.L32:
 514:boards/TMC5072_eval.c **** 			*value = TMC5072_FIELD_READ(motorToIC(motor), TMC5072_CHOPCONF(motor), TMC5072_VSENSE_MASK, TMC5
 3052              		.loc 1 514 3 is_stmt 1 view .LVU1088
 3053 0a1a 0901     		lsls	r1, r1, #4
 3054              	.LVL370:
 514:boards/TMC5072_eval.c **** 			*value = TMC5072_FIELD_READ(motorToIC(motor), TMC5072_CHOPCONF(motor), TMC5072_VSENSE_MASK, TMC5
 3055              		.loc 1 514 3 is_stmt 0 view .LVU1089
 3056 0a1c 41F06C06 		orr	r6, r1, #108
 3057 0a20 F6B2     		uxtb	r6, r6
 515:boards/TMC5072_eval.c **** 		} else if(readWrite == WRITE) {
 3058              		.loc 1 515 13 view .LVU1090
 3059 0a22 A748     		ldr	r0, .L180
 3060              	.LVL371:
 515:boards/TMC5072_eval.c **** 		} else if(readWrite == WRITE) {
 3061              		.loc 1 515 13 view .LVU1091
 3062 0a24 3146     		mov	r1, r6
 514:boards/TMC5072_eval.c **** 			*value = TMC5072_FIELD_READ(motorToIC(motor), TMC5072_CHOPCONF(motor), TMC5072_VSENSE_MASK, TMC5
 3063              		.loc 1 514 5 view .LVU1092
 3064 0a26 34B9     		cbnz	r4, .L135
 515:boards/TMC5072_eval.c **** 		} else if(readWrite == WRITE) {
 3065              		.loc 1 515 4 is_stmt 1 view .LVU1093
 3066              	.LBB425:
 3067              	.LBI425:
  41:boards/TMC5072_eval.c **** {
 3068              		.loc 1 41 31 view .LVU1094
 3069              	.LVL372:
  41:boards/TMC5072_eval.c **** {
 3070              		.loc 1 41 31 is_stmt 0 view .LVU1095
 3071              	.LBE425:
  43:boards/TMC5072_eval.c **** 
 3072              		.loc 1 43 2 is_stmt 1 view .LVU1096
  45:boards/TMC5072_eval.c **** }
 3073              		.loc 1 45 2 view .LVU1097
 515:boards/TMC5072_eval.c **** 		} else if(readWrite == WRITE) {
 3074              		.loc 1 515 13 is_stmt 0 view .LVU1098
 3075 0a28 FFF7FEFF 		bl	tmc5072_readInt
 3076              	.LVL373:
 3077 0a2c C0F34040 		ubfx	r0, r0, #17, #1
 515:boards/TMC5072_eval.c **** 		} else if(readWrite == WRITE) {
 3078              		.loc 1 515 11 view .LVU1099
 3079 0a30 2860     		str	r0, [r5]
 3080 0a32 FFF726BB 		b	.L18
 3081              	.L135:
 516:boards/TMC5072_eval.c **** 			TMC5072_FIELD_WRITE(motorToIC(motor), TMC5072_CHOPCONF(motor), TMC5072_VSENSE_MASK, TMC5072_VSEN
 3082              		.loc 1 516 10 is_stmt 1 view .LVU1100
 517:boards/TMC5072_eval.c **** 		}
 3083              		.loc 1 517 4 view .LVU1101
 3084              	.LBB426:
 3085              	.LBI426:
  41:boards/TMC5072_eval.c **** {
 3086              		.loc 1 41 31 view .LVU1102
 3087              	.LVL374:
  41:boards/TMC5072_eval.c **** {
 3088              		.loc 1 41 31 is_stmt 0 view .LVU1103
 3089              	.LBE426:
  43:boards/TMC5072_eval.c **** 
 3090              		.loc 1 43 2 is_stmt 1 view .LVU1104
  45:boards/TMC5072_eval.c **** }
 3091              		.loc 1 45 2 view .LVU1105
 3092              	.LBB427:
 3093              	.LBI427:
  41:boards/TMC5072_eval.c **** {
 3094              		.loc 1 41 31 view .LVU1106
  41:boards/TMC5072_eval.c **** {
 3095              		.loc 1 41 31 is_stmt 0 view .LVU1107
 3096              	.LBE427:
  43:boards/TMC5072_eval.c **** 
 3097              		.loc 1 43 2 is_stmt 1 view .LVU1108
  45:boards/TMC5072_eval.c **** }
 3098              		.loc 1 45 2 view .LVU1109
 517:boards/TMC5072_eval.c **** 		}
 3099              		.loc 1 517 4 is_stmt 0 view .LVU1110
 3100 0a36 FFF7FEFF 		bl	tmc5072_readInt
 3101              	.LVL375:
 3102 0a3a 2B68     		ldr	r3, [r5]
 3103 0a3c 5B04     		lsls	r3, r3, #17
 3104 0a3e 03F40033 		and	r3, r3, #131072
 3105 0a42 20F40032 		bic	r2, r0, #131072
 3106 0a46 1A43     		orrs	r2, r2, r3
 3107 0a48 9D48     		ldr	r0, .L180
 3108 0a4a 3146     		mov	r1, r6
 3109 0a4c FFF7FEFF 		bl	tmc5072_writeInt
 3110              	.LVL376:
 124:boards/TMC5072_eval.c **** 	int tempValue;
 3111              		.loc 1 124 11 view .LVU1111
 3112 0a50 0024     		movs	r4, #0
 3113 0a52 FFF716BB 		b	.L18
 3114              	.LVL377:
 3115              	.L31:
 522:boards/TMC5072_eval.c **** 			*value = TMC5072_FIELD_READ(motorToIC(motor), TMC5072_DRVSTATUS(motor), TMC5072_CS_ACTUAL_MASK, 
 3116              		.loc 1 522 3 is_stmt 1 view .LVU1112
 522:boards/TMC5072_eval.c **** 			*value = TMC5072_FIELD_READ(motorToIC(motor), TMC5072_DRVSTATUS(motor), TMC5072_CS_ACTUAL_MASK, 
 3117              		.loc 1 522 5 is_stmt 0 view .LVU1113
 3118 0a56 002C     		cmp	r4, #0
 3119 0a58 40F02B81 		bne	.L165
 523:boards/TMC5072_eval.c **** 		} else if(readWrite == WRITE) {
 3120              		.loc 1 523 4 is_stmt 1 view .LVU1114
 3121              	.LBB428:
 3122              	.LBI428:
  41:boards/TMC5072_eval.c **** {
 3123              		.loc 1 41 31 view .LVU1115
 3124              	.LVL378:
  41:boards/TMC5072_eval.c **** {
 3125              		.loc 1 41 31 is_stmt 0 view .LVU1116
 3126              	.LBE428:
  43:boards/TMC5072_eval.c **** 
 3127              		.loc 1 43 2 is_stmt 1 view .LVU1117
  45:boards/TMC5072_eval.c **** }
 3128              		.loc 1 45 2 view .LVU1118
 523:boards/TMC5072_eval.c **** 		} else if(readWrite == WRITE) {
 3129              		.loc 1 523 13 is_stmt 0 view .LVU1119
 3130 0a5c 0901     		lsls	r1, r1, #4
 3131              	.LVL379:
 523:boards/TMC5072_eval.c **** 		} else if(readWrite == WRITE) {
 3132              		.loc 1 523 13 view .LVU1120
 3133 0a5e 41F06F01 		orr	r1, r1, #111
 3134 0a62 9748     		ldr	r0, .L180
 3135              	.LVL380:
 523:boards/TMC5072_eval.c **** 		} else if(readWrite == WRITE) {
 3136              		.loc 1 523 13 view .LVU1121
 3137 0a64 C9B2     		uxtb	r1, r1
 3138 0a66 FFF7FEFF 		bl	tmc5072_readInt
 3139              	.LVL381:
 3140 0a6a C0F30440 		ubfx	r0, r0, #16, #5
 523:boards/TMC5072_eval.c **** 		} else if(readWrite == WRITE) {
 3141              		.loc 1 523 11 view .LVU1122
 3142 0a6e 2860     		str	r0, [r5]
 3143 0a70 FFF707BB 		b	.L18
 3144              	.LVL382:
 3145              	.L30:
 530:boards/TMC5072_eval.c **** 			if(TMC5072_FIELD_READ(motorToIC(motor), TMC5072_SWMODE(motor), TMC5072_SG_STOP_MASK, TMC5072_SG_
 3146              		.loc 1 530 3 is_stmt 1 view .LVU1123
 3147 0a74 2026     		movs	r6, #32
 3148 0a76 06FA01F1 		lsl	r1, r6, r1
 3149              	.LVL383:
 530:boards/TMC5072_eval.c **** 			if(TMC5072_FIELD_READ(motorToIC(motor), TMC5072_SWMODE(motor), TMC5072_SG_STOP_MASK, TMC5072_SG_
 3150              		.loc 1 530 3 is_stmt 0 view .LVU1124
 3151 0a7a 4EB2     		sxtb	r6, r1
 3152 0a7c 46F01407 		orr	r7, r6, #20
 3153 0a80 FFB2     		uxtb	r7, r7
 530:boards/TMC5072_eval.c **** 			if(TMC5072_FIELD_READ(motorToIC(motor), TMC5072_SWMODE(motor), TMC5072_SG_STOP_MASK, TMC5072_SG_
 3154              		.loc 1 530 5 view .LVU1125
 3155 0a82 8CB9     		cbnz	r4, .L136
 531:boards/TMC5072_eval.c **** 			{
 3156              		.loc 1 531 4 is_stmt 1 view .LVU1126
 3157              	.LBB429:
 3158              	.LBI429:
  41:boards/TMC5072_eval.c **** {
 3159              		.loc 1 41 31 view .LVU1127
 3160              	.LVL384:
  41:boards/TMC5072_eval.c **** {
 3161              		.loc 1 41 31 is_stmt 0 view .LVU1128
 3162              	.LBE429:
  43:boards/TMC5072_eval.c **** 
 3163              		.loc 1 43 2 is_stmt 1 view .LVU1129
  45:boards/TMC5072_eval.c **** }
 3164              		.loc 1 45 2 view .LVU1130
 531:boards/TMC5072_eval.c **** 			{
 3165              		.loc 1 531 7 is_stmt 0 view .LVU1131
 3166 0a84 3946     		mov	r1, r7
 3167 0a86 8E48     		ldr	r0, .L180
 3168              	.LVL385:
 531:boards/TMC5072_eval.c **** 			{
 3169              		.loc 1 531 7 view .LVU1132
 3170 0a88 FFF7FEFF 		bl	tmc5072_readInt
 3171              	.LVL386:
 531:boards/TMC5072_eval.c **** 			{
 3172              		.loc 1 531 6 view .LVU1133
 3173 0a8c 4105     		lsls	r1, r0, #21
 3174 0a8e 08D5     		bpl	.L137
 533:boards/TMC5072_eval.c **** 			}
 3175              		.loc 1 533 5 is_stmt 1 view .LVU1134
 3176              	.LBB430:
 3177              	.LBI430:
  41:boards/TMC5072_eval.c **** {
 3178              		.loc 1 41 31 view .LVU1135
 3179              	.LVL387:
  41:boards/TMC5072_eval.c **** {
 3180              		.loc 1 41 31 is_stmt 0 view .LVU1136
 3181              	.LBE430:
  43:boards/TMC5072_eval.c **** 
 3182              		.loc 1 43 2 is_stmt 1 view .LVU1137
  45:boards/TMC5072_eval.c **** }
 3183              		.loc 1 45 2 view .LVU1138
 533:boards/TMC5072_eval.c **** 			}
 3184              		.loc 1 533 48 is_stmt 0 view .LVU1139
 3185 0a90 46F01101 		orr	r1, r6, #17
 533:boards/TMC5072_eval.c **** 			}
 3186              		.loc 1 533 14 view .LVU1140
 3187 0a94 8A48     		ldr	r0, .L180
 3188 0a96 C9B2     		uxtb	r1, r1
 3189 0a98 FFF7FEFF 		bl	tmc5072_readInt
 3190              	.LVL388:
 533:boards/TMC5072_eval.c **** 			}
 3191              		.loc 1 533 12 view .LVU1141
 3192 0a9c 2860     		str	r0, [r5]
 3193 0a9e FFF7F0BA 		b	.L18
 3194              	.L137:
 537:boards/TMC5072_eval.c **** 			}
 3195              		.loc 1 537 5 is_stmt 1 view .LVU1142
 537:boards/TMC5072_eval.c **** 			}
 3196              		.loc 1 537 12 is_stmt 0 view .LVU1143
 3197 0aa2 2C60     		str	r4, [r5]
 3198 0aa4 FFF7EDBA 		b	.L18
 3199              	.LVL389:
 3200              	.L136:
 539:boards/TMC5072_eval.c **** 			tmc5072_writeInt(motorToIC(motor), TMC5072_VCOOLTHRS(motor),*value);
 3201              		.loc 1 539 10 is_stmt 1 view .LVU1144
 540:boards/TMC5072_eval.c **** 			TMC5072_FIELD_WRITE(motorToIC(motor), TMC5072_SWMODE(motor), TMC5072_SG_STOP_MASK, TMC5072_SG_ST
 3202              		.loc 1 540 4 view .LVU1145
 3203              	.LBB431:
 3204              	.LBI431:
  41:boards/TMC5072_eval.c **** {
 3205              		.loc 1 41 31 view .LVU1146
  41:boards/TMC5072_eval.c **** {
 3206              		.loc 1 41 31 is_stmt 0 view .LVU1147
 3207              	.LBE431:
  43:boards/TMC5072_eval.c **** 
 3208              		.loc 1 43 2 is_stmt 1 view .LVU1148
  45:boards/TMC5072_eval.c **** }
 3209              		.loc 1 45 2 view .LVU1149
 540:boards/TMC5072_eval.c **** 			TMC5072_FIELD_WRITE(motorToIC(motor), TMC5072_SWMODE(motor), TMC5072_SG_STOP_MASK, TMC5072_SG_ST
 3210              		.loc 1 540 39 is_stmt 0 view .LVU1150
 3211 0aa8 46F01101 		orr	r1, r6, #17
 540:boards/TMC5072_eval.c **** 			TMC5072_FIELD_WRITE(motorToIC(motor), TMC5072_SWMODE(motor), TMC5072_SG_STOP_MASK, TMC5072_SG_ST
 3212              		.loc 1 540 4 view .LVU1151
 3213 0aac 2A68     		ldr	r2, [r5]
 3214 0aae 8448     		ldr	r0, .L180
 3215              	.LVL390:
 540:boards/TMC5072_eval.c **** 			TMC5072_FIELD_WRITE(motorToIC(motor), TMC5072_SWMODE(motor), TMC5072_SG_STOP_MASK, TMC5072_SG_ST
 3216              		.loc 1 540 4 view .LVU1152
 3217 0ab0 C9B2     		uxtb	r1, r1
 3218 0ab2 FFF7FEFF 		bl	tmc5072_writeInt
 3219              	.LVL391:
 541:boards/TMC5072_eval.c **** 		}
 3220              		.loc 1 541 4 is_stmt 1 view .LVU1153
 3221              	.LBB432:
 3222              	.LBI432:
  41:boards/TMC5072_eval.c **** {
 3223              		.loc 1 41 31 view .LVU1154
  41:boards/TMC5072_eval.c **** {
 3224              		.loc 1 41 31 is_stmt 0 view .LVU1155
 3225              	.LBE432:
  43:boards/TMC5072_eval.c **** 
 3226              		.loc 1 43 2 is_stmt 1 view .LVU1156
  45:boards/TMC5072_eval.c **** }
 3227              		.loc 1 45 2 view .LVU1157
 3228              	.LBB433:
 3229              	.LBI433:
  41:boards/TMC5072_eval.c **** {
 3230              		.loc 1 41 31 view .LVU1158
  41:boards/TMC5072_eval.c **** {
 3231              		.loc 1 41 31 is_stmt 0 view .LVU1159
 3232              	.LBE433:
  43:boards/TMC5072_eval.c **** 
 3233              		.loc 1 43 2 is_stmt 1 view .LVU1160
  45:boards/TMC5072_eval.c **** }
 3234              		.loc 1 45 2 view .LVU1161
 541:boards/TMC5072_eval.c **** 		}
 3235              		.loc 1 541 4 is_stmt 0 view .LVU1162
 3236 0ab6 3946     		mov	r1, r7
 3237 0ab8 8148     		ldr	r0, .L180
 3238 0aba FFF7FEFF 		bl	tmc5072_readInt
 3239              	.LVL392:
 3240 0abe 2B68     		ldr	r3, [r5]
 3241 0ac0 002B     		cmp	r3, #0
 3242 0ac2 20F48062 		bic	r2, r0, #1024
 3243 0ac6 18BF     		it	ne
 3244 0ac8 4FF48063 		movne	r3, #1024
 3245 0acc 7C48     		ldr	r0, .L180
 3246 0ace 1A43     		orrs	r2, r2, r3
 3247 0ad0 3946     		mov	r1, r7
 3248 0ad2 FFF7FEFF 		bl	tmc5072_writeInt
 3249              	.LVL393:
 124:boards/TMC5072_eval.c **** 	int tempValue;
 3250              		.loc 1 124 11 view .LVU1163
 3251 0ad6 0024     		movs	r4, #0
 3252 0ad8 FFF7D3BA 		b	.L18
 3253              	.LVL394:
 3254              	.L29:
 546:boards/TMC5072_eval.c **** 			*value = tmc5072_readInt(motorToIC(motor), TMC5072_VCOOLTHRS(motor));
 3255              		.loc 1 546 3 is_stmt 1 view .LVU1164
 3256 0adc 2023     		movs	r3, #32
 3257 0ade 03FA01F1 		lsl	r1, r3, r1
 3258              	.LVL395:
 546:boards/TMC5072_eval.c **** 			*value = tmc5072_readInt(motorToIC(motor), TMC5072_VCOOLTHRS(motor));
 3259              		.loc 1 546 3 is_stmt 0 view .LVU1165
 3260 0ae2 41F01101 		orr	r1, r1, #17
 3261 0ae6 C9B2     		uxtb	r1, r1
 546:boards/TMC5072_eval.c **** 			*value = tmc5072_readInt(motorToIC(motor), TMC5072_VCOOLTHRS(motor));
 3262              		.loc 1 546 5 view .LVU1166
 3263 0ae8 2CB9     		cbnz	r4, .L139
 547:boards/TMC5072_eval.c **** 		} else if(readWrite == WRITE) {
 3264              		.loc 1 547 4 is_stmt 1 view .LVU1167
 3265              	.LBB434:
 3266              	.LBI434:
  41:boards/TMC5072_eval.c **** {
 3267              		.loc 1 41 31 view .LVU1168
 3268              	.LVL396:
  41:boards/TMC5072_eval.c **** {
 3269              		.loc 1 41 31 is_stmt 0 view .LVU1169
 3270              	.LBE434:
  43:boards/TMC5072_eval.c **** 
 3271              		.loc 1 43 2 is_stmt 1 view .LVU1170
  45:boards/TMC5072_eval.c **** }
 3272              		.loc 1 45 2 view .LVU1171
 547:boards/TMC5072_eval.c **** 		} else if(readWrite == WRITE) {
 3273              		.loc 1 547 13 is_stmt 0 view .LVU1172
 3274 0aea 7548     		ldr	r0, .L180
 3275              	.LVL397:
 547:boards/TMC5072_eval.c **** 		} else if(readWrite == WRITE) {
 3276              		.loc 1 547 13 view .LVU1173
 3277 0aec FFF7FEFF 		bl	tmc5072_readInt
 3278              	.LVL398:
 547:boards/TMC5072_eval.c **** 		} else if(readWrite == WRITE) {
 3279              		.loc 1 547 11 view .LVU1174
 3280 0af0 2860     		str	r0, [r5]
 3281 0af2 FFF7C6BA 		b	.L18
 3282              	.LVL399:
 3283              	.L139:
 548:boards/TMC5072_eval.c **** 			tmc5072_writeInt(motorToIC(motor), TMC5072_VCOOLTHRS(motor),*value);
 3284              		.loc 1 548 10 is_stmt 1 view .LVU1175
 549:boards/TMC5072_eval.c **** 		}
 3285              		.loc 1 549 4 view .LVU1176
 3286              	.LBB435:
 3287              	.LBI435:
  41:boards/TMC5072_eval.c **** {
 3288              		.loc 1 41 31 view .LVU1177
  41:boards/TMC5072_eval.c **** {
 3289              		.loc 1 41 31 is_stmt 0 view .LVU1178
 3290              	.LBE435:
  43:boards/TMC5072_eval.c **** 
 3291              		.loc 1 43 2 is_stmt 1 view .LVU1179
  45:boards/TMC5072_eval.c **** }
 3292              		.loc 1 45 2 view .LVU1180
 549:boards/TMC5072_eval.c **** 		}
 3293              		.loc 1 549 4 is_stmt 0 view .LVU1181
 3294 0af6 2A68     		ldr	r2, [r5]
 3295 0af8 7148     		ldr	r0, .L180
 3296              	.LVL400:
 549:boards/TMC5072_eval.c **** 		}
 3297              		.loc 1 549 4 view .LVU1182
 3298 0afa FFF7FEFF 		bl	tmc5072_writeInt
 3299              	.LVL401:
 124:boards/TMC5072_eval.c **** 	int tempValue;
 3300              		.loc 1 124 11 view .LVU1183
 3301 0afe 0024     		movs	r4, #0
 3302 0b00 FFF7BFBA 		b	.L18
 3303              	.LVL402:
 3304              	.L27:
 554:boards/TMC5072_eval.c **** 			*value = TMC5072_FIELD_READ(motorToIC(motor), TMC5072_CHOPCONF(motor), TMC5072_RNDTF_MASK, TMC50
 3305              		.loc 1 554 3 is_stmt 1 view .LVU1184
 3306 0b04 0901     		lsls	r1, r1, #4
 3307              	.LVL403:
 554:boards/TMC5072_eval.c **** 			*value = TMC5072_FIELD_READ(motorToIC(motor), TMC5072_CHOPCONF(motor), TMC5072_RNDTF_MASK, TMC50
 3308              		.loc 1 554 3 is_stmt 0 view .LVU1185
 3309 0b06 41F06C06 		orr	r6, r1, #108
 3310 0b0a F6B2     		uxtb	r6, r6
 555:boards/TMC5072_eval.c **** 		} else if(readWrite == WRITE) {
 3311              		.loc 1 555 13 view .LVU1186
 3312 0b0c 6C48     		ldr	r0, .L180
 3313              	.LVL404:
 555:boards/TMC5072_eval.c **** 		} else if(readWrite == WRITE) {
 3314              		.loc 1 555 13 view .LVU1187
 3315 0b0e 3146     		mov	r1, r6
 554:boards/TMC5072_eval.c **** 			*value = TMC5072_FIELD_READ(motorToIC(motor), TMC5072_CHOPCONF(motor), TMC5072_RNDTF_MASK, TMC50
 3316              		.loc 1 554 5 view .LVU1188
 3317 0b10 34B9     		cbnz	r4, .L140
 555:boards/TMC5072_eval.c **** 		} else if(readWrite == WRITE) {
 3318              		.loc 1 555 4 is_stmt 1 view .LVU1189
 3319              	.LBB436:
 3320              	.LBI436:
  41:boards/TMC5072_eval.c **** {
 3321              		.loc 1 41 31 view .LVU1190
 3322              	.LVL405:
  41:boards/TMC5072_eval.c **** {
 3323              		.loc 1 41 31 is_stmt 0 view .LVU1191
 3324              	.LBE436:
  43:boards/TMC5072_eval.c **** 
 3325              		.loc 1 43 2 is_stmt 1 view .LVU1192
  45:boards/TMC5072_eval.c **** }
 3326              		.loc 1 45 2 view .LVU1193
 555:boards/TMC5072_eval.c **** 		} else if(readWrite == WRITE) {
 3327              		.loc 1 555 13 is_stmt 0 view .LVU1194
 3328 0b12 FFF7FEFF 		bl	tmc5072_readInt
 3329              	.LVL406:
 3330 0b16 C0F34030 		ubfx	r0, r0, #13, #1
 555:boards/TMC5072_eval.c **** 		} else if(readWrite == WRITE) {
 3331              		.loc 1 555 11 view .LVU1195
 3332 0b1a 2860     		str	r0, [r5]
 3333 0b1c FFF7B1BA 		b	.L18
 3334              	.L140:
 556:boards/TMC5072_eval.c **** 			TMC5072_FIELD_WRITE(motorToIC(motor), TMC5072_CHOPCONF(motor), TMC5072_RNDTF_MASK, TMC5072_RNDTF
 3335              		.loc 1 556 10 is_stmt 1 view .LVU1196
 557:boards/TMC5072_eval.c **** 		}
 3336              		.loc 1 557 4 view .LVU1197
 3337              	.LBB437:
 3338              	.LBI437:
  41:boards/TMC5072_eval.c **** {
 3339              		.loc 1 41 31 view .LVU1198
 3340              	.LVL407:
  41:boards/TMC5072_eval.c **** {
 3341              		.loc 1 41 31 is_stmt 0 view .LVU1199
 3342              	.LBE437:
  43:boards/TMC5072_eval.c **** 
 3343              		.loc 1 43 2 is_stmt 1 view .LVU1200
  45:boards/TMC5072_eval.c **** }
 3344              		.loc 1 45 2 view .LVU1201
 3345              	.LBB438:
 3346              	.LBI438:
  41:boards/TMC5072_eval.c **** {
 3347              		.loc 1 41 31 view .LVU1202
  41:boards/TMC5072_eval.c **** {
 3348              		.loc 1 41 31 is_stmt 0 view .LVU1203
 3349              	.LBE438:
  43:boards/TMC5072_eval.c **** 
 3350              		.loc 1 43 2 is_stmt 1 view .LVU1204
  45:boards/TMC5072_eval.c **** }
 3351              		.loc 1 45 2 view .LVU1205
 557:boards/TMC5072_eval.c **** 		}
 3352              		.loc 1 557 4 is_stmt 0 view .LVU1206
 3353 0b20 FFF7FEFF 		bl	tmc5072_readInt
 3354              	.LVL408:
 3355 0b24 2B68     		ldr	r3, [r5]
 3356 0b26 5B03     		lsls	r3, r3, #13
 3357 0b28 03F40053 		and	r3, r3, #8192
 3358 0b2c 20F40052 		bic	r2, r0, #8192
 3359 0b30 1A43     		orrs	r2, r2, r3
 3360 0b32 6348     		ldr	r0, .L180
 3361 0b34 3146     		mov	r1, r6
 3362 0b36 FFF7FEFF 		bl	tmc5072_writeInt
 3363              	.LVL409:
 124:boards/TMC5072_eval.c **** 	int tempValue;
 3364              		.loc 1 124 11 view .LVU1207
 3365 0b3a 0024     		movs	r4, #0
 3366 0b3c FFF7A1BA 		b	.L18
 3367              	.LVL410:
 3368              	.L26:
 562:boards/TMC5072_eval.c **** 			*value = TMC5072_FIELD_READ(motorToIC(motor), TMC5072_DRVSTATUS(motor), TMC5072_SG_RESULT_MASK, 
 3369              		.loc 1 562 3 is_stmt 1 view .LVU1208
 562:boards/TMC5072_eval.c **** 			*value = TMC5072_FIELD_READ(motorToIC(motor), TMC5072_DRVSTATUS(motor), TMC5072_SG_RESULT_MASK, 
 3370              		.loc 1 562 5 is_stmt 0 view .LVU1209
 3371 0b40 002C     		cmp	r4, #0
 3372 0b42 40F0B980 		bne	.L167
 563:boards/TMC5072_eval.c **** 		} else if(readWrite == WRITE) {
 3373              		.loc 1 563 4 is_stmt 1 view .LVU1210
 3374              	.LBB439:
 3375              	.LBI439:
  41:boards/TMC5072_eval.c **** {
 3376              		.loc 1 41 31 view .LVU1211
 3377              	.LVL411:
  41:boards/TMC5072_eval.c **** {
 3378              		.loc 1 41 31 is_stmt 0 view .LVU1212
 3379              	.LBE439:
  43:boards/TMC5072_eval.c **** 
 3380              		.loc 1 43 2 is_stmt 1 view .LVU1213
  45:boards/TMC5072_eval.c **** }
 3381              		.loc 1 45 2 view .LVU1214
 563:boards/TMC5072_eval.c **** 		} else if(readWrite == WRITE) {
 3382              		.loc 1 563 13 is_stmt 0 view .LVU1215
 3383 0b46 0901     		lsls	r1, r1, #4
 3384              	.LVL412:
 563:boards/TMC5072_eval.c **** 		} else if(readWrite == WRITE) {
 3385              		.loc 1 563 13 view .LVU1216
 3386 0b48 41F06F01 		orr	r1, r1, #111
 3387 0b4c 5C48     		ldr	r0, .L180
 3388              	.LVL413:
 563:boards/TMC5072_eval.c **** 		} else if(readWrite == WRITE) {
 3389              		.loc 1 563 13 view .LVU1217
 3390 0b4e C9B2     		uxtb	r1, r1
 3391 0b50 FFF7FEFF 		bl	tmc5072_readInt
 3392              	.LVL414:
 3393 0b54 C0F30900 		ubfx	r0, r0, #0, #10
 563:boards/TMC5072_eval.c **** 		} else if(readWrite == WRITE) {
 3394              		.loc 1 563 11 view .LVU1218
 3395 0b58 2860     		str	r0, [r5]
 3396 0b5a FFF792BA 		b	.L18
 3397              	.LVL415:
 3398              	.L25:
 570:boards/TMC5072_eval.c **** 			*value = TMC5072_FIELD_READ(motorToIC(motor), TMC5072_XENC(motor), TMC5072_X_ENC_MASK, TMC5072_X
 3399              		.loc 1 570 3 is_stmt 1 view .LVU1219
 3400 0b5e 2026     		movs	r6, #32
 3401 0b60 06FA01F1 		lsl	r1, r6, r1
 3402              	.LVL416:
 570:boards/TMC5072_eval.c **** 			*value = TMC5072_FIELD_READ(motorToIC(motor), TMC5072_XENC(motor), TMC5072_X_ENC_MASK, TMC5072_X
 3403              		.loc 1 570 3 is_stmt 0 view .LVU1220
 3404 0b64 41F01906 		orr	r6, r1, #25
 3405 0b68 F6B2     		uxtb	r6, r6
 571:boards/TMC5072_eval.c **** 		} else if(readWrite == WRITE) {
 3406              		.loc 1 571 13 view .LVU1221
 3407 0b6a 5548     		ldr	r0, .L180
 3408              	.LVL417:
 571:boards/TMC5072_eval.c **** 		} else if(readWrite == WRITE) {
 3409              		.loc 1 571 13 view .LVU1222
 3410 0b6c 3146     		mov	r1, r6
 570:boards/TMC5072_eval.c **** 			*value = TMC5072_FIELD_READ(motorToIC(motor), TMC5072_XENC(motor), TMC5072_X_ENC_MASK, TMC5072_X
 3411              		.loc 1 570 5 view .LVU1223
 3412 0b6e 24B9     		cbnz	r4, .L141
 571:boards/TMC5072_eval.c **** 		} else if(readWrite == WRITE) {
 3413              		.loc 1 571 4 is_stmt 1 view .LVU1224
 3414              	.LBB440:
 3415              	.LBI440:
  41:boards/TMC5072_eval.c **** {
 3416              		.loc 1 41 31 view .LVU1225
 3417              	.LVL418:
  41:boards/TMC5072_eval.c **** {
 3418              		.loc 1 41 31 is_stmt 0 view .LVU1226
 3419              	.LBE440:
  43:boards/TMC5072_eval.c **** 
 3420              		.loc 1 43 2 is_stmt 1 view .LVU1227
  45:boards/TMC5072_eval.c **** }
 3421              		.loc 1 45 2 view .LVU1228
 571:boards/TMC5072_eval.c **** 		} else if(readWrite == WRITE) {
 3422              		.loc 1 571 13 is_stmt 0 view .LVU1229
 3423 0b70 FFF7FEFF 		bl	tmc5072_readInt
 3424              	.LVL419:
 571:boards/TMC5072_eval.c **** 		} else if(readWrite == WRITE) {
 3425              		.loc 1 571 11 view .LVU1230
 3426 0b74 2860     		str	r0, [r5]
 3427 0b76 FFF784BA 		b	.L18
 3428              	.L141:
 572:boards/TMC5072_eval.c **** 			TMC5072_FIELD_WRITE(motorToIC(motor), TMC5072_XENC(motor), TMC5072_X_ENC_MASK, TMC5072_X_ENC_SHI
 3429              		.loc 1 572 10 is_stmt 1 view .LVU1231
 573:boards/TMC5072_eval.c **** 		}
 3430              		.loc 1 573 4 view .LVU1232
 3431              	.LBB441:
 3432              	.LBI441:
  41:boards/TMC5072_eval.c **** {
 3433              		.loc 1 41 31 view .LVU1233
 3434              	.LVL420:
  41:boards/TMC5072_eval.c **** {
 3435              		.loc 1 41 31 is_stmt 0 view .LVU1234
 3436              	.LBE441:
  43:boards/TMC5072_eval.c **** 
 3437              		.loc 1 43 2 is_stmt 1 view .LVU1235
  45:boards/TMC5072_eval.c **** }
 3438              		.loc 1 45 2 view .LVU1236
 3439              	.LBB442:
 3440              	.LBI442:
  41:boards/TMC5072_eval.c **** {
 3441              		.loc 1 41 31 view .LVU1237
  41:boards/TMC5072_eval.c **** {
 3442              		.loc 1 41 31 is_stmt 0 view .LVU1238
 3443              	.LBE442:
  43:boards/TMC5072_eval.c **** 
 3444              		.loc 1 43 2 is_stmt 1 view .LVU1239
  45:boards/TMC5072_eval.c **** }
 3445              		.loc 1 45 2 view .LVU1240
 573:boards/TMC5072_eval.c **** 		}
 3446              		.loc 1 573 4 is_stmt 0 view .LVU1241
 3447 0b7a FFF7FEFF 		bl	tmc5072_readInt
 3448              	.LVL421:
 3449 0b7e 2A68     		ldr	r2, [r5]
 3450 0b80 4F48     		ldr	r0, .L180
 3451 0b82 3146     		mov	r1, r6
 3452 0b84 FFF7FEFF 		bl	tmc5072_writeInt
 3453              	.LVL422:
 124:boards/TMC5072_eval.c **** 	int tempValue;
 3454              		.loc 1 124 11 view .LVU1242
 3455 0b88 0024     		movs	r4, #0
 3456 0b8a FFF77ABA 		b	.L18
 3457              	.LVL423:
 3458              	.L24:
 578:boards/TMC5072_eval.c **** 			*value = tmc5072_readInt(motorToIC(motor), TMC5072_ENC_CONST(motor));
 3459              		.loc 1 578 3 is_stmt 1 view .LVU1243
 3460 0b8e 2023     		movs	r3, #32
 3461 0b90 03FA01F1 		lsl	r1, r3, r1
 3462              	.LVL424:
 578:boards/TMC5072_eval.c **** 			*value = tmc5072_readInt(motorToIC(motor), TMC5072_ENC_CONST(motor));
 3463              		.loc 1 578 3 is_stmt 0 view .LVU1244
 3464 0b94 41F01A01 		orr	r1, r1, #26
 3465 0b98 C9B2     		uxtb	r1, r1
 578:boards/TMC5072_eval.c **** 			*value = tmc5072_readInt(motorToIC(motor), TMC5072_ENC_CONST(motor));
 3466              		.loc 1 578 5 view .LVU1245
 3467 0b9a 2CB9     		cbnz	r4, .L142
 579:boards/TMC5072_eval.c **** 		} else if(readWrite == WRITE) {
 3468              		.loc 1 579 4 is_stmt 1 view .LVU1246
 3469              	.LBB443:
 3470              	.LBI443:
  41:boards/TMC5072_eval.c **** {
 3471              		.loc 1 41 31 view .LVU1247
 3472              	.LVL425:
  41:boards/TMC5072_eval.c **** {
 3473              		.loc 1 41 31 is_stmt 0 view .LVU1248
 3474              	.LBE443:
  43:boards/TMC5072_eval.c **** 
 3475              		.loc 1 43 2 is_stmt 1 view .LVU1249
  45:boards/TMC5072_eval.c **** }
 3476              		.loc 1 45 2 view .LVU1250
 579:boards/TMC5072_eval.c **** 		} else if(readWrite == WRITE) {
 3477              		.loc 1 579 13 is_stmt 0 view .LVU1251
 3478 0b9c 4848     		ldr	r0, .L180
 3479              	.LVL426:
 579:boards/TMC5072_eval.c **** 		} else if(readWrite == WRITE) {
 3480              		.loc 1 579 13 view .LVU1252
 3481 0b9e FFF7FEFF 		bl	tmc5072_readInt
 3482              	.LVL427:
 579:boards/TMC5072_eval.c **** 		} else if(readWrite == WRITE) {
 3483              		.loc 1 579 11 view .LVU1253
 3484 0ba2 2860     		str	r0, [r5]
 3485 0ba4 FFF76DBA 		b	.L18
 3486              	.LVL428:
 3487              	.L142:
 580:boards/TMC5072_eval.c **** 			tmc5072_writeInt(motorToIC(motor), TMC5072_ENC_CONST(motor),*value);
 3488              		.loc 1 580 10 is_stmt 1 view .LVU1254
 581:boards/TMC5072_eval.c **** 		}
 3489              		.loc 1 581 4 view .LVU1255
 3490              	.LBB444:
 3491              	.LBI444:
  41:boards/TMC5072_eval.c **** {
 3492              		.loc 1 41 31 view .LVU1256
  41:boards/TMC5072_eval.c **** {
 3493              		.loc 1 41 31 is_stmt 0 view .LVU1257
 3494              	.LBE444:
  43:boards/TMC5072_eval.c **** 
 3495              		.loc 1 43 2 is_stmt 1 view .LVU1258
  45:boards/TMC5072_eval.c **** }
 3496              		.loc 1 45 2 view .LVU1259
 581:boards/TMC5072_eval.c **** 		}
 3497              		.loc 1 581 4 is_stmt 0 view .LVU1260
 3498 0ba8 2A68     		ldr	r2, [r5]
 3499 0baa 4548     		ldr	r0, .L180
 3500              	.LVL429:
 581:boards/TMC5072_eval.c **** 		}
 3501              		.loc 1 581 4 view .LVU1261
 3502 0bac FFF7FEFF 		bl	tmc5072_writeInt
 3503              	.LVL430:
 124:boards/TMC5072_eval.c **** 	int tempValue;
 3504              		.loc 1 124 11 view .LVU1262
 3505 0bb0 0024     		movs	r4, #0
 3506 0bb2 FFF766BA 		b	.L18
 3507              	.LVL431:
 3508              	.L22:
 585:boards/TMC5072_eval.c **** 			// encoder enable
 3509              		.loc 1 585 3 is_stmt 1 view .LVU1263
 585:boards/TMC5072_eval.c **** 			// encoder enable
 3510              		.loc 1 585 5 is_stmt 0 view .LVU1264
 3511 0bb6 CCB9     		cbnz	r4, .L143
 587:boards/TMC5072_eval.c **** 			{
 3512              		.loc 1 587 4 is_stmt 1 view .LVU1265
 3513 0bb8 0129     		cmp	r1, #1
 595:boards/TMC5072_eval.c **** 				tempValue &= 0x60; //(1<<5) | (1<<6);
 3514              		.loc 1 595 17 is_stmt 0 view .LVU1266
 3515 0bba 4148     		ldr	r0, .L180
 3516              	.LVL432:
 595:boards/TMC5072_eval.c **** 				tempValue &= 0x60; //(1<<5) | (1<<6);
