   1              		.cpu cortex-m4
   2              		.eabi_attribute 20, 1
   3              		.eabi_attribute 21, 1
   4              		.eabi_attribute 23, 3
   5              		.eabi_attribute 24, 1
   6              		.eabi_attribute 25, 1
   7              		.eabi_attribute 26, 1
   8              		.eabi_attribute 30, 4
   9              		.eabi_attribute 34, 1
  10              		.eabi_attribute 18, 4
  11              		.file	"USB.c"
  12              		.text
  13              	.Ltext0:
  14              		.cfi_sections	.debug_frame
  15              		.align	1
  16              		.arch armv7e-m
  17              		.syntax unified
  18              		.thumb
  19              		.thumb_func
  20              		.fpu softvfp
  22              	bytesAvailable:
  23              	.LFB6:
  24              		.file 1 "hal/Landungsbruecke/tmc/USB.c"
   1:hal/Landungsbruecke/tmc/USB.c **** #include "hal/HAL.h"
   2:hal/Landungsbruecke/tmc/USB.c **** #include "hal/USB.h"
   3:hal/Landungsbruecke/tmc/USB.c **** 
   4:hal/Landungsbruecke/tmc/USB.c **** #include "hal/Landungsbruecke/freescale/USB_CDC/USB0.h"
   5:hal/Landungsbruecke/tmc/USB.c **** #include "hal/Landungsbruecke/freescale/USB_CDC/USB1.h"
   6:hal/Landungsbruecke/tmc/USB.c **** #include "hal/Landungsbruecke/freescale/USB_CDC/Tx1.h"
   7:hal/Landungsbruecke/tmc/USB.c **** #include "hal/Landungsbruecke/freescale/USB_CDC/Rx1.h"
   8:hal/Landungsbruecke/tmc/USB.c **** #include "hal/Landungsbruecke/freescale/USB_CDC/CDC1.h"
   9:hal/Landungsbruecke/tmc/USB.c **** #include "hal/Landungsbruecke/freescale/USB_CDC/CS1.h"
  10:hal/Landungsbruecke/tmc/USB.c **** 
  11:hal/Landungsbruecke/tmc/USB.c **** extern uint8_t USB_DCI_DeInit(void);
  12:hal/Landungsbruecke/tmc/USB.c **** extern uint8_t USB_Class_CDC_DeInit(uint8_t controller_ID);
  13:hal/Landungsbruecke/tmc/USB.c **** extern uint8_t USB_Class_DeInit(uint8_t controller_ID);
  14:hal/Landungsbruecke/tmc/USB.c **** 
  15:hal/Landungsbruecke/tmc/USB.c **** static void init();
  16:hal/Landungsbruecke/tmc/USB.c **** static void deInit();
  17:hal/Landungsbruecke/tmc/USB.c **** static void tx(uint8_t ch);
  18:hal/Landungsbruecke/tmc/USB.c **** static uint8_t rx(uint8_t *ch);
  19:hal/Landungsbruecke/tmc/USB.c **** static void txN(uint8_t *str, uint8_t number);
  20:hal/Landungsbruecke/tmc/USB.c **** static uint8_t rxN(uint8_t *ch, uint8_t number);
  21:hal/Landungsbruecke/tmc/USB.c **** static void clearBuffers(void);
  22:hal/Landungsbruecke/tmc/USB.c **** static uint32_t bytesAvailable();
  23:hal/Landungsbruecke/tmc/USB.c **** 
  24:hal/Landungsbruecke/tmc/USB.c **** RXTXTypeDef USB =
  25:hal/Landungsbruecke/tmc/USB.c **** {
  26:hal/Landungsbruecke/tmc/USB.c **** 	.init            = init,
  27:hal/Landungsbruecke/tmc/USB.c **** 	.deInit          = deInit,
  28:hal/Landungsbruecke/tmc/USB.c **** 	.rx              = rx,
  29:hal/Landungsbruecke/tmc/USB.c **** 	.tx              = tx,
  30:hal/Landungsbruecke/tmc/USB.c **** 	.rxN             = rxN,
  31:hal/Landungsbruecke/tmc/USB.c **** 	.txN             = txN,
  32:hal/Landungsbruecke/tmc/USB.c **** 	.clearBuffers    = clearBuffers,
  33:hal/Landungsbruecke/tmc/USB.c **** 	.baudRate        = 460800,
  34:hal/Landungsbruecke/tmc/USB.c **** 	.bytesAvailable  = bytesAvailable
  35:hal/Landungsbruecke/tmc/USB.c **** };
  36:hal/Landungsbruecke/tmc/USB.c **** 
  37:hal/Landungsbruecke/tmc/USB.c **** void init()
  38:hal/Landungsbruecke/tmc/USB.c **** {
  39:hal/Landungsbruecke/tmc/USB.c **** 	USB0_Init();
  40:hal/Landungsbruecke/tmc/USB.c **** 	Tx1_Init();
  41:hal/Landungsbruecke/tmc/USB.c **** 	Rx1_Init();
  42:hal/Landungsbruecke/tmc/USB.c **** 	USB1_Init();
  43:hal/Landungsbruecke/tmc/USB.c **** 	enable_irq(INT_USB0-16);
  44:hal/Landungsbruecke/tmc/USB.c **** }
  45:hal/Landungsbruecke/tmc/USB.c **** 
  46:hal/Landungsbruecke/tmc/USB.c **** uint8_t rx(uint8_t *ch)
  47:hal/Landungsbruecke/tmc/USB.c **** {
  48:hal/Landungsbruecke/tmc/USB.c **** 	return rxN(ch,1);
  49:hal/Landungsbruecke/tmc/USB.c **** }
  50:hal/Landungsbruecke/tmc/USB.c **** 
  51:hal/Landungsbruecke/tmc/USB.c **** uint8_t rxN(uint8_t *str, uint8_t number)
  52:hal/Landungsbruecke/tmc/USB.c **** {
  53:hal/Landungsbruecke/tmc/USB.c **** 	if(CDC1_GetCharsInRxBuf() >= number)
  54:hal/Landungsbruecke/tmc/USB.c **** 	{
  55:hal/Landungsbruecke/tmc/USB.c **** 		for(int32_t i = 0; i < number; i++)
  56:hal/Landungsbruecke/tmc/USB.c **** 		{
  57:hal/Landungsbruecke/tmc/USB.c **** 			if(CDC1_GetChar(&str[i])!= ERR_OK)
  58:hal/Landungsbruecke/tmc/USB.c **** 				return false;
  59:hal/Landungsbruecke/tmc/USB.c **** 		}
  60:hal/Landungsbruecke/tmc/USB.c **** 		return true;
  61:hal/Landungsbruecke/tmc/USB.c **** 	}
  62:hal/Landungsbruecke/tmc/USB.c **** 	return false;
  63:hal/Landungsbruecke/tmc/USB.c **** }
  64:hal/Landungsbruecke/tmc/USB.c **** 
  65:hal/Landungsbruecke/tmc/USB.c **** void tx(uint8_t ch)
  66:hal/Landungsbruecke/tmc/USB.c **** {
  67:hal/Landungsbruecke/tmc/USB.c **** 	CDC1_SendChar(ch);
  68:hal/Landungsbruecke/tmc/USB.c **** }
  69:hal/Landungsbruecke/tmc/USB.c **** 
  70:hal/Landungsbruecke/tmc/USB.c **** void txN(uint8_t *str, uint8_t number)
  71:hal/Landungsbruecke/tmc/USB.c **** {
  72:hal/Landungsbruecke/tmc/USB.c **** 	for(int32_t i = 0; i < number; i++)
  73:hal/Landungsbruecke/tmc/USB.c **** 	{
  74:hal/Landungsbruecke/tmc/USB.c **** 		tx(str[i]);
  75:hal/Landungsbruecke/tmc/USB.c **** 	}
  76:hal/Landungsbruecke/tmc/USB.c **** }
  77:hal/Landungsbruecke/tmc/USB.c **** 
  78:hal/Landungsbruecke/tmc/USB.c **** static void clearBuffers(void)
  79:hal/Landungsbruecke/tmc/USB.c **** {
  80:hal/Landungsbruecke/tmc/USB.c **** 	DisableInterrupts;
  81:hal/Landungsbruecke/tmc/USB.c **** 	Tx1_Init();
  82:hal/Landungsbruecke/tmc/USB.c **** 	Rx1_Init();
  83:hal/Landungsbruecke/tmc/USB.c **** 	EnableInterrupts;
  84:hal/Landungsbruecke/tmc/USB.c **** }
  85:hal/Landungsbruecke/tmc/USB.c **** 
  86:hal/Landungsbruecke/tmc/USB.c **** static uint32_t bytesAvailable()
  87:hal/Landungsbruecke/tmc/USB.c **** {
  25              		.loc 1 87 1 view -0
  26              		.cfi_startproc
  27              		@ args = 0, pretend = 0, frame = 0
  28              		@ frame_needed = 0, uses_anonymous_args = 0
  88:hal/Landungsbruecke/tmc/USB.c **** 	return CDC1_GetCharsInRxBuf();
  29              		.loc 1 88 2 view .LVU1
  87:hal/Landungsbruecke/tmc/USB.c **** 	return CDC1_GetCharsInRxBuf();
  30              		.loc 1 87 1 is_stmt 0 view .LVU2
  31 0000 08B5     		push	{r3, lr}
  32              	.LCFI0:
  33              		.cfi_def_cfa_offset 8
  34              		.cfi_offset 3, -8
  35              		.cfi_offset 14, -4
  36              		.loc 1 88 9 view .LVU3
  37 0002 FFF7FEFF 		bl	CDC1_GetCharsInRxBuf
  38              	.LVL0:
  89:hal/Landungsbruecke/tmc/USB.c **** }
  39              		.loc 1 89 1 view .LVU4
  40 0006 08BD     		pop	{r3, pc}
  41              		.cfi_endproc
  42              	.LFE6:
  44              		.align	1
  45              		.syntax unified
  46              		.thumb
  47              		.thumb_func
  48              		.fpu softvfp
  50              	clearBuffers:
  51              	.LFB5:
  79:hal/Landungsbruecke/tmc/USB.c **** 	DisableInterrupts;
  52              		.loc 1 79 1 is_stmt 1 view -0
  53              		.cfi_startproc
  54              		@ args = 0, pretend = 0, frame = 0
  55              		@ frame_needed = 0, uses_anonymous_args = 0
  80:hal/Landungsbruecke/tmc/USB.c **** 	Tx1_Init();
  56              		.loc 1 80 2 view .LVU6
  79:hal/Landungsbruecke/tmc/USB.c **** 	DisableInterrupts;
  57              		.loc 1 79 1 is_stmt 0 view .LVU7
  58 0008 08B5     		push	{r3, lr}
  59              	.LCFI1:
  60              		.cfi_def_cfa_offset 8
  61              		.cfi_offset 3, -8
  62              		.cfi_offset 14, -4
  80:hal/Landungsbruecke/tmc/USB.c **** 	Tx1_Init();
  63              		.loc 1 80 2 view .LVU8
  64              		.syntax unified
  65              	@ 80 "hal/Landungsbruecke/tmc/USB.c" 1
  66 000a 72B6     		 CPSID i
  67              	@ 0 "" 2
  81:hal/Landungsbruecke/tmc/USB.c **** 	Rx1_Init();
  68              		.loc 1 81 2 is_stmt 1 view .LVU9
  69              		.thumb
  70              		.syntax unified
  71 000c FFF7FEFF 		bl	Tx1_Init
  72              	.LVL1:
  82:hal/Landungsbruecke/tmc/USB.c **** 	EnableInterrupts;
  73              		.loc 1 82 2 view .LVU10
  74 0010 FFF7FEFF 		bl	Rx1_Init
  75              	.LVL2:
  83:hal/Landungsbruecke/tmc/USB.c **** }
  76              		.loc 1 83 2 view .LVU11
  77              		.syntax unified
  78              	@ 83 "hal/Landungsbruecke/tmc/USB.c" 1
  79 0014 62B6     		 CPSIE i
  80              	@ 0 "" 2
  84:hal/Landungsbruecke/tmc/USB.c **** 
  81              		.loc 1 84 1 is_stmt 0 view .LVU12
  82              		.thumb
  83              		.syntax unified
  84 0016 08BD     		pop	{r3, pc}
  85              		.cfi_endproc
  86              	.LFE5:
  88              		.align	1
  89              		.syntax unified
  90              		.thumb
  91              		.thumb_func
  92              		.fpu softvfp
  94              	tx:
  95              	.LVL3:
  96              	.LFB3:
  66:hal/Landungsbruecke/tmc/USB.c **** 	CDC1_SendChar(ch);
  97              		.loc 1 66 1 is_stmt 1 view -0
  98              		.cfi_startproc
  99              		@ args = 0, pretend = 0, frame = 0
 100              		@ frame_needed = 0, uses_anonymous_args = 0
 101              		@ link register save eliminated.
  67:hal/Landungsbruecke/tmc/USB.c **** }
 102              		.loc 1 67 2 view .LVU14
 103 0018 FFF7FEBF 		b	CDC1_SendChar
 104              	.LVL4:
  67:hal/Landungsbruecke/tmc/USB.c **** }
 105              		.loc 1 67 2 is_stmt 0 view .LVU15
 106              		.cfi_endproc
 107              	.LFE3:
 109              		.align	1
 110              		.syntax unified
 111              		.thumb
 112              		.thumb_func
 113              		.fpu softvfp
 115              	txN:
 116              	.LVL5:
 117              	.LFB4:
  71:hal/Landungsbruecke/tmc/USB.c **** 	for(int32_t i = 0; i < number; i++)
 118              		.loc 1 71 1 is_stmt 1 view -0
 119              		.cfi_startproc
 120              		@ args = 0, pretend = 0, frame = 0
 121              		@ frame_needed = 0, uses_anonymous_args = 0
  72:hal/Landungsbruecke/tmc/USB.c **** 	{
 122              		.loc 1 72 2 view .LVU17
 123              	.LBB6:
  72:hal/Landungsbruecke/tmc/USB.c **** 	{
 124              		.loc 1 72 6 view .LVU18
  72:hal/Landungsbruecke/tmc/USB.c **** 	{
 125              		.loc 1 72 6 is_stmt 0 view .LVU19
 126              	.LBE6:
  71:hal/Landungsbruecke/tmc/USB.c **** 	for(int32_t i = 0; i < number; i++)
 127              		.loc 1 71 1 view .LVU20
 128 001c 70B5     		push	{r4, r5, r6, lr}
 129              	.LCFI2:
 130              		.cfi_def_cfa_offset 16
 131              		.cfi_offset 4, -16
 132              		.cfi_offset 5, -12
 133              		.cfi_offset 6, -8
 134              		.cfi_offset 14, -4
  71:hal/Landungsbruecke/tmc/USB.c **** 	for(int32_t i = 0; i < number; i++)
 135              		.loc 1 71 1 view .LVU21
 136 001e 0646     		mov	r6, r0
 137 0020 0D46     		mov	r5, r1
 138              	.LBB9:
  72:hal/Landungsbruecke/tmc/USB.c **** 	{
 139              		.loc 1 72 14 view .LVU22
 140 0022 0024     		movs	r4, #0
 141              	.LVL6:
 142              	.L5:
  72:hal/Landungsbruecke/tmc/USB.c **** 	{
 143              		.loc 1 72 21 is_stmt 1 discriminator 1 view .LVU23
  72:hal/Landungsbruecke/tmc/USB.c **** 	{
 144              		.loc 1 72 2 is_stmt 0 discriminator 1 view .LVU24
 145 0024 A542     		cmp	r5, r4
 146 0026 00DC     		bgt	.L6
 147              	.LBE9:
  76:hal/Landungsbruecke/tmc/USB.c **** 
 148              		.loc 1 76 1 view .LVU25
 149 0028 70BD     		pop	{r4, r5, r6, pc}
 150              	.LVL7:
 151              	.L6:
 152              	.LBB10:
  74:hal/Landungsbruecke/tmc/USB.c **** 	}
 153              		.loc 1 74 3 is_stmt 1 discriminator 3 view .LVU26
 154              	.LBB7:
 155              	.LBI7:
  65:hal/Landungsbruecke/tmc/USB.c **** {
 156              		.loc 1 65 6 discriminator 3 view .LVU27
 157              	.LBB8:
  67:hal/Landungsbruecke/tmc/USB.c **** }
 158              		.loc 1 67 2 discriminator 3 view .LVU28
 159 002a 305D     		ldrb	r0, [r6, r4]	@ zero_extendqisi2
 160 002c FFF7FEFF 		bl	CDC1_SendChar
 161              	.LVL8:
  67:hal/Landungsbruecke/tmc/USB.c **** }
 162              		.loc 1 67 2 is_stmt 0 discriminator 3 view .LVU29
 163              	.LBE8:
 164              	.LBE7:
  72:hal/Landungsbruecke/tmc/USB.c **** 	{
 165              		.loc 1 72 33 is_stmt 1 discriminator 3 view .LVU30
  72:hal/Landungsbruecke/tmc/USB.c **** 	{
 166              		.loc 1 72 34 is_stmt 0 discriminator 3 view .LVU31
 167 0030 0134     		adds	r4, r4, #1
 168              	.LVL9:
  72:hal/Landungsbruecke/tmc/USB.c **** 	{
 169              		.loc 1 72 34 discriminator 3 view .LVU32
 170 0032 F7E7     		b	.L5
 171              	.LBE10:
 172              		.cfi_endproc
 173              	.LFE4:
 175              		.align	1
 176              		.syntax unified
 177              		.thumb
 178              		.thumb_func
 179              		.fpu softvfp
 181              	deInit:
 182              	.LFB7:
  90:hal/Landungsbruecke/tmc/USB.c **** 
  91:hal/Landungsbruecke/tmc/USB.c **** static void deInit(void)
  92:hal/Landungsbruecke/tmc/USB.c **** {
 183              		.loc 1 92 1 is_stmt 1 view -0
 184              		.cfi_startproc
 185              		@ args = 0, pretend = 0, frame = 0
 186              		@ frame_needed = 0, uses_anonymous_args = 0
  93:hal/Landungsbruecke/tmc/USB.c **** 	USB_DCI_DeInit();
 187              		.loc 1 93 2 view .LVU34
  92:hal/Landungsbruecke/tmc/USB.c **** 	USB_DCI_DeInit();
 188              		.loc 1 92 1 is_stmt 0 view .LVU35
 189 0034 08B5     		push	{r3, lr}
 190              	.LCFI3:
 191              		.cfi_def_cfa_offset 8
 192              		.cfi_offset 3, -8
 193              		.cfi_offset 14, -4
 194              		.loc 1 93 2 view .LVU36
 195 0036 FFF7FEFF 		bl	USB_DCI_DeInit
 196              	.LVL10:
  94:hal/Landungsbruecke/tmc/USB.c **** 	USB_Class_CDC_DeInit(0);
 197              		.loc 1 94 2 is_stmt 1 view .LVU37
 198 003a 0020     		movs	r0, #0
 199 003c FFF7FEFF 		bl	USB_Class_CDC_DeInit
 200              	.LVL11:
  95:hal/Landungsbruecke/tmc/USB.c **** 	USB_Class_DeInit(0);
 201              		.loc 1 95 2 view .LVU38
 202 0040 0020     		movs	r0, #0
 203 0042 FFF7FEFF 		bl	USB_Class_DeInit
 204              	.LVL12:
  96:hal/Landungsbruecke/tmc/USB.c **** 
  97:hal/Landungsbruecke/tmc/USB.c **** 	SIM_SCGC4 &= ~SIM_SCGC4_USBOTG_MASK;
 205              		.loc 1 97 2 view .LVU39
 206              		.loc 1 97 12 is_stmt 0 view .LVU40
 207 0046 0A4B     		ldr	r3, .L8
 208 0048 41F23401 		movw	r1, #4148
 209 004c 5A58     		ldr	r2, [r3, r1]
 210 004e 22F48022 		bic	r2, r2, #262144
 211 0052 5A50     		str	r2, [r3, r1]
  98:hal/Landungsbruecke/tmc/USB.c **** 	SIM_SCGC6 &= ~SIM_SCGC6_USBDCD_MASK;
 212              		.loc 1 98 2 is_stmt 1 view .LVU41
 213              		.loc 1 98 12 is_stmt 0 view .LVU42
 214 0054 41F23C01 		movw	r1, #4156
 215 0058 5A58     		ldr	r2, [r3, r1]
 216 005a 22F40012 		bic	r2, r2, #2097152
 217 005e 5A50     		str	r2, [r3, r1]
  99:hal/Landungsbruecke/tmc/USB.c **** 	SIM_SOPT2 &= ~SIM_SOPT2_USBSRC_MASK;
 218              		.loc 1 99 2 is_stmt 1 view .LVU43
 219              		.loc 1 99 12 is_stmt 0 view .LVU44
 220 0060 41F20401 		movw	r1, #4100
 221 0064 5A58     		ldr	r2, [r3, r1]
 222 0066 22F48022 		bic	r2, r2, #262144
 223 006a 5A50     		str	r2, [r3, r1]
 100:hal/Landungsbruecke/tmc/USB.c **** }
 224              		.loc 1 100 1 view .LVU45
 225 006c 08BD     		pop	{r3, pc}
 226              	.L9:
 227 006e 00BF     		.align	2
 228              	.L8:
 229 0070 00700440 		.word	1074032640
 230              		.cfi_endproc
 231              	.LFE7:
 233              		.align	1
 234              		.syntax unified
 235              		.thumb
 236              		.thumb_func
 237              		.fpu softvfp
 239              	init:
 240              	.LFB0:
  38:hal/Landungsbruecke/tmc/USB.c **** 	USB0_Init();
 241              		.loc 1 38 1 is_stmt 1 view -0
 242              		.cfi_startproc
 243              		@ args = 0, pretend = 0, frame = 0
 244              		@ frame_needed = 0, uses_anonymous_args = 0
  39:hal/Landungsbruecke/tmc/USB.c **** 	Tx1_Init();
 245              		.loc 1 39 2 view .LVU47
  38:hal/Landungsbruecke/tmc/USB.c **** 	USB0_Init();
 246              		.loc 1 38 1 is_stmt 0 view .LVU48
 247 0074 08B5     		push	{r3, lr}
 248              	.LCFI4:
 249              		.cfi_def_cfa_offset 8
 250              		.cfi_offset 3, -8
 251              		.cfi_offset 14, -4
  39:hal/Landungsbruecke/tmc/USB.c **** 	Tx1_Init();
 252              		.loc 1 39 2 view .LVU49
 253 0076 FFF7FEFF 		bl	USB0_Init
 254              	.LVL13:
  40:hal/Landungsbruecke/tmc/USB.c **** 	Rx1_Init();
 255              		.loc 1 40 2 is_stmt 1 view .LVU50
 256 007a FFF7FEFF 		bl	Tx1_Init
 257              	.LVL14:
  41:hal/Landungsbruecke/tmc/USB.c **** 	USB1_Init();
 258              		.loc 1 41 2 view .LVU51
 259 007e FFF7FEFF 		bl	Rx1_Init
 260              	.LVL15:
  42:hal/Landungsbruecke/tmc/USB.c **** 	enable_irq(INT_USB0-16);
 261              		.loc 1 42 2 view .LVU52
 262 0082 FFF7FEFF 		bl	USB1_Init
 263              	.LVL16:
  43:hal/Landungsbruecke/tmc/USB.c **** }
 264              		.loc 1 43 2 view .LVU53
  44:hal/Landungsbruecke/tmc/USB.c **** 
 265              		.loc 1 44 1 is_stmt 0 view .LVU54
 266 0086 BDE80840 		pop	{r3, lr}
 267              	.LCFI5:
 268              		.cfi_restore 14
 269              		.cfi_restore 3
 270              		.cfi_def_cfa_offset 0
  43:hal/Landungsbruecke/tmc/USB.c **** }
 271              		.loc 1 43 2 view .LVU55
 272 008a 4920     		movs	r0, #73
 273 008c FFF7FEBF 		b	enable_irq
 274              	.LVL17:
 275              		.cfi_endproc
 276              	.LFE0:
 278              		.align	1
 279              		.syntax unified
 280              		.thumb
 281              		.thumb_func
 282              		.fpu softvfp
 284              	rxN:
 285              	.LVL18:
 286              	.LFB2:
  52:hal/Landungsbruecke/tmc/USB.c **** 	if(CDC1_GetCharsInRxBuf() >= number)
 287              		.loc 1 52 1 is_stmt 1 view -0
 288              		.cfi_startproc
 289              		@ args = 0, pretend = 0, frame = 0
 290              		@ frame_needed = 0, uses_anonymous_args = 0
  53:hal/Landungsbruecke/tmc/USB.c **** 	{
 291              		.loc 1 53 2 view .LVU57
  52:hal/Landungsbruecke/tmc/USB.c **** 	if(CDC1_GetCharsInRxBuf() >= number)
 292              		.loc 1 52 1 is_stmt 0 view .LVU58
 293 0090 70B5     		push	{r4, r5, r6, lr}
 294              	.LCFI6:
 295              		.cfi_def_cfa_offset 16
 296              		.cfi_offset 4, -16
 297              		.cfi_offset 5, -12
 298              		.cfi_offset 6, -8
 299              		.cfi_offset 14, -4
  52:hal/Landungsbruecke/tmc/USB.c **** 	if(CDC1_GetCharsInRxBuf() >= number)
 300              		.loc 1 52 1 view .LVU59
 301 0092 0C46     		mov	r4, r1
 302 0094 0646     		mov	r6, r0
  53:hal/Landungsbruecke/tmc/USB.c **** 	{
 303              		.loc 1 53 5 view .LVU60
 304 0096 FFF7FEFF 		bl	CDC1_GetCharsInRxBuf
 305              	.LVL19:
  53:hal/Landungsbruecke/tmc/USB.c **** 	{
 306              		.loc 1 53 4 view .LVU61
 307 009a A042     		cmp	r0, r4
 308 009c 0BD2     		bcs	.L16
 309              	.L14:
  62:hal/Landungsbruecke/tmc/USB.c **** }
 310              		.loc 1 62 9 view .LVU62
 311 009e 0020     		movs	r0, #0
 312              	.L13:
  63:hal/Landungsbruecke/tmc/USB.c **** 
 313              		.loc 1 63 1 view .LVU63
 314 00a0 70BD     		pop	{r4, r5, r6, pc}
 315              	.LVL20:
 316              	.L15:
 317              	.LBB15:
 318              	.LBB16:
 319              	.LBB17:
  57:hal/Landungsbruecke/tmc/USB.c **** 				return false;
 320              		.loc 1 57 4 is_stmt 1 view .LVU64
  57:hal/Landungsbruecke/tmc/USB.c **** 				return false;
 321              		.loc 1 57 7 is_stmt 0 view .LVU65
 322 00a2 7019     		adds	r0, r6, r5
 323 00a4 FFF7FEFF 		bl	Rx1_Get
 324              	.LVL21:
  57:hal/Landungsbruecke/tmc/USB.c **** 				return false;
 325              		.loc 1 57 6 view .LVU66
 326 00a8 0028     		cmp	r0, #0
 327 00aa F8D1     		bne	.L14
  55:hal/Landungsbruecke/tmc/USB.c **** 		{
 328              		.loc 1 55 34 is_stmt 1 view .LVU67
  55:hal/Landungsbruecke/tmc/USB.c **** 		{
 329              		.loc 1 55 35 is_stmt 0 view .LVU68
 330 00ac 0135     		adds	r5, r5, #1
 331              	.LVL22:
 332              	.L12:
  55:hal/Landungsbruecke/tmc/USB.c **** 		{
 333              		.loc 1 55 22 is_stmt 1 view .LVU69
  55:hal/Landungsbruecke/tmc/USB.c **** 		{
 334              		.loc 1 55 3 is_stmt 0 view .LVU70
 335 00ae A542     		cmp	r5, r4
 336 00b0 F7DB     		blt	.L15
 337              	.LBE17:
  60:hal/Landungsbruecke/tmc/USB.c **** 	}
 338              		.loc 1 60 10 view .LVU71
 339 00b2 0120     		movs	r0, #1
 340 00b4 F4E7     		b	.L13
 341              	.LVL23:
 342              	.L16:
 343              	.LBB18:
  55:hal/Landungsbruecke/tmc/USB.c **** 		{
 344              		.loc 1 55 15 view .LVU72
 345 00b6 0025     		movs	r5, #0
 346 00b8 F9E7     		b	.L12
 347              	.LBE18:
 348              	.LBE16:
 349              	.LBE15:
 350              		.cfi_endproc
 351              	.LFE2:
 353              		.align	1
 354              		.syntax unified
 355              		.thumb
 356              		.thumb_func
 357              		.fpu softvfp
 359              	rx:
 360              	.LVL24:
 361              	.LFB1:
  47:hal/Landungsbruecke/tmc/USB.c **** 	return rxN(ch,1);
 362              		.loc 1 47 1 is_stmt 1 view -0
 363              		.cfi_startproc
 364              		@ args = 0, pretend = 0, frame = 0
 365              		@ frame_needed = 0, uses_anonymous_args = 0
 366              		@ link register save eliminated.
  48:hal/Landungsbruecke/tmc/USB.c **** }
 367              		.loc 1 48 2 view .LVU74
  48:hal/Landungsbruecke/tmc/USB.c **** }
 368              		.loc 1 48 9 is_stmt 0 view .LVU75
 369 00ba 0121     		movs	r1, #1
 370 00bc E8E7     		b	rxN
 371              	.LVL25:
  48:hal/Landungsbruecke/tmc/USB.c **** }
 372              		.loc 1 48 9 view .LVU76
 373              		.cfi_endproc
 374              	.LFE1:
 376              		.comm	hwid,1,1
 377              		.comm	HAL,48,4
 378              		.comm	UART,40,4
 379              		.comm	Timer,16,4
 380              		.comm	WLAN,36,4
 381              		.comm	RS232,36,4
 382              		.comm	LEDs,28,4
 383              		.global	USB
 384              		.comm	uart0_interrupt,1,1
 385              		.comm	ADCs,32,4
 386              		.comm	SPI,44,4
 387              		.comm	IOMap,2088,4
 388              		.comm	IOs,52,4
 389              		.comm	Cpu,8,4
 390              		.data
 391              		.align	2
 394              	USB:
 395 0000 00000000 		.word	init
 396 0004 00000000 		.word	deInit
 397 0008 00000000 		.word	tx
 398 000c 00000000 		.word	rx
 399 0010 00000000 		.word	txN
 400 0014 00000000 		.word	rxN
 401 0018 00000000 		.word	clearBuffers
 402 001c 00000000 		.word	bytesAvailable
 403 0020 00080700 		.word	460800
 404              		.bss
 405              		.align	1
 408              	ADCValue:
 409 0000 00000000 		.space	12
 409      00000000 
 409      00000000 
 410              		.text
 411              	.Letext0:
 412              		.file 2 "c:\\program files (x86)\\gnu arm embedded toolchain\\9 2020-q2-update\\lib\\gcc\\arm-none
 413              		.file 3 "c:\\program files (x86)\\gnu arm embedded toolchain\\9 2020-q2-update\\arm-none-eabi\\inc
 414              		.file 4 "c:\\program files (x86)\\gnu arm embedded toolchain\\9 2020-q2-update\\arm-none-eabi\\inc
 415              		.file 5 "TMC-API/tmc/helpers/Types.h"
 416              		.file 6 "c:\\program files (x86)\\gnu arm embedded toolchain\\9 2020-q2-update\\arm-none-eabi\\inc
 417              		.file 7 "c:\\program files (x86)\\gnu arm embedded toolchain\\9 2020-q2-update\\arm-none-eabi\\inc
 418              		.file 8 "c:\\program files (x86)\\gnu arm embedded toolchain\\9 2020-q2-update\\arm-none-eabi\\inc
 419              		.file 9 "c:\\program files (x86)\\gnu arm embedded toolchain\\9 2020-q2-update\\arm-none-eabi\\inc
 420              		.file 10 "hal/Landungsbruecke/freescale/MK20D10.h"
 421              		.file 11 "./hal/Landungsbruecke/freescale/USB_CDC/PE_Types.h"
 422              		.file 12 "./hal/Landungsbruecke/freescale/Cpu.h"
 423              		.file 13 "./hal/IOs.h"
 424              		.file 14 "./hal/IOMap.h"
 425              		.file 15 "./hal/SPI.h"
 426              		.file 16 "./hal/ADCs.h"
 427              		.file 17 "./hal/RXTX.h"
 428              		.file 18 "./hal/USB.h"
 429              		.file 19 "./hal/LEDs.h"
 430              		.file 20 "./hal/RS232.h"
 431              		.file 21 "./hal/WLAN.h"
 432              		.file 22 "./hal/Timer.h"
 433              		.file 23 "./hal/UART.h"
 434              		.file 24 "./hal/HAL.h"
 435              		.file 25 "./hal/Landungsbruecke/freescale/USB_CDC/CDC1.h"
 436              		.file 26 "./hal/Landungsbruecke/freescale/USB_CDC/Tx1.h"
 437              		.file 27 "./hal/Landungsbruecke/freescale/USB_CDC/Rx1.h"
 438              		.file 28 "./hal/Landungsbruecke/freescale/USB_CDC/USB0.h"
 439              		.file 29 "./hal/Landungsbruecke/freescale/USB_CDC/USB1.h"
 440              		.file 30 "./hal/Landungsbruecke/freescale/nvic.h"