   1              		.cpu cortex-m4
   2              		.eabi_attribute 20, 1
   3              		.eabi_attribute 21, 1
   4              		.eabi_attribute 23, 3
   5              		.eabi_attribute 24, 1
   6              		.eabi_attribute 25, 1
   7              		.eabi_attribute 26, 1
   8              		.eabi_attribute 30, 4
   9              		.eabi_attribute 34, 1
  10              		.eabi_attribute 18, 4
  11              		.file	"USB1.c"
  12              		.text
  13              	.Ltext0:
  14              		.cfi_sections	.debug_frame
  15              		.align	1
  16              		.global	USB1_usb_int_dis
  17              		.arch armv7e-m
  18              		.syntax unified
  19              		.thumb
  20              		.thumb_func
  21              		.fpu softvfp
  23              	USB1_usb_int_dis:
  24              	.LFB0:
  25              		.file 1 "hal/Landungsbruecke/freescale/USB_CDC/USB1.c"
   1:hal/Landungsbruecke/freescale/USB_CDC/USB1.c **** /* ###################################################################
   2:hal/Landungsbruecke/freescale/USB_CDC/USB1.c **** **     THIS COMPONENT MODULE IS GENERATED BY THE TOOL. DO NOT MODIFY IT.
   3:hal/Landungsbruecke/freescale/USB_CDC/USB1.c **** **     Filename    : USB1.c
   4:hal/Landungsbruecke/freescale/USB_CDC/USB1.c **** **     Project     : Landungsbruecke_KDS_v2.0.0
   5:hal/Landungsbruecke/freescale/USB_CDC/USB1.c **** **     Processor   : MK20DN512VLL10
   6:hal/Landungsbruecke/freescale/USB_CDC/USB1.c **** **     Component   : FSL_USB_Stack
   7:hal/Landungsbruecke/freescale/USB_CDC/USB1.c **** **     Version     : Component 01.025, Driver 01.00, CPU db: 3.00.000
   8:hal/Landungsbruecke/freescale/USB_CDC/USB1.c **** **     Compiler    : GNU C Compiler
   9:hal/Landungsbruecke/freescale/USB_CDC/USB1.c **** **     Date/Time   : 2015-01-09, 16:27, # CodeGen: 0
  10:hal/Landungsbruecke/freescale/USB_CDC/USB1.c **** **     Abstract    :
  11:hal/Landungsbruecke/freescale/USB_CDC/USB1.c **** **         This component implements a wrapper to the FSL USB Stack.
  12:hal/Landungsbruecke/freescale/USB_CDC/USB1.c **** **     Settings    :
  13:hal/Landungsbruecke/freescale/USB_CDC/USB1.c **** **          Component name                                 : USB1
  14:hal/Landungsbruecke/freescale/USB_CDC/USB1.c **** **          Freescale USB Stack Version                    : v4.1.1
  15:hal/Landungsbruecke/freescale/USB_CDC/USB1.c **** **          USB                                            : Init_USB_OTG_VAR0
  16:hal/Landungsbruecke/freescale/USB_CDC/USB1.c **** **          Device Class                                   : CDC Device
  17:hal/Landungsbruecke/freescale/USB_CDC/USB1.c **** **          CDC Device                                     : Enabled
  18:hal/Landungsbruecke/freescale/USB_CDC/USB1.c **** **            CDCDevice                                    : FSL_USB_CDC_Device
  19:hal/Landungsbruecke/freescale/USB_CDC/USB1.c **** **          HID Keyboard Device                            : Disabled
  20:hal/Landungsbruecke/freescale/USB_CDC/USB1.c **** **          MSD Host                                       : Disabled
  21:hal/Landungsbruecke/freescale/USB_CDC/USB1.c **** **          Call Init Method                               : yes
  22:hal/Landungsbruecke/freescale/USB_CDC/USB1.c **** **     Contents    :
  23:hal/Landungsbruecke/freescale/USB_CDC/USB1.c **** **         Init - byte USB1_Init(void);
  24:hal/Landungsbruecke/freescale/USB_CDC/USB1.c **** **
  25:hal/Landungsbruecke/freescale/USB_CDC/USB1.c **** **     (c) Copyright Freescale, all rights reserved, 2013-2014.
  26:hal/Landungsbruecke/freescale/USB_CDC/USB1.c **** **     Ported as Processor Expert component: Erich Styger
  27:hal/Landungsbruecke/freescale/USB_CDC/USB1.c **** **     http: www.mcuoneclipse.com
  28:hal/Landungsbruecke/freescale/USB_CDC/USB1.c **** ** ###################################################################*/
  29:hal/Landungsbruecke/freescale/USB_CDC/USB1.c **** /*!
  30:hal/Landungsbruecke/freescale/USB_CDC/USB1.c **** ** @file USB1.c
  31:hal/Landungsbruecke/freescale/USB_CDC/USB1.c **** ** @version 01.00
  32:hal/Landungsbruecke/freescale/USB_CDC/USB1.c **** ** @brief
  33:hal/Landungsbruecke/freescale/USB_CDC/USB1.c **** **         This component implements a wrapper to the FSL USB Stack.
  34:hal/Landungsbruecke/freescale/USB_CDC/USB1.c **** */
  35:hal/Landungsbruecke/freescale/USB_CDC/USB1.c **** /*!
  36:hal/Landungsbruecke/freescale/USB_CDC/USB1.c **** **  @addtogroup USB1_module USB1 module documentation
  37:hal/Landungsbruecke/freescale/USB_CDC/USB1.c **** **  @{
  38:hal/Landungsbruecke/freescale/USB_CDC/USB1.c **** */
  39:hal/Landungsbruecke/freescale/USB_CDC/USB1.c **** 
  40:hal/Landungsbruecke/freescale/USB_CDC/USB1.c **** /* MODULE USB1. */
  41:hal/Landungsbruecke/freescale/USB_CDC/USB1.c **** 
  42:hal/Landungsbruecke/freescale/USB_CDC/USB1.c **** #include "USB1.h"
  43:hal/Landungsbruecke/freescale/USB_CDC/USB1.c **** #include "hal/derivative.h"     /* include peripheral declarations */
  44:hal/Landungsbruecke/freescale/USB_CDC/USB1.c **** 
  45:hal/Landungsbruecke/freescale/USB_CDC/USB1.c **** /*
  46:hal/Landungsbruecke/freescale/USB_CDC/USB1.c **** ** ===================================================================
  47:hal/Landungsbruecke/freescale/USB_CDC/USB1.c **** **     Method      :  USB1_usb_int_dis (component FSL_USB_Stack)
  48:hal/Landungsbruecke/freescale/USB_CDC/USB1.c **** **
  49:hal/Landungsbruecke/freescale/USB_CDC/USB1.c **** **     Description :
  50:hal/Landungsbruecke/freescale/USB_CDC/USB1.c **** **         Disables USB interrupts (if supported)
  51:hal/Landungsbruecke/freescale/USB_CDC/USB1.c **** **         This method is internal. It is used by Processor Expert only.
  52:hal/Landungsbruecke/freescale/USB_CDC/USB1.c **** ** ===================================================================
  53:hal/Landungsbruecke/freescale/USB_CDC/USB1.c **** */
  54:hal/Landungsbruecke/freescale/USB_CDC/USB1.c **** void USB1_usb_int_dis(void)
  55:hal/Landungsbruecke/freescale/USB_CDC/USB1.c **** {
  26              		.loc 1 55 1 view -0
  27              		.cfi_startproc
  28              		@ args = 0, pretend = 0, frame = 0
  29              		@ frame_needed = 0, uses_anonymous_args = 0
  30              		@ link register save eliminated.
  56:hal/Landungsbruecke/freescale/USB_CDC/USB1.c ****   /* Kinetis K20D72 */
  57:hal/Landungsbruecke/freescale/USB_CDC/USB1.c ****   NVICISER1 = (1<<9);    /* Disable interrupts from USB module (Interrupt Clear-Enable Register) */
  31              		.loc 1 57 3 view .LVU1
  32              		.loc 1 57 13 is_stmt 0 view .LVU2
  33 0000 024B     		ldr	r3, .L2
  34 0002 4FF40072 		mov	r2, #512
  35 0006 5A60     		str	r2, [r3, #4]
  58:hal/Landungsbruecke/freescale/USB_CDC/USB1.c **** }
  36              		.loc 1 58 1 view .LVU3
  37 0008 7047     		bx	lr
  38              	.L3:
  39 000a 00BF     		.align	2
  40              	.L2:
  41 000c 00E100E0 		.word	-536813312
  42              		.cfi_endproc
  43              	.LFE0:
  45              		.align	1
  46              		.global	USB1_usb_int_en
  47              		.syntax unified
  48              		.thumb
  49              		.thumb_func
  50              		.fpu softvfp
  52              	USB1_usb_int_en:
  53              	.LFB1:
  59:hal/Landungsbruecke/freescale/USB_CDC/USB1.c **** 
  60:hal/Landungsbruecke/freescale/USB_CDC/USB1.c **** /*
  61:hal/Landungsbruecke/freescale/USB_CDC/USB1.c **** ** ===================================================================
  62:hal/Landungsbruecke/freescale/USB_CDC/USB1.c **** **     Method      :  USB1_usb_int_en (component FSL_USB_Stack)
  63:hal/Landungsbruecke/freescale/USB_CDC/USB1.c **** **
  64:hal/Landungsbruecke/freescale/USB_CDC/USB1.c **** **     Description :
  65:hal/Landungsbruecke/freescale/USB_CDC/USB1.c **** **         Enables USB interrupts (if supported).
  66:hal/Landungsbruecke/freescale/USB_CDC/USB1.c **** **         This method is internal. It is used by Processor Expert only.
  67:hal/Landungsbruecke/freescale/USB_CDC/USB1.c **** ** ===================================================================
  68:hal/Landungsbruecke/freescale/USB_CDC/USB1.c **** */
  69:hal/Landungsbruecke/freescale/USB_CDC/USB1.c **** void USB1_usb_int_en(void)
  70:hal/Landungsbruecke/freescale/USB_CDC/USB1.c **** {
  54              		.loc 1 70 1 is_stmt 1 view -0
  55              		.cfi_startproc
  56              		@ args = 0, pretend = 0, frame = 0
  57              		@ frame_needed = 0, uses_anonymous_args = 0
  58              		@ link register save eliminated.
  71:hal/Landungsbruecke/freescale/USB_CDC/USB1.c ****   /* Kinetis K20D72 */
  72:hal/Landungsbruecke/freescale/USB_CDC/USB1.c ****   NVICICPR2 = (1<<9);    /* Clear any pending interrupts on USB (Interrupt Clear-Pending Register) 
  59              		.loc 1 72 3 view .LVU5
  60              		.loc 1 72 13 is_stmt 0 view .LVU6
  61 0010 034B     		ldr	r3, .L5
  62 0012 4FF40072 		mov	r2, #512
  63 0016 C3F88821 		str	r2, [r3, #392]
  73:hal/Landungsbruecke/freescale/USB_CDC/USB1.c ****   NVICISER2 = (1<<9);    /* Enable interrupts from USB module (Interrupt Set-Enable Register) */
  64              		.loc 1 73 3 is_stmt 1 view .LVU7
  65              		.loc 1 73 13 is_stmt 0 view .LVU8
  66 001a 9A60     		str	r2, [r3, #8]
  74:hal/Landungsbruecke/freescale/USB_CDC/USB1.c **** }
  67              		.loc 1 74 1 view .LVU9
  68 001c 7047     		bx	lr
  69              	.L6:
  70 001e 00BF     		.align	2
  71              	.L5:
  72 0020 00E100E0 		.word	-536813312
  73              		.cfi_endproc
  74              	.LFE1:
  76              		.align	1
  77              		.global	USB1_Init
  78              		.syntax unified
  79              		.thumb
  80              		.thumb_func
  81              		.fpu softvfp
  83              	USB1_Init:
  84              	.LFB2:
  75:hal/Landungsbruecke/freescale/USB_CDC/USB1.c **** 
  76:hal/Landungsbruecke/freescale/USB_CDC/USB1.c **** /*
  77:hal/Landungsbruecke/freescale/USB_CDC/USB1.c **** ** ===================================================================
  78:hal/Landungsbruecke/freescale/USB_CDC/USB1.c **** **     Method      :  USB1_Init (component FSL_USB_Stack)
  79:hal/Landungsbruecke/freescale/USB_CDC/USB1.c **** **     Description :
  80:hal/Landungsbruecke/freescale/USB_CDC/USB1.c **** **         Initializes the driver
  81:hal/Landungsbruecke/freescale/USB_CDC/USB1.c **** **     Parameters  : None
  82:hal/Landungsbruecke/freescale/USB_CDC/USB1.c **** **     Returns     :
  83:hal/Landungsbruecke/freescale/USB_CDC/USB1.c **** **         ---             - Error code
  84:hal/Landungsbruecke/freescale/USB_CDC/USB1.c **** ** ===================================================================
  85:hal/Landungsbruecke/freescale/USB_CDC/USB1.c **** */
  86:hal/Landungsbruecke/freescale/USB_CDC/USB1.c **** byte USB1_Init(void)
  87:hal/Landungsbruecke/freescale/USB_CDC/USB1.c **** {
  85              		.loc 1 87 1 is_stmt 1 view -0
  86              		.cfi_startproc
  87              		@ args = 0, pretend = 0, frame = 0
  88              		@ frame_needed = 0, uses_anonymous_args = 0
  88:hal/Landungsbruecke/freescale/USB_CDC/USB1.c ****   byte err;
  89              		.loc 1 88 3 view .LVU11
  89:hal/Landungsbruecke/freescale/USB_CDC/USB1.c **** 
  90:hal/Landungsbruecke/freescale/USB_CDC/USB1.c ****   /* Initialize the USB interface */
  91:hal/Landungsbruecke/freescale/USB_CDC/USB1.c ****   err = CDC1_Init();
  90              		.loc 1 91 3 view .LVU12
  87:hal/Landungsbruecke/freescale/USB_CDC/USB1.c ****   byte err;
  91              		.loc 1 87 1 is_stmt 0 view .LVU13
  92 0024 08B5     		push	{r3, lr}
  93              	.LCFI0:
  94              		.cfi_def_cfa_offset 8
  95              		.cfi_offset 3, -8
  96              		.cfi_offset 14, -4
  97              		.loc 1 91 9 view .LVU14
  98 0026 FFF7FEFF 		bl	CDC1_Init
  99              	.LVL0:
  92:hal/Landungsbruecke/freescale/USB_CDC/USB1.c ****   if(err != ERR_OK) {
 100              		.loc 1 92 3 is_stmt 1 view .LVU15
 101              		.loc 1 92 5 is_stmt 0 view .LVU16
 102 002a 10B9     		cbnz	r0, .L9
  93:hal/Landungsbruecke/freescale/USB_CDC/USB1.c ****     /* Error initializing USB Class */
  94:hal/Landungsbruecke/freescale/USB_CDC/USB1.c ****     return ERR_FAILED;
  95:hal/Landungsbruecke/freescale/USB_CDC/USB1.c ****   }
  96:hal/Landungsbruecke/freescale/USB_CDC/USB1.c ****   USB1_usb_int_en();
 103              		.loc 1 96 3 is_stmt 1 view .LVU17
 104 002c FFF7FEFF 		bl	USB1_usb_int_en
 105              	.LVL1:
  97:hal/Landungsbruecke/freescale/USB_CDC/USB1.c ****   return ERR_OK;
 106              		.loc 1 97 3 view .LVU18
 107              	.L8:
  98:hal/Landungsbruecke/freescale/USB_CDC/USB1.c **** }
 108              		.loc 1 98 1 is_stmt 0 view .LVU19
 109 0030 08BD     		pop	{r3, pc}
 110              	.LVL2:
 111              	.L9:
  94:hal/Landungsbruecke/freescale/USB_CDC/USB1.c ****   }
 112              		.loc 1 94 12 view .LVU20
 113 0032 1B20     		movs	r0, #27
 114              	.LVL3:
  94:hal/Landungsbruecke/freescale/USB_CDC/USB1.c ****   }
 115              		.loc 1 94 12 view .LVU21
 116 0034 FCE7     		b	.L8
 117              		.cfi_endproc
 118              	.LFE2:
 120              		.comm	Cpu,8,4
 121              	.Letext0:
 122              		.file 2 "c:\\program files (x86)\\gnu arm embedded toolchain\\9 2020-q2-update\\arm-none-eabi\\inc
 123              		.file 3 "c:\\program files (x86)\\gnu arm embedded toolchain\\9 2020-q2-update\\arm-none-eabi\\inc
 124              		.file 4 "TMC-API/tmc/helpers/Types.h"
 125              		.file 5 "c:\\program files (x86)\\gnu arm embedded toolchain\\9 2020-q2-update\\lib\\gcc\\arm-none
 126              		.file 6 "c:\\program files (x86)\\gnu arm embedded toolchain\\9 2020-q2-update\\arm-none-eabi\\inc
 127              		.file 7 "c:\\program files (x86)\\gnu arm embedded toolchain\\9 2020-q2-update\\arm-none-eabi\\inc
 128              		.file 8 "c:\\program files (x86)\\gnu arm embedded toolchain\\9 2020-q2-update\\arm-none-eabi\\inc
 129              		.file 9 "c:\\program files (x86)\\gnu arm embedded toolchain\\9 2020-q2-update\\arm-none-eabi\\inc
 130              		.file 10 "hal/Landungsbruecke/freescale/MK20D10.h"
 131              		.file 11 "./hal/Landungsbruecke/freescale/Cpu.h"
 132              		.file 12 "hal/Landungsbruecke/freescale/USB_CDC/PE_Types.h"
 133              		.file 13 "hal/Landungsbruecke/freescale/USB_CDC/CDC1.h"