   1              		.cpu cortex-m4
   2              		.eabi_attribute 20, 1
   3              		.eabi_attribute 21, 1
   4              		.eabi_attribute 23, 3
   5              		.eabi_attribute 24, 1
   6              		.eabi_attribute 25, 1
   7              		.eabi_attribute 26, 1
   8              		.eabi_attribute 30, 4
   9              		.eabi_attribute 34, 1
  10              		.eabi_attribute 18, 4
  11              		.file	"usb_framework.c"
  12              		.text
  13              	.Ltext0:
  14              		.cfi_sections	.debug_frame
  15              		.align	1
  16              		.arch armv7e-m
  17              		.syntax unified
  18              		.thumb
  19              		.thumb_func
  20              		.fpu softvfp
  22              	USB_Strd_Req_Sync_Frame:
  23              	.LVL0:
  24              	.LFB13:
  25              		.file 1 "hal/Landungsbruecke/freescale/USB_CDC/usb_framework.c"
   1:hal/Landungsbruecke/freescale/USB_CDC/usb_framework.c **** /******************************************************************************
   2:hal/Landungsbruecke/freescale/USB_CDC/usb_framework.c ****  *
   3:hal/Landungsbruecke/freescale/USB_CDC/usb_framework.c ****  * Freescale Semiconductor Inc.
   4:hal/Landungsbruecke/freescale/USB_CDC/usb_framework.c ****  * (c) Copyright 2004-2010 Freescale Semiconductor, Inc.
   5:hal/Landungsbruecke/freescale/USB_CDC/usb_framework.c ****  * ALL RIGHTS RESERVED.
   6:hal/Landungsbruecke/freescale/USB_CDC/usb_framework.c ****  *
   7:hal/Landungsbruecke/freescale/USB_CDC/usb_framework.c ****  ******************************************************************************
   8:hal/Landungsbruecke/freescale/USB_CDC/usb_framework.c ****  *
   9:hal/Landungsbruecke/freescale/USB_CDC/usb_framework.c ****  * THIS SOFTWARE IS PROVIDED BY FREESCALE "AS IS" AND ANY EXPRESSED OR
  10:hal/Landungsbruecke/freescale/USB_CDC/usb_framework.c ****  * IMPLIED WARRANTIES, INCLUDING, BUT NOT LIMITED TO, THE IMPLIED WARRANTIES
  11:hal/Landungsbruecke/freescale/USB_CDC/usb_framework.c ****  * OF MERCHANTABILITY AND FITNESS FOR A PARTICULAR PURPOSE ARE DISCLAIMED.
  12:hal/Landungsbruecke/freescale/USB_CDC/usb_framework.c ****  * IN NO EVENT SHALL FREESCALE OR ITS CONTRIBUTORS BE LIABLE FOR ANY DIRECT,
  13:hal/Landungsbruecke/freescale/USB_CDC/usb_framework.c ****  * INDIRECT, INCIDENTAL, SPECIAL, EXEMPLARY, OR CONSEQUENTIAL DAMAGES
  14:hal/Landungsbruecke/freescale/USB_CDC/usb_framework.c ****  * (INCLUDING, BUT NOT LIMITED TO, PROCUREMENT OF SUBSTITUTE GOODS OR
  15:hal/Landungsbruecke/freescale/USB_CDC/usb_framework.c ****  * SERVICES; LOSS OF USE, DATA, OR PROFITS; OR BUSINESS INTERRUPTION)
  16:hal/Landungsbruecke/freescale/USB_CDC/usb_framework.c ****  * HOWEVER CAUSED AND ON ANY THEORY OF LIABILITY, WHETHER IN CONTRACT,
  17:hal/Landungsbruecke/freescale/USB_CDC/usb_framework.c ****  * STRICT LIABILITY, OR TORT (INCLUDING NEGLIGENCE OR OTHERWISE) ARISING
  18:hal/Landungsbruecke/freescale/USB_CDC/usb_framework.c ****  * IN ANY WAY OUT OF THE USE OF THIS SOFTWARE, EVEN IF ADVISED OF
  19:hal/Landungsbruecke/freescale/USB_CDC/usb_framework.c ****  * THE POSSIBILITY OF SUCH DAMAGE.
  20:hal/Landungsbruecke/freescale/USB_CDC/usb_framework.c ****  *
  21:hal/Landungsbruecke/freescale/USB_CDC/usb_framework.c ****  **************************************************************************//*!
  22:hal/Landungsbruecke/freescale/USB_CDC/usb_framework.c ****  *
  23:hal/Landungsbruecke/freescale/USB_CDC/usb_framework.c ****  * @file usb_framework.c
  24:hal/Landungsbruecke/freescale/USB_CDC/usb_framework.c ****  *
  25:hal/Landungsbruecke/freescale/USB_CDC/usb_framework.c ****  * @author
  26:hal/Landungsbruecke/freescale/USB_CDC/usb_framework.c ****  *
  27:hal/Landungsbruecke/freescale/USB_CDC/usb_framework.c ****  * @version
  28:hal/Landungsbruecke/freescale/USB_CDC/usb_framework.c ****  *
  29:hal/Landungsbruecke/freescale/USB_CDC/usb_framework.c ****  * @date
  30:hal/Landungsbruecke/freescale/USB_CDC/usb_framework.c ****  *
  31:hal/Landungsbruecke/freescale/USB_CDC/usb_framework.c ****  * @brief The file contains USB stack framework module implementation.
  32:hal/Landungsbruecke/freescale/USB_CDC/usb_framework.c ****  *
  33:hal/Landungsbruecke/freescale/USB_CDC/usb_framework.c ****  *****************************************************************************/
  34:hal/Landungsbruecke/freescale/USB_CDC/usb_framework.c **** 
  35:hal/Landungsbruecke/freescale/USB_CDC/usb_framework.c **** /******************************************************************************
  36:hal/Landungsbruecke/freescale/USB_CDC/usb_framework.c ****  * Includes
  37:hal/Landungsbruecke/freescale/USB_CDC/usb_framework.c ****  *****************************************************************************/
  38:hal/Landungsbruecke/freescale/USB_CDC/usb_framework.c **** #include "types.h"          /* Contains User Defined Data Types */
  39:hal/Landungsbruecke/freescale/USB_CDC/usb_framework.c **** #include "usb_class.h"      /* USB class Header File */
  40:hal/Landungsbruecke/freescale/USB_CDC/usb_framework.c **** #include "usb_framework.h"  /* USB Framework Header File */
  41:hal/Landungsbruecke/freescale/USB_CDC/usb_framework.c **** #include "usb_descriptor.h" /* USB descriptor Header File */
  42:hal/Landungsbruecke/freescale/USB_CDC/usb_framework.c **** #if defined(__IAR_SYSTEMS_ICC__)
  43:hal/Landungsbruecke/freescale/USB_CDC/usb_framework.c **** #include <intrinsics.h>
  44:hal/Landungsbruecke/freescale/USB_CDC/usb_framework.c **** #endif
  45:hal/Landungsbruecke/freescale/USB_CDC/usb_framework.c **** #ifdef OTG_BUILD
  46:hal/Landungsbruecke/freescale/USB_CDC/usb_framework.c **** #include "usb_otg_main.h"   /* OTG header file */
  47:hal/Landungsbruecke/freescale/USB_CDC/usb_framework.c **** #endif
  48:hal/Landungsbruecke/freescale/USB_CDC/usb_framework.c **** #include <string.h>
  49:hal/Landungsbruecke/freescale/USB_CDC/usb_framework.c **** /*****************************************************************************
  50:hal/Landungsbruecke/freescale/USB_CDC/usb_framework.c ****  * Constant and Macro's
  51:hal/Landungsbruecke/freescale/USB_CDC/usb_framework.c ****  *****************************************************************************/
  52:hal/Landungsbruecke/freescale/USB_CDC/usb_framework.c **** /****************************************************************************
  53:hal/Landungsbruecke/freescale/USB_CDC/usb_framework.c ****  * Global Variables
  54:hal/Landungsbruecke/freescale/USB_CDC/usb_framework.c ****  ****************************************************************************/
  55:hal/Landungsbruecke/freescale/USB_CDC/usb_framework.c **** static USB_SETUP_STRUCT g_setup_pkt;
  56:hal/Landungsbruecke/freescale/USB_CDC/usb_framework.c **** 
  57:hal/Landungsbruecke/freescale/USB_CDC/usb_framework.c **** /*is used to store the value of data which needs to be sent to the USB
  58:hal/Landungsbruecke/freescale/USB_CDC/usb_framework.c **** host in response to the standard requests.*/
  59:hal/Landungsbruecke/freescale/USB_CDC/usb_framework.c **** static uint_16 g_std_framework_data;
  60:hal/Landungsbruecke/freescale/USB_CDC/usb_framework.c **** /*used to store the address received in Set Address in the standard request.*/
  61:hal/Landungsbruecke/freescale/USB_CDC/usb_framework.c **** static uint_8  g_assigned_address;
  62:hal/Landungsbruecke/freescale/USB_CDC/usb_framework.c **** /* Framework module callback pointer */
  63:hal/Landungsbruecke/freescale/USB_CDC/usb_framework.c **** static USB_CLASS_CALLBACK g_framework_callback=NULL;
  64:hal/Landungsbruecke/freescale/USB_CDC/usb_framework.c **** /* Other Requests Callback pointer */
  65:hal/Landungsbruecke/freescale/USB_CDC/usb_framework.c **** static USB_REQ_FUNC g_other_req_callback=NULL;
  66:hal/Landungsbruecke/freescale/USB_CDC/usb_framework.c **** 
  67:hal/Landungsbruecke/freescale/USB_CDC/usb_framework.c **** #ifdef DELAYED_PROCESSING
  68:hal/Landungsbruecke/freescale/USB_CDC/usb_framework.c **** static USB_DEV_EVENT_STRUCT g_f_event;
  69:hal/Landungsbruecke/freescale/USB_CDC/usb_framework.c **** /* initially no pending request */
  70:hal/Landungsbruecke/freescale/USB_CDC/usb_framework.c **** static boolean g_control_pending=FALSE;
  71:hal/Landungsbruecke/freescale/USB_CDC/usb_framework.c **** #endif
  72:hal/Landungsbruecke/freescale/USB_CDC/usb_framework.c **** 
  73:hal/Landungsbruecke/freescale/USB_CDC/usb_framework.c **** 
  74:hal/Landungsbruecke/freescale/USB_CDC/usb_framework.c **** boolean const g_validate_request[MAX_STRD_REQ][3] =
  75:hal/Landungsbruecke/freescale/USB_CDC/usb_framework.c **** {
  76:hal/Landungsbruecke/freescale/USB_CDC/usb_framework.c ****   {TRUE,TRUE,FALSE}, /*USB_Strd_Req_Get_Status*/
  77:hal/Landungsbruecke/freescale/USB_CDC/usb_framework.c ****          /* configured state: valid for existing interfaces/endpoints
  78:hal/Landungsbruecke/freescale/USB_CDC/usb_framework.c ****             address state   : valid only for interface or endpoint 0
  79:hal/Landungsbruecke/freescale/USB_CDC/usb_framework.c ****             default state   : not specified
  80:hal/Landungsbruecke/freescale/USB_CDC/usb_framework.c ****          */
  81:hal/Landungsbruecke/freescale/USB_CDC/usb_framework.c ****   {TRUE,TRUE,FALSE}, /* Clear Feature */
  82:hal/Landungsbruecke/freescale/USB_CDC/usb_framework.c ****          /* configured state: valid only for device in configured state
  83:hal/Landungsbruecke/freescale/USB_CDC/usb_framework.c ****             address state   : valid only for device (in address state),
  84:hal/Landungsbruecke/freescale/USB_CDC/usb_framework.c ****                               interface and endpoint 0
  85:hal/Landungsbruecke/freescale/USB_CDC/usb_framework.c ****             default state   : not specified
  86:hal/Landungsbruecke/freescale/USB_CDC/usb_framework.c ****          */
  87:hal/Landungsbruecke/freescale/USB_CDC/usb_framework.c ****   {FALSE,FALSE,FALSE}, /*reserved for future use*/
  88:hal/Landungsbruecke/freescale/USB_CDC/usb_framework.c ****          /* configured state: request not supported
  89:hal/Landungsbruecke/freescale/USB_CDC/usb_framework.c ****             address state   : request not supported
  90:hal/Landungsbruecke/freescale/USB_CDC/usb_framework.c ****             default state   : request not supported
  91:hal/Landungsbruecke/freescale/USB_CDC/usb_framework.c ****          */
  92:hal/Landungsbruecke/freescale/USB_CDC/usb_framework.c **** #ifdef OTG_BUILD
  93:hal/Landungsbruecke/freescale/USB_CDC/usb_framework.c ****   {TRUE,TRUE,TRUE}, /* Set Feature */
  94:hal/Landungsbruecke/freescale/USB_CDC/usb_framework.c ****         /*  configured state: A B-device that supports OTG features
  95:hal/Landungsbruecke/freescale/USB_CDC/usb_framework.c ****             address state   : shall be able to accept the SetFeature command
  96:hal/Landungsbruecke/freescale/USB_CDC/usb_framework.c ****             default state   : in the Default, Addressed and Configured states
  97:hal/Landungsbruecke/freescale/USB_CDC/usb_framework.c ****         */
  98:hal/Landungsbruecke/freescale/USB_CDC/usb_framework.c **** #else
  99:hal/Landungsbruecke/freescale/USB_CDC/usb_framework.c ****   {TRUE,TRUE,FALSE}, /* Set Feature */
 100:hal/Landungsbruecke/freescale/USB_CDC/usb_framework.c ****         /*  configured state: valid only for device in configured state
 101:hal/Landungsbruecke/freescale/USB_CDC/usb_framework.c ****             address state   : valid only for interface or endpoint 0
 102:hal/Landungsbruecke/freescale/USB_CDC/usb_framework.c ****             default state   : not specified
 103:hal/Landungsbruecke/freescale/USB_CDC/usb_framework.c ****         */
 104:hal/Landungsbruecke/freescale/USB_CDC/usb_framework.c **** #endif
 105:hal/Landungsbruecke/freescale/USB_CDC/usb_framework.c **** 
 106:hal/Landungsbruecke/freescale/USB_CDC/usb_framework.c ****   {FALSE,FALSE,FALSE},/*reserved for future use*/
 107:hal/Landungsbruecke/freescale/USB_CDC/usb_framework.c ****         /*  configured state: request not supported
 108:hal/Landungsbruecke/freescale/USB_CDC/usb_framework.c ****             address state   : request not supported
 109:hal/Landungsbruecke/freescale/USB_CDC/usb_framework.c ****             default state   : request not supported
 110:hal/Landungsbruecke/freescale/USB_CDC/usb_framework.c ****          */
 111:hal/Landungsbruecke/freescale/USB_CDC/usb_framework.c ****   {FALSE,TRUE,TRUE}, /*USB_Strd_Req_Set_Address*/
 112:hal/Landungsbruecke/freescale/USB_CDC/usb_framework.c ****         /*  configured state: not specified
 113:hal/Landungsbruecke/freescale/USB_CDC/usb_framework.c ****             address state   : changes to default state if specified addr == 0,
 114:hal/Landungsbruecke/freescale/USB_CDC/usb_framework.c ****                               but uses newly specified address
 115:hal/Landungsbruecke/freescale/USB_CDC/usb_framework.c ****             default state   : changes to address state if specified addr != 0
 116:hal/Landungsbruecke/freescale/USB_CDC/usb_framework.c ****          */
 117:hal/Landungsbruecke/freescale/USB_CDC/usb_framework.c ****   {TRUE,TRUE,TRUE}, /*USB_Strd_Req_Get_Descriptor*/
 118:hal/Landungsbruecke/freescale/USB_CDC/usb_framework.c ****          /* configured state: valid request
 119:hal/Landungsbruecke/freescale/USB_CDC/usb_framework.c ****             address state   : valid request
 120:hal/Landungsbruecke/freescale/USB_CDC/usb_framework.c ****             default state   : valid request
 121:hal/Landungsbruecke/freescale/USB_CDC/usb_framework.c ****          */
 122:hal/Landungsbruecke/freescale/USB_CDC/usb_framework.c ****   {FALSE,FALSE,FALSE}, /*Set Descriptor*/
 123:hal/Landungsbruecke/freescale/USB_CDC/usb_framework.c ****          /* configured state: request not supported
 124:hal/Landungsbruecke/freescale/USB_CDC/usb_framework.c ****             address state   : request not supported
 125:hal/Landungsbruecke/freescale/USB_CDC/usb_framework.c ****             default state   : request not supported
 126:hal/Landungsbruecke/freescale/USB_CDC/usb_framework.c ****          */
 127:hal/Landungsbruecke/freescale/USB_CDC/usb_framework.c ****   {TRUE,TRUE,FALSE}, /*USB_Strd_Req_Get_Config*/
 128:hal/Landungsbruecke/freescale/USB_CDC/usb_framework.c ****          /* configured state: bConfiguration Value of current config returned
 129:hal/Landungsbruecke/freescale/USB_CDC/usb_framework.c ****             address state   : value zero must be returned
 130:hal/Landungsbruecke/freescale/USB_CDC/usb_framework.c ****             default state   : not specified
 131:hal/Landungsbruecke/freescale/USB_CDC/usb_framework.c ****          */
 132:hal/Landungsbruecke/freescale/USB_CDC/usb_framework.c ****   {TRUE,TRUE,FALSE}, /*USB_Strd_Req_Set_Config*/
 133:hal/Landungsbruecke/freescale/USB_CDC/usb_framework.c ****          /* configured state: If the specified configuration value is zero,
 134:hal/Landungsbruecke/freescale/USB_CDC/usb_framework.c ****                               then the device enters the Address state.If the
 135:hal/Landungsbruecke/freescale/USB_CDC/usb_framework.c ****                               specified configuration value matches the
 136:hal/Landungsbruecke/freescale/USB_CDC/usb_framework.c ****                               configuration value from a config descriptor,
 137:hal/Landungsbruecke/freescale/USB_CDC/usb_framework.c ****                               then that config is selected and the device
 138:hal/Landungsbruecke/freescale/USB_CDC/usb_framework.c ****                               remains in the Configured state. Otherwise, the
 139:hal/Landungsbruecke/freescale/USB_CDC/usb_framework.c ****                               device responds with a Request Error.
 140:hal/Landungsbruecke/freescale/USB_CDC/usb_framework.c **** 
 141:hal/Landungsbruecke/freescale/USB_CDC/usb_framework.c ****             address state   : If the specified configuration value is zero,
 142:hal/Landungsbruecke/freescale/USB_CDC/usb_framework.c ****                               then the device remains in the Address state. If
 143:hal/Landungsbruecke/freescale/USB_CDC/usb_framework.c ****                               the specified configuration value matches the
 144:hal/Landungsbruecke/freescale/USB_CDC/usb_framework.c ****                               configuration value from a configuration
 145:hal/Landungsbruecke/freescale/USB_CDC/usb_framework.c ****                               descriptor, then that configuration is selected
 146:hal/Landungsbruecke/freescale/USB_CDC/usb_framework.c ****                               and the device enters the Configured state.
 147:hal/Landungsbruecke/freescale/USB_CDC/usb_framework.c ****                               Otherwise,response is Request Error.
 148:hal/Landungsbruecke/freescale/USB_CDC/usb_framework.c ****             default state   : not specified
 149:hal/Landungsbruecke/freescale/USB_CDC/usb_framework.c ****          */
 150:hal/Landungsbruecke/freescale/USB_CDC/usb_framework.c ****   {TRUE,FALSE,FALSE}, /*USB_Strd_Req_Get_Interface*/
 151:hal/Landungsbruecke/freescale/USB_CDC/usb_framework.c ****          /* configured state: valid request
 152:hal/Landungsbruecke/freescale/USB_CDC/usb_framework.c ****             address state   : request error
 153:hal/Landungsbruecke/freescale/USB_CDC/usb_framework.c ****             default state   : not specified
 154:hal/Landungsbruecke/freescale/USB_CDC/usb_framework.c ****          */
 155:hal/Landungsbruecke/freescale/USB_CDC/usb_framework.c ****   {TRUE,FALSE,FALSE}, /*USB_Strd_Req_Set_Interface*/
 156:hal/Landungsbruecke/freescale/USB_CDC/usb_framework.c ****          /* configured state: valid request
 157:hal/Landungsbruecke/freescale/USB_CDC/usb_framework.c ****             address state   : request error
 158:hal/Landungsbruecke/freescale/USB_CDC/usb_framework.c ****             default state   : not specified
 159:hal/Landungsbruecke/freescale/USB_CDC/usb_framework.c ****          */
 160:hal/Landungsbruecke/freescale/USB_CDC/usb_framework.c ****   {TRUE,FALSE,FALSE} /*USB_Strd_Req_Sync_Frame*/
 161:hal/Landungsbruecke/freescale/USB_CDC/usb_framework.c ****          /* configured state: valid request
 162:hal/Landungsbruecke/freescale/USB_CDC/usb_framework.c ****             address state   : request error
 163:hal/Landungsbruecke/freescale/USB_CDC/usb_framework.c ****             default state   : not specified
 164:hal/Landungsbruecke/freescale/USB_CDC/usb_framework.c ****          */
 165:hal/Landungsbruecke/freescale/USB_CDC/usb_framework.c **** };
 166:hal/Landungsbruecke/freescale/USB_CDC/usb_framework.c **** /*****************************************************************************
 167:hal/Landungsbruecke/freescale/USB_CDC/usb_framework.c ****  * Global Functions Prototypes - None
 168:hal/Landungsbruecke/freescale/USB_CDC/usb_framework.c ****  *****************************************************************************/
 169:hal/Landungsbruecke/freescale/USB_CDC/usb_framework.c **** 
 170:hal/Landungsbruecke/freescale/USB_CDC/usb_framework.c **** /*****************************************************************************
 171:hal/Landungsbruecke/freescale/USB_CDC/usb_framework.c ****  * Local Types - None
 172:hal/Landungsbruecke/freescale/USB_CDC/usb_framework.c ****  *****************************************************************************/
 173:hal/Landungsbruecke/freescale/USB_CDC/usb_framework.c **** 
 174:hal/Landungsbruecke/freescale/USB_CDC/usb_framework.c **** /*****************************************************************************
 175:hal/Landungsbruecke/freescale/USB_CDC/usb_framework.c ****  * Local Functions Prototypes
 176:hal/Landungsbruecke/freescale/USB_CDC/usb_framework.c ****  *****************************************************************************/
 177:hal/Landungsbruecke/freescale/USB_CDC/usb_framework.c **** void USB_Control_Service (PTR_USB_DEV_EVENT_STRUCT event );
 178:hal/Landungsbruecke/freescale/USB_CDC/usb_framework.c **** static void USB_Control_Service_Handler(uint_8 controller_ID,
 179:hal/Landungsbruecke/freescale/USB_CDC/usb_framework.c ****                                 uint_8 status,
 180:hal/Landungsbruecke/freescale/USB_CDC/usb_framework.c ****                                 USB_SETUP_STRUCT * setup_packet,
 181:hal/Landungsbruecke/freescale/USB_CDC/usb_framework.c ****                                 uint_8_ptr *data,
 182:hal/Landungsbruecke/freescale/USB_CDC/usb_framework.c ****                                 USB_PACKET_SIZE *size);
 183:hal/Landungsbruecke/freescale/USB_CDC/usb_framework.c **** static uint_8 USB_Strd_Req_Get_Status(uint_8      controller_ID,
 184:hal/Landungsbruecke/freescale/USB_CDC/usb_framework.c ****                                 USB_SETUP_STRUCT * setup_packet,
 185:hal/Landungsbruecke/freescale/USB_CDC/usb_framework.c ****                                 uint_8_ptr *data,
 186:hal/Landungsbruecke/freescale/USB_CDC/usb_framework.c ****                                 USB_PACKET_SIZE *size);
 187:hal/Landungsbruecke/freescale/USB_CDC/usb_framework.c **** static uint_8 USB_Strd_Req_Feature(uint_8     controller_ID,
 188:hal/Landungsbruecke/freescale/USB_CDC/usb_framework.c ****                                 USB_SETUP_STRUCT * setup_packet,
 189:hal/Landungsbruecke/freescale/USB_CDC/usb_framework.c ****                                 uint_8_ptr *data,
 190:hal/Landungsbruecke/freescale/USB_CDC/usb_framework.c ****                                 USB_PACKET_SIZE *size);
 191:hal/Landungsbruecke/freescale/USB_CDC/usb_framework.c **** static uint_8 USB_Strd_Req_Set_Address(uint_8     controller_ID,
 192:hal/Landungsbruecke/freescale/USB_CDC/usb_framework.c ****                                 USB_SETUP_STRUCT * setup_packet,
 193:hal/Landungsbruecke/freescale/USB_CDC/usb_framework.c ****                                 uint_8_ptr *data,
 194:hal/Landungsbruecke/freescale/USB_CDC/usb_framework.c ****                                 USB_PACKET_SIZE *size);
 195:hal/Landungsbruecke/freescale/USB_CDC/usb_framework.c **** static uint_8 USB_Strd_Req_Assign_Address(uint_8 controller_ID);
 196:hal/Landungsbruecke/freescale/USB_CDC/usb_framework.c **** static uint_8 USB_Strd_Req_Get_Config(uint_8      controller_ID,
 197:hal/Landungsbruecke/freescale/USB_CDC/usb_framework.c ****                                 USB_SETUP_STRUCT * setup_packet,
 198:hal/Landungsbruecke/freescale/USB_CDC/usb_framework.c ****                                 uint_8_ptr *data,
 199:hal/Landungsbruecke/freescale/USB_CDC/usb_framework.c ****                                 USB_PACKET_SIZE *size);
 200:hal/Landungsbruecke/freescale/USB_CDC/usb_framework.c **** static uint_8 USB_Strd_Req_Set_Config(uint_8      controller_ID,
 201:hal/Landungsbruecke/freescale/USB_CDC/usb_framework.c ****                                 USB_SETUP_STRUCT * setup_packet,
 202:hal/Landungsbruecke/freescale/USB_CDC/usb_framework.c ****                                 uint_8_ptr *data,
 203:hal/Landungsbruecke/freescale/USB_CDC/usb_framework.c ****                                 USB_PACKET_SIZE *size);
 204:hal/Landungsbruecke/freescale/USB_CDC/usb_framework.c **** static uint_8 USB_Strd_Req_Get_Interface(uint_8   controller_ID,
 205:hal/Landungsbruecke/freescale/USB_CDC/usb_framework.c ****                                 USB_SETUP_STRUCT * setup_packet,
 206:hal/Landungsbruecke/freescale/USB_CDC/usb_framework.c ****                                 uint_8_ptr *data,
 207:hal/Landungsbruecke/freescale/USB_CDC/usb_framework.c ****                                 USB_PACKET_SIZE *size);
 208:hal/Landungsbruecke/freescale/USB_CDC/usb_framework.c **** static uint_8 USB_Strd_Req_Set_Interface(uint_8   controller_ID,
 209:hal/Landungsbruecke/freescale/USB_CDC/usb_framework.c ****                                 USB_SETUP_STRUCT * setup_packet,
 210:hal/Landungsbruecke/freescale/USB_CDC/usb_framework.c ****                                 uint_8_ptr *data,
 211:hal/Landungsbruecke/freescale/USB_CDC/usb_framework.c ****                                 USB_PACKET_SIZE *size);
 212:hal/Landungsbruecke/freescale/USB_CDC/usb_framework.c **** static uint_8 USB_Strd_Req_Sync_Frame(uint_8      controller_ID,
 213:hal/Landungsbruecke/freescale/USB_CDC/usb_framework.c ****                                 USB_SETUP_STRUCT * setup_packet,
 214:hal/Landungsbruecke/freescale/USB_CDC/usb_framework.c ****                                 uint_8_ptr *data,
 215:hal/Landungsbruecke/freescale/USB_CDC/usb_framework.c ****                                 USB_PACKET_SIZE *size);
 216:hal/Landungsbruecke/freescale/USB_CDC/usb_framework.c **** static uint_8 USB_Strd_Req_Get_Descriptor(uint_8      controller_ID,
 217:hal/Landungsbruecke/freescale/USB_CDC/usb_framework.c ****                                 USB_SETUP_STRUCT * setup_packet,
 218:hal/Landungsbruecke/freescale/USB_CDC/usb_framework.c ****                                 uint_8_ptr *data,
 219:hal/Landungsbruecke/freescale/USB_CDC/usb_framework.c ****                                 USB_PACKET_SIZE *size);
 220:hal/Landungsbruecke/freescale/USB_CDC/usb_framework.c **** 
 221:hal/Landungsbruecke/freescale/USB_CDC/usb_framework.c **** #ifdef DELAYED_PROCESSING
 222:hal/Landungsbruecke/freescale/USB_CDC/usb_framework.c **** static void USB_Control_Service_Callback(PTR_USB_DEV_EVENT_STRUCT event );
 223:hal/Landungsbruecke/freescale/USB_CDC/usb_framework.c **** #endif
 224:hal/Landungsbruecke/freescale/USB_CDC/usb_framework.c **** 
 225:hal/Landungsbruecke/freescale/USB_CDC/usb_framework.c **** /*****************************************************************************
 226:hal/Landungsbruecke/freescale/USB_CDC/usb_framework.c ****  * Local Functions Prototypes
 227:hal/Landungsbruecke/freescale/USB_CDC/usb_framework.c ****  *****************************************************************************/
 228:hal/Landungsbruecke/freescale/USB_CDC/usb_framework.c **** 
 229:hal/Landungsbruecke/freescale/USB_CDC/usb_framework.c **** /*****************************************************************************
 230:hal/Landungsbruecke/freescale/USB_CDC/usb_framework.c ****  * Local Variables
 231:hal/Landungsbruecke/freescale/USB_CDC/usb_framework.c ****  *****************************************************************************/
 232:hal/Landungsbruecke/freescale/USB_CDC/usb_framework.c **** 
 233:hal/Landungsbruecke/freescale/USB_CDC/usb_framework.c **** /* used for extended OUT transactions on CONTROL ENDPOINT*/
 234:hal/Landungsbruecke/freescale/USB_CDC/usb_framework.c **** static USB_SETUP_STRUCT ext_req_to_host_setup;
 235:hal/Landungsbruecke/freescale/USB_CDC/usb_framework.c **** static uint_8 ext_req_to_host_buffer[USB_OUT_PKT_SIZE];
 236:hal/Landungsbruecke/freescale/USB_CDC/usb_framework.c **** 
 237:hal/Landungsbruecke/freescale/USB_CDC/usb_framework.c **** 
 238:hal/Landungsbruecke/freescale/USB_CDC/usb_framework.c **** /*****************************************************************************
 239:hal/Landungsbruecke/freescale/USB_CDC/usb_framework.c ****  * Global Variables
 240:hal/Landungsbruecke/freescale/USB_CDC/usb_framework.c ****  *****************************************************************************/
 241:hal/Landungsbruecke/freescale/USB_CDC/usb_framework.c **** USB_REQ_FUNC
 242:hal/Landungsbruecke/freescale/USB_CDC/usb_framework.c **** #if 0 /* << EST */
 243:hal/Landungsbruecke/freescale/USB_CDC/usb_framework.c **** #if ((!defined(_MC9S08MM128_H)) && (!defined(_MC9S08JE128_H)))
 244:hal/Landungsbruecke/freescale/USB_CDC/usb_framework.c **** const
 245:hal/Landungsbruecke/freescale/USB_CDC/usb_framework.c **** #endif
 246:hal/Landungsbruecke/freescale/USB_CDC/usb_framework.c **** #else
 247:hal/Landungsbruecke/freescale/USB_CDC/usb_framework.c **** /* device is Kinetis K20D72 << EST */
 248:hal/Landungsbruecke/freescale/USB_CDC/usb_framework.c **** const
 249:hal/Landungsbruecke/freescale/USB_CDC/usb_framework.c **** #endif
 250:hal/Landungsbruecke/freescale/USB_CDC/usb_framework.c **** g_standard_request[MAX_STRD_REQ] =
 251:hal/Landungsbruecke/freescale/USB_CDC/usb_framework.c **** {
 252:hal/Landungsbruecke/freescale/USB_CDC/usb_framework.c ****     USB_Strd_Req_Get_Status,
 253:hal/Landungsbruecke/freescale/USB_CDC/usb_framework.c ****     USB_Strd_Req_Feature,
 254:hal/Landungsbruecke/freescale/USB_CDC/usb_framework.c ****     NULL,
 255:hal/Landungsbruecke/freescale/USB_CDC/usb_framework.c ****     USB_Strd_Req_Feature,
 256:hal/Landungsbruecke/freescale/USB_CDC/usb_framework.c ****     NULL,
 257:hal/Landungsbruecke/freescale/USB_CDC/usb_framework.c ****     USB_Strd_Req_Set_Address,
 258:hal/Landungsbruecke/freescale/USB_CDC/usb_framework.c ****     USB_Strd_Req_Get_Descriptor,
 259:hal/Landungsbruecke/freescale/USB_CDC/usb_framework.c ****     NULL,
 260:hal/Landungsbruecke/freescale/USB_CDC/usb_framework.c ****     USB_Strd_Req_Get_Config,
 261:hal/Landungsbruecke/freescale/USB_CDC/usb_framework.c ****     USB_Strd_Req_Set_Config,
 262:hal/Landungsbruecke/freescale/USB_CDC/usb_framework.c ****     USB_Strd_Req_Get_Interface,
 263:hal/Landungsbruecke/freescale/USB_CDC/usb_framework.c ****     USB_Strd_Req_Set_Interface,
 264:hal/Landungsbruecke/freescale/USB_CDC/usb_framework.c ****     USB_Strd_Req_Sync_Frame
 265:hal/Landungsbruecke/freescale/USB_CDC/usb_framework.c **** };
 266:hal/Landungsbruecke/freescale/USB_CDC/usb_framework.c **** 
 267:hal/Landungsbruecke/freescale/USB_CDC/usb_framework.c **** #if 0 /* << EST */
 268:hal/Landungsbruecke/freescale/USB_CDC/usb_framework.c **** #if (defined(_MC9S08MM128_H) || defined(_MC9S08JE128_H))
 269:hal/Landungsbruecke/freescale/USB_CDC/usb_framework.c **** #pragma CODE_SEG DEFAULT
 270:hal/Landungsbruecke/freescale/USB_CDC/usb_framework.c **** #endif
 271:hal/Landungsbruecke/freescale/USB_CDC/usb_framework.c **** #else
 272:hal/Landungsbruecke/freescale/USB_CDC/usb_framework.c **** /* device is Kinetis K20D72 << EST */
 273:hal/Landungsbruecke/freescale/USB_CDC/usb_framework.c **** #endif
 274:hal/Landungsbruecke/freescale/USB_CDC/usb_framework.c **** /**************************************************************************//*!
 275:hal/Landungsbruecke/freescale/USB_CDC/usb_framework.c ****  *
 276:hal/Landungsbruecke/freescale/USB_CDC/usb_framework.c ****  * @name  USB_Framework_Init
 277:hal/Landungsbruecke/freescale/USB_CDC/usb_framework.c ****  *
 278:hal/Landungsbruecke/freescale/USB_CDC/usb_framework.c ****  * @brief The function initializes the Class Module
 279:hal/Landungsbruecke/freescale/USB_CDC/usb_framework.c ****  *
 280:hal/Landungsbruecke/freescale/USB_CDC/usb_framework.c ****  * @param controller_ID     : Controller ID
 281:hal/Landungsbruecke/freescale/USB_CDC/usb_framework.c ****  * @param class_callback    : Class callback pointer
 282:hal/Landungsbruecke/freescale/USB_CDC/usb_framework.c ****  * @param other_req_callback: Other Request Callback
 283:hal/Landungsbruecke/freescale/USB_CDC/usb_framework.c ****  *
 284:hal/Landungsbruecke/freescale/USB_CDC/usb_framework.c ****  * @return status
 285:hal/Landungsbruecke/freescale/USB_CDC/usb_framework.c ****  *         USB_OK           : When Successfull
 286:hal/Landungsbruecke/freescale/USB_CDC/usb_framework.c ****  *         Others           : Errors
 287:hal/Landungsbruecke/freescale/USB_CDC/usb_framework.c ****  *
 288:hal/Landungsbruecke/freescale/USB_CDC/usb_framework.c ****  ******************************************************************************
 289:hal/Landungsbruecke/freescale/USB_CDC/usb_framework.c ****  * This function registers the service on the control endpoint
 290:hal/Landungsbruecke/freescale/USB_CDC/usb_framework.c ****  *****************************************************************************/
 291:hal/Landungsbruecke/freescale/USB_CDC/usb_framework.c **** uint_8 USB_Framework_Init (
 292:hal/Landungsbruecke/freescale/USB_CDC/usb_framework.c ****     uint_8              controller_ID,       /* [IN] Controller ID */
 293:hal/Landungsbruecke/freescale/USB_CDC/usb_framework.c ****     USB_CLASS_CALLBACK  class_callback,      /* Class Callback */
 294:hal/Landungsbruecke/freescale/USB_CDC/usb_framework.c ****     USB_REQ_FUNC        other_req_callback   /* Other Request Callback */
 295:hal/Landungsbruecke/freescale/USB_CDC/usb_framework.c **** )
 296:hal/Landungsbruecke/freescale/USB_CDC/usb_framework.c **** {
 297:hal/Landungsbruecke/freescale/USB_CDC/usb_framework.c ****     uint_8 error=USB_OK;
 298:hal/Landungsbruecke/freescale/USB_CDC/usb_framework.c **** 
 299:hal/Landungsbruecke/freescale/USB_CDC/usb_framework.c ****     /* save input parameters */
 300:hal/Landungsbruecke/freescale/USB_CDC/usb_framework.c ****     g_framework_callback = class_callback;
 301:hal/Landungsbruecke/freescale/USB_CDC/usb_framework.c ****     g_other_req_callback = other_req_callback;
 302:hal/Landungsbruecke/freescale/USB_CDC/usb_framework.c **** 
 303:hal/Landungsbruecke/freescale/USB_CDC/usb_framework.c ****     /* Register CONTROL service */
 304:hal/Landungsbruecke/freescale/USB_CDC/usb_framework.c ****     error = _usb_device_register_service(controller_ID, USB_SERVICE_EP0,
 305:hal/Landungsbruecke/freescale/USB_CDC/usb_framework.c **** 
 306:hal/Landungsbruecke/freescale/USB_CDC/usb_framework.c **** #ifdef DELAYED_PROCESSING
 307:hal/Landungsbruecke/freescale/USB_CDC/usb_framework.c ****         USB_Control_Service_Callback
 308:hal/Landungsbruecke/freescale/USB_CDC/usb_framework.c **** #else
 309:hal/Landungsbruecke/freescale/USB_CDC/usb_framework.c ****         USB_Control_Service
 310:hal/Landungsbruecke/freescale/USB_CDC/usb_framework.c **** #endif
 311:hal/Landungsbruecke/freescale/USB_CDC/usb_framework.c ****         );
 312:hal/Landungsbruecke/freescale/USB_CDC/usb_framework.c **** 
 313:hal/Landungsbruecke/freescale/USB_CDC/usb_framework.c ****     return error;
 314:hal/Landungsbruecke/freescale/USB_CDC/usb_framework.c **** }
 315:hal/Landungsbruecke/freescale/USB_CDC/usb_framework.c **** 
 316:hal/Landungsbruecke/freescale/USB_CDC/usb_framework.c **** /**************************************************************************//*!
 317:hal/Landungsbruecke/freescale/USB_CDC/usb_framework.c ****  *
 318:hal/Landungsbruecke/freescale/USB_CDC/usb_framework.c ****  * @name  USB_Framework_DeInit
 319:hal/Landungsbruecke/freescale/USB_CDC/usb_framework.c ****  *
 320:hal/Landungsbruecke/freescale/USB_CDC/usb_framework.c ****  * @brief The function De-initializes the Class Module
 321:hal/Landungsbruecke/freescale/USB_CDC/usb_framework.c ****  *
 322:hal/Landungsbruecke/freescale/USB_CDC/usb_framework.c ****  * @param controller_ID     : Controller ID
 323:hal/Landungsbruecke/freescale/USB_CDC/usb_framework.c ****  *
 324:hal/Landungsbruecke/freescale/USB_CDC/usb_framework.c ****  * @return status
 325:hal/Landungsbruecke/freescale/USB_CDC/usb_framework.c ****  *         USB_OK           : When Successfull
 326:hal/Landungsbruecke/freescale/USB_CDC/usb_framework.c ****  *         Others           : Errors
 327:hal/Landungsbruecke/freescale/USB_CDC/usb_framework.c ****  *
 328:hal/Landungsbruecke/freescale/USB_CDC/usb_framework.c ****  ******************************************************************************
 329:hal/Landungsbruecke/freescale/USB_CDC/usb_framework.c ****  * This function unregisters control service
 330:hal/Landungsbruecke/freescale/USB_CDC/usb_framework.c ****  *****************************************************************************/
 331:hal/Landungsbruecke/freescale/USB_CDC/usb_framework.c **** uint_8 USB_Framework_DeInit
 332:hal/Landungsbruecke/freescale/USB_CDC/usb_framework.c **** (
 333:hal/Landungsbruecke/freescale/USB_CDC/usb_framework.c ****     uint_8 controller_ID       /* [IN] Controller ID */
 334:hal/Landungsbruecke/freescale/USB_CDC/usb_framework.c **** )
 335:hal/Landungsbruecke/freescale/USB_CDC/usb_framework.c **** {
 336:hal/Landungsbruecke/freescale/USB_CDC/usb_framework.c ****     uint_8 error;
 337:hal/Landungsbruecke/freescale/USB_CDC/usb_framework.c ****     /* Free framwork_callback */
 338:hal/Landungsbruecke/freescale/USB_CDC/usb_framework.c ****     g_framework_callback = NULL;
 339:hal/Landungsbruecke/freescale/USB_CDC/usb_framework.c **** 
 340:hal/Landungsbruecke/freescale/USB_CDC/usb_framework.c ****     /* Free other_req_callback */
 341:hal/Landungsbruecke/freescale/USB_CDC/usb_framework.c ****     g_other_req_callback = NULL;
 342:hal/Landungsbruecke/freescale/USB_CDC/usb_framework.c **** 
 343:hal/Landungsbruecke/freescale/USB_CDC/usb_framework.c ****     /* Unregister CONTROL service */
 344:hal/Landungsbruecke/freescale/USB_CDC/usb_framework.c ****     error = _usb_device_unregister_service(&controller_ID, USB_SERVICE_EP0);
 345:hal/Landungsbruecke/freescale/USB_CDC/usb_framework.c **** 
 346:hal/Landungsbruecke/freescale/USB_CDC/usb_framework.c ****     /* Return error */
 347:hal/Landungsbruecke/freescale/USB_CDC/usb_framework.c ****     return error;
 348:hal/Landungsbruecke/freescale/USB_CDC/usb_framework.c **** }
 349:hal/Landungsbruecke/freescale/USB_CDC/usb_framework.c **** #ifdef DELAYED_PROCESSING
 350:hal/Landungsbruecke/freescale/USB_CDC/usb_framework.c **** /**************************************************************************//*!
 351:hal/Landungsbruecke/freescale/USB_CDC/usb_framework.c ****  *
 352:hal/Landungsbruecke/freescale/USB_CDC/usb_framework.c ****  * @name  USB_Framework_Periodic_Task
 353:hal/Landungsbruecke/freescale/USB_CDC/usb_framework.c ****  *
 354:hal/Landungsbruecke/freescale/USB_CDC/usb_framework.c ****  * @brief The function is called to respond to any control request
 355:hal/Landungsbruecke/freescale/USB_CDC/usb_framework.c ****  *
 356:hal/Landungsbruecke/freescale/USB_CDC/usb_framework.c ****  * @param None
 357:hal/Landungsbruecke/freescale/USB_CDC/usb_framework.c ****  *
 358:hal/Landungsbruecke/freescale/USB_CDC/usb_framework.c ****  * @return None
 359:hal/Landungsbruecke/freescale/USB_CDC/usb_framework.c ****  *
 360:hal/Landungsbruecke/freescale/USB_CDC/usb_framework.c ****  ******************************************************************************
 361:hal/Landungsbruecke/freescale/USB_CDC/usb_framework.c ****  * This function checks for any pending requests and handles them if any
 362:hal/Landungsbruecke/freescale/USB_CDC/usb_framework.c ****  *****************************************************************************/
 363:hal/Landungsbruecke/freescale/USB_CDC/usb_framework.c **** void USB_Framework_Periodic_Task(void)
 364:hal/Landungsbruecke/freescale/USB_CDC/usb_framework.c **** {
 365:hal/Landungsbruecke/freescale/USB_CDC/usb_framework.c ****     /* if control request pending to be completed */
 366:hal/Landungsbruecke/freescale/USB_CDC/usb_framework.c ****     if(g_control_pending==TRUE)
 367:hal/Landungsbruecke/freescale/USB_CDC/usb_framework.c ****     {
 368:hal/Landungsbruecke/freescale/USB_CDC/usb_framework.c ****         /* handle pending control request */
 369:hal/Landungsbruecke/freescale/USB_CDC/usb_framework.c ****         USB_Control_Service(&g_f_event);
 370:hal/Landungsbruecke/freescale/USB_CDC/usb_framework.c ****         g_control_pending = FALSE;
 371:hal/Landungsbruecke/freescale/USB_CDC/usb_framework.c ****     }
 372:hal/Landungsbruecke/freescale/USB_CDC/usb_framework.c **** }
 373:hal/Landungsbruecke/freescale/USB_CDC/usb_framework.c **** #endif
 374:hal/Landungsbruecke/freescale/USB_CDC/usb_framework.c **** /**************************************************************************//*!
 375:hal/Landungsbruecke/freescale/USB_CDC/usb_framework.c ****  *
 376:hal/Landungsbruecke/freescale/USB_CDC/usb_framework.c ****  * @name  USB_Framework_Reset
 377:hal/Landungsbruecke/freescale/USB_CDC/usb_framework.c ****  *
 378:hal/Landungsbruecke/freescale/USB_CDC/usb_framework.c ****  * @brief The function resets the framework
 379:hal/Landungsbruecke/freescale/USB_CDC/usb_framework.c ****  *
 380:hal/Landungsbruecke/freescale/USB_CDC/usb_framework.c ****  * @param controller_ID     : Controller ID
 381:hal/Landungsbruecke/freescale/USB_CDC/usb_framework.c ****  *
 382:hal/Landungsbruecke/freescale/USB_CDC/usb_framework.c ****  * @return status
 383:hal/Landungsbruecke/freescale/USB_CDC/usb_framework.c ****  *         USB_OK           : When Successfull
 384:hal/Landungsbruecke/freescale/USB_CDC/usb_framework.c ****  *
 385:hal/Landungsbruecke/freescale/USB_CDC/usb_framework.c ****  ******************************************************************************
 386:hal/Landungsbruecke/freescale/USB_CDC/usb_framework.c ****  * This function is used to reset the framework module
 387:hal/Landungsbruecke/freescale/USB_CDC/usb_framework.c ****  *****************************************************************************/
 388:hal/Landungsbruecke/freescale/USB_CDC/usb_framework.c **** uint_8 USB_Framework_Reset (
 389:hal/Landungsbruecke/freescale/USB_CDC/usb_framework.c ****     uint_8 controller_ID /* [IN] Controller ID */
 390:hal/Landungsbruecke/freescale/USB_CDC/usb_framework.c **** )
 391:hal/Landungsbruecke/freescale/USB_CDC/usb_framework.c **** {
 392:hal/Landungsbruecke/freescale/USB_CDC/usb_framework.c ****     UNUSED (controller_ID);
 393:hal/Landungsbruecke/freescale/USB_CDC/usb_framework.c ****     return USB_OK;
 394:hal/Landungsbruecke/freescale/USB_CDC/usb_framework.c **** }
 395:hal/Landungsbruecke/freescale/USB_CDC/usb_framework.c **** 
 396:hal/Landungsbruecke/freescale/USB_CDC/usb_framework.c **** #ifdef DELAYED_PROCESSING
 397:hal/Landungsbruecke/freescale/USB_CDC/usb_framework.c **** /**************************************************************************//*!
 398:hal/Landungsbruecke/freescale/USB_CDC/usb_framework.c ****  *
 399:hal/Landungsbruecke/freescale/USB_CDC/usb_framework.c ****  * @name  USB_Control_Service_Callback
 400:hal/Landungsbruecke/freescale/USB_CDC/usb_framework.c ****  *
 401:hal/Landungsbruecke/freescale/USB_CDC/usb_framework.c ****  * @brief The function can be used as a callback function to the service.
 402:hal/Landungsbruecke/freescale/USB_CDC/usb_framework.c ****  *
 403:hal/Landungsbruecke/freescale/USB_CDC/usb_framework.c ****  * @param event : Pointer to USB Event Structure
 404:hal/Landungsbruecke/freescale/USB_CDC/usb_framework.c ****  *
 405:hal/Landungsbruecke/freescale/USB_CDC/usb_framework.c ****  * @return None
 406:hal/Landungsbruecke/freescale/USB_CDC/usb_framework.c ****  *
 407:hal/Landungsbruecke/freescale/USB_CDC/usb_framework.c ****  ******************************************************************************
 408:hal/Landungsbruecke/freescale/USB_CDC/usb_framework.c ****  * This function saves the event parameters and queues a pending request
 409:hal/Landungsbruecke/freescale/USB_CDC/usb_framework.c ****  *****************************************************************************/
 410:hal/Landungsbruecke/freescale/USB_CDC/usb_framework.c **** void USB_Control_Service_Callback (
 411:hal/Landungsbruecke/freescale/USB_CDC/usb_framework.c ****     PTR_USB_DEV_EVENT_STRUCT event /* [IN] Pointer to USB Event Structure */
 412:hal/Landungsbruecke/freescale/USB_CDC/usb_framework.c **** )
 413:hal/Landungsbruecke/freescale/USB_CDC/usb_framework.c **** {
 414:hal/Landungsbruecke/freescale/USB_CDC/usb_framework.c ****     /* save the event parameters */
 415:hal/Landungsbruecke/freescale/USB_CDC/usb_framework.c ****     g_f_event.buffer_ptr = event->buffer_ptr;
 416:hal/Landungsbruecke/freescale/USB_CDC/usb_framework.c ****     g_f_event.controller_ID = event->controller_ID;
 417:hal/Landungsbruecke/freescale/USB_CDC/usb_framework.c ****     g_f_event.ep_num = event->ep_num;
 418:hal/Landungsbruecke/freescale/USB_CDC/usb_framework.c ****     g_f_event.setup  = event->setup;
 419:hal/Landungsbruecke/freescale/USB_CDC/usb_framework.c ****     g_f_event.len = event->len;
 420:hal/Landungsbruecke/freescale/USB_CDC/usb_framework.c ****     g_f_event.errors = event->errors;
 421:hal/Landungsbruecke/freescale/USB_CDC/usb_framework.c **** 
 422:hal/Landungsbruecke/freescale/USB_CDC/usb_framework.c ****     /* set the pending request flag */
 423:hal/Landungsbruecke/freescale/USB_CDC/usb_framework.c ****     g_control_pending = TRUE;
 424:hal/Landungsbruecke/freescale/USB_CDC/usb_framework.c **** 
 425:hal/Landungsbruecke/freescale/USB_CDC/usb_framework.c **** }
 426:hal/Landungsbruecke/freescale/USB_CDC/usb_framework.c **** #endif
 427:hal/Landungsbruecke/freescale/USB_CDC/usb_framework.c **** 
 428:hal/Landungsbruecke/freescale/USB_CDC/usb_framework.c **** /**************************************************************************//*!
 429:hal/Landungsbruecke/freescale/USB_CDC/usb_framework.c ****  *
 430:hal/Landungsbruecke/freescale/USB_CDC/usb_framework.c ****  * @name  USB_Control_Service
 431:hal/Landungsbruecke/freescale/USB_CDC/usb_framework.c ****  *
 432:hal/Landungsbruecke/freescale/USB_CDC/usb_framework.c ****  * @brief Called upon a completed endpoint 0 transfer
 433:hal/Landungsbruecke/freescale/USB_CDC/usb_framework.c ****  *
 434:hal/Landungsbruecke/freescale/USB_CDC/usb_framework.c ****  * @param event : Pointer to USB Event Structure
 435:hal/Landungsbruecke/freescale/USB_CDC/usb_framework.c ****  *
 436:hal/Landungsbruecke/freescale/USB_CDC/usb_framework.c ****  * @return None
 437:hal/Landungsbruecke/freescale/USB_CDC/usb_framework.c ****  *
 438:hal/Landungsbruecke/freescale/USB_CDC/usb_framework.c ****  ******************************************************************************
 439:hal/Landungsbruecke/freescale/USB_CDC/usb_framework.c ****  * This function handles the data sent or received on the control endpoint
 440:hal/Landungsbruecke/freescale/USB_CDC/usb_framework.c ****  *****************************************************************************/
 441:hal/Landungsbruecke/freescale/USB_CDC/usb_framework.c **** void USB_Control_Service (
 442:hal/Landungsbruecke/freescale/USB_CDC/usb_framework.c ****     PTR_USB_DEV_EVENT_STRUCT event /* [IN] Pointer to USB Event Structure */
 443:hal/Landungsbruecke/freescale/USB_CDC/usb_framework.c **** )
 444:hal/Landungsbruecke/freescale/USB_CDC/usb_framework.c **** {
 445:hal/Landungsbruecke/freescale/USB_CDC/usb_framework.c ****     uint_8    device_state = 0;
 446:hal/Landungsbruecke/freescale/USB_CDC/usb_framework.c ****     uint_8     status = USBERR_INVALID_REQ_TYPE;
 447:hal/Landungsbruecke/freescale/USB_CDC/usb_framework.c ****     uint_8_ptr data = NULL;
 448:hal/Landungsbruecke/freescale/USB_CDC/usb_framework.c ****     USB_PACKET_SIZE size;
 449:hal/Landungsbruecke/freescale/USB_CDC/usb_framework.c **** 
 450:hal/Landungsbruecke/freescale/USB_CDC/usb_framework.c ****     /* get the device state  */
 451:hal/Landungsbruecke/freescale/USB_CDC/usb_framework.c ****     (void)_usb_device_get_status(&(event->controller_ID), USB_STATUS_DEVICE_STATE,
 452:hal/Landungsbruecke/freescale/USB_CDC/usb_framework.c ****         &device_state);
 453:hal/Landungsbruecke/freescale/USB_CDC/usb_framework.c **** 
 454:hal/Landungsbruecke/freescale/USB_CDC/usb_framework.c ****     if(event->setup == TRUE)
 455:hal/Landungsbruecke/freescale/USB_CDC/usb_framework.c ****     {
 456:hal/Landungsbruecke/freescale/USB_CDC/usb_framework.c ****         /* get the setup packet */
 457:hal/Landungsbruecke/freescale/USB_CDC/usb_framework.c ****         (void)memcpy(&g_setup_pkt, event->buffer_ptr, USB_SETUP_PKT_SIZE);
 458:hal/Landungsbruecke/freescale/USB_CDC/usb_framework.c **** 
 459:hal/Landungsbruecke/freescale/USB_CDC/usb_framework.c ****         /* take care of endianess  of the 16 bt fields correctly */
 460:hal/Landungsbruecke/freescale/USB_CDC/usb_framework.c ****         g_setup_pkt.index = BYTE_SWAP16(g_setup_pkt.index);
 461:hal/Landungsbruecke/freescale/USB_CDC/usb_framework.c ****         g_setup_pkt.value = BYTE_SWAP16(g_setup_pkt.value);
 462:hal/Landungsbruecke/freescale/USB_CDC/usb_framework.c ****         g_setup_pkt.length = BYTE_SWAP16(g_setup_pkt.length);
 463:hal/Landungsbruecke/freescale/USB_CDC/usb_framework.c **** 
 464:hal/Landungsbruecke/freescale/USB_CDC/usb_framework.c ****         /* if the request is standard request */
 465:hal/Landungsbruecke/freescale/USB_CDC/usb_framework.c ****         if((g_setup_pkt.request_type & USB_REQUEST_CLASS_MASK) ==
 466:hal/Landungsbruecke/freescale/USB_CDC/usb_framework.c ****             USB_REQUEST_CLASS_STRD)
 467:hal/Landungsbruecke/freescale/USB_CDC/usb_framework.c ****         {
 468:hal/Landungsbruecke/freescale/USB_CDC/usb_framework.c ****             /* if callback is not NULL */
 469:hal/Landungsbruecke/freescale/USB_CDC/usb_framework.c ****             if(g_standard_request[g_setup_pkt.request] != NULL)
 470:hal/Landungsbruecke/freescale/USB_CDC/usb_framework.c ****             {
 471:hal/Landungsbruecke/freescale/USB_CDC/usb_framework.c ****                 /* if the request is valid in this device state */
 472:hal/Landungsbruecke/freescale/USB_CDC/usb_framework.c ****                 if((device_state < USB_STATE_POWERED) &&
 473:hal/Landungsbruecke/freescale/USB_CDC/usb_framework.c ****                     (g_validate_request[g_setup_pkt.request][device_state]
 474:hal/Landungsbruecke/freescale/USB_CDC/usb_framework.c ****                     ==TRUE))
 475:hal/Landungsbruecke/freescale/USB_CDC/usb_framework.c ****                 {
 476:hal/Landungsbruecke/freescale/USB_CDC/usb_framework.c ****                     /* Standard Request function pointers */
 477:hal/Landungsbruecke/freescale/USB_CDC/usb_framework.c ****                     status = g_standard_request[g_setup_pkt.request]
 478:hal/Landungsbruecke/freescale/USB_CDC/usb_framework.c ****                         (event->controller_ID, &g_setup_pkt, &data,
 479:hal/Landungsbruecke/freescale/USB_CDC/usb_framework.c ****                         (USB_PACKET_SIZE *)&size);
 480:hal/Landungsbruecke/freescale/USB_CDC/usb_framework.c ****                 }
 481:hal/Landungsbruecke/freescale/USB_CDC/usb_framework.c ****             }
 482:hal/Landungsbruecke/freescale/USB_CDC/usb_framework.c ****         }
 483:hal/Landungsbruecke/freescale/USB_CDC/usb_framework.c ****         else /* for Class/Vendor requests */
 484:hal/Landungsbruecke/freescale/USB_CDC/usb_framework.c ****         {
 485:hal/Landungsbruecke/freescale/USB_CDC/usb_framework.c ****             /*get the length from the setup_request*/
 486:hal/Landungsbruecke/freescale/USB_CDC/usb_framework.c ****             size = (USB_PACKET_SIZE)g_setup_pkt.length;
 487:hal/Landungsbruecke/freescale/USB_CDC/usb_framework.c ****             if(size <= USB_OUT_PKT_SIZE) {
 488:hal/Landungsbruecke/freescale/USB_CDC/usb_framework.c ****             if( (size != 0) &&
 489:hal/Landungsbruecke/freescale/USB_CDC/usb_framework.c ****                 ((g_setup_pkt.request_type & USB_DATA_DIREC_MASK) ==
 490:hal/Landungsbruecke/freescale/USB_CDC/usb_framework.c ****                 USB_DATA_TO_DEVICE) )
 491:hal/Landungsbruecke/freescale/USB_CDC/usb_framework.c ****             {
 492:hal/Landungsbruecke/freescale/USB_CDC/usb_framework.c ****                 (void)memcpy(&ext_req_to_host_setup, &g_setup_pkt, USB_SETUP_PKT_SIZE);
 493:hal/Landungsbruecke/freescale/USB_CDC/usb_framework.c **** 
 494:hal/Landungsbruecke/freescale/USB_CDC/usb_framework.c ****                 /* expecting host to send data (OUT TRANSACTION)*/
 495:hal/Landungsbruecke/freescale/USB_CDC/usb_framework.c ****                 (void)_usb_device_recv_data(&(event->controller_ID),
 496:hal/Landungsbruecke/freescale/USB_CDC/usb_framework.c ****                     CONTROL_ENDPOINT, ext_req_to_host_buffer,
 497:hal/Landungsbruecke/freescale/USB_CDC/usb_framework.c ****                     (USB_PACKET_SIZE)(size));
 498:hal/Landungsbruecke/freescale/USB_CDC/usb_framework.c ****                 return;
 499:hal/Landungsbruecke/freescale/USB_CDC/usb_framework.c ****             }
 500:hal/Landungsbruecke/freescale/USB_CDC/usb_framework.c ****             else if(g_other_req_callback != NULL)/*call class/vendor request*/
 501:hal/Landungsbruecke/freescale/USB_CDC/usb_framework.c ****             {
 502:hal/Landungsbruecke/freescale/USB_CDC/usb_framework.c ****                 status = g_other_req_callback(event->controller_ID,
 503:hal/Landungsbruecke/freescale/USB_CDC/usb_framework.c ****                     &g_setup_pkt, &data, (USB_PACKET_SIZE*)&size);
 504:hal/Landungsbruecke/freescale/USB_CDC/usb_framework.c ****             }
 505:hal/Landungsbruecke/freescale/USB_CDC/usb_framework.c ****         }
 506:hal/Landungsbruecke/freescale/USB_CDC/usb_framework.c ****             else
 507:hal/Landungsbruecke/freescale/USB_CDC/usb_framework.c ****             {
 508:hal/Landungsbruecke/freescale/USB_CDC/usb_framework.c ****                 /* incase of error Stall endpoint */
 509:hal/Landungsbruecke/freescale/USB_CDC/usb_framework.c ****                 USB_Control_Service_Handler(event->controller_ID,
 510:hal/Landungsbruecke/freescale/USB_CDC/usb_framework.c ****                 	USBERR_INVALID_REQ_TYPE, &g_setup_pkt, &data, (USB_PACKET_SIZE*)&size);
 511:hal/Landungsbruecke/freescale/USB_CDC/usb_framework.c ****             	return;
 512:hal/Landungsbruecke/freescale/USB_CDC/usb_framework.c ****             }
 513:hal/Landungsbruecke/freescale/USB_CDC/usb_framework.c ****         }
 514:hal/Landungsbruecke/freescale/USB_CDC/usb_framework.c **** 
 515:hal/Landungsbruecke/freescale/USB_CDC/usb_framework.c ****         USB_Control_Service_Handler(event->controller_ID,
 516:hal/Landungsbruecke/freescale/USB_CDC/usb_framework.c ****             status, &g_setup_pkt, &data, (USB_PACKET_SIZE*)&size);
 517:hal/Landungsbruecke/freescale/USB_CDC/usb_framework.c ****     }
 518:hal/Landungsbruecke/freescale/USB_CDC/usb_framework.c ****     /* if its not a setup request */
 519:hal/Landungsbruecke/freescale/USB_CDC/usb_framework.c ****     else if(device_state == USB_STATE_PENDING_ADDRESS)
 520:hal/Landungsbruecke/freescale/USB_CDC/usb_framework.c ****     {
 521:hal/Landungsbruecke/freescale/USB_CDC/usb_framework.c ****         /* Device state is PENDING_ADDRESS */
 522:hal/Landungsbruecke/freescale/USB_CDC/usb_framework.c ****         /* Assign the new adddress to the Device */
 523:hal/Landungsbruecke/freescale/USB_CDC/usb_framework.c ****         (void)USB_Strd_Req_Assign_Address(event->controller_ID);
 524:hal/Landungsbruecke/freescale/USB_CDC/usb_framework.c ****         return;
 525:hal/Landungsbruecke/freescale/USB_CDC/usb_framework.c ****     }
 526:hal/Landungsbruecke/freescale/USB_CDC/usb_framework.c ****     else if( ((g_setup_pkt.request_type &
 527:hal/Landungsbruecke/freescale/USB_CDC/usb_framework.c ****             USB_DATA_DIREC_MASK) == USB_DATA_TO_DEVICE) &&
 528:hal/Landungsbruecke/freescale/USB_CDC/usb_framework.c ****             (event->direction == USB_RECV) )
 529:hal/Landungsbruecke/freescale/USB_CDC/usb_framework.c ****     {
 530:hal/Landungsbruecke/freescale/USB_CDC/usb_framework.c ****         /* execution enters Control Service because of
 531:hal/Landungsbruecke/freescale/USB_CDC/usb_framework.c ****            OUT transaction on CONTROL_ENDPOINT*/
 532:hal/Landungsbruecke/freescale/USB_CDC/usb_framework.c ****         if(g_other_req_callback != NULL)
 533:hal/Landungsbruecke/freescale/USB_CDC/usb_framework.c ****         {   /* class or vendor request */
 534:hal/Landungsbruecke/freescale/USB_CDC/usb_framework.c ****             size = (USB_PACKET_SIZE)(event->len + USB_SETUP_PKT_SIZE);
 535:hal/Landungsbruecke/freescale/USB_CDC/usb_framework.c ****             status = g_other_req_callback(event->controller_ID,
 536:hal/Landungsbruecke/freescale/USB_CDC/usb_framework.c ****                 &ext_req_to_host_setup, &data,
 537:hal/Landungsbruecke/freescale/USB_CDC/usb_framework.c ****                 &size);
 538:hal/Landungsbruecke/freescale/USB_CDC/usb_framework.c ****         }
 539:hal/Landungsbruecke/freescale/USB_CDC/usb_framework.c **** 
 540:hal/Landungsbruecke/freescale/USB_CDC/usb_framework.c ****         USB_Control_Service_Handler(event->controller_ID,
 541:hal/Landungsbruecke/freescale/USB_CDC/usb_framework.c ****             status, &g_setup_pkt, &data,
 542:hal/Landungsbruecke/freescale/USB_CDC/usb_framework.c ****             (USB_PACKET_SIZE*)&size);
 543:hal/Landungsbruecke/freescale/USB_CDC/usb_framework.c ****     }
 544:hal/Landungsbruecke/freescale/USB_CDC/usb_framework.c ****     return;
 545:hal/Landungsbruecke/freescale/USB_CDC/usb_framework.c **** }
 546:hal/Landungsbruecke/freescale/USB_CDC/usb_framework.c **** 
 547:hal/Landungsbruecke/freescale/USB_CDC/usb_framework.c **** /**************************************************************************//*!
 548:hal/Landungsbruecke/freescale/USB_CDC/usb_framework.c ****  *
 549:hal/Landungsbruecke/freescale/USB_CDC/usb_framework.c ****  * @name  USB_Control_Service_Handler
 550:hal/Landungsbruecke/freescale/USB_CDC/usb_framework.c ****  *
 551:hal/Landungsbruecke/freescale/USB_CDC/usb_framework.c ****  * @brief The function is used to send a response to the Host based.
 552:hal/Landungsbruecke/freescale/USB_CDC/usb_framework.c ****  *
 553:hal/Landungsbruecke/freescale/USB_CDC/usb_framework.c ****  * @param controller_ID : Controller ID
 554:hal/Landungsbruecke/freescale/USB_CDC/usb_framework.c ****  * @param status        : Status of request
 555:hal/Landungsbruecke/freescale/USB_CDC/usb_framework.c ****  * @param setup_packet  : Setup packet received
 556:hal/Landungsbruecke/freescale/USB_CDC/usb_framework.c ****  * @param data          : Data to be send back
 557:hal/Landungsbruecke/freescale/USB_CDC/usb_framework.c ****  * @param size          : Size to be returned
 558:hal/Landungsbruecke/freescale/USB_CDC/usb_framework.c ****  *
 559:hal/Landungsbruecke/freescale/USB_CDC/usb_framework.c ****  * @return None
 560:hal/Landungsbruecke/freescale/USB_CDC/usb_framework.c ****  *
 561:hal/Landungsbruecke/freescale/USB_CDC/usb_framework.c ****  ******************************************************************************
 562:hal/Landungsbruecke/freescale/USB_CDC/usb_framework.c ****  * This function sends a response to the data received on the control endpoint.
 563:hal/Landungsbruecke/freescale/USB_CDC/usb_framework.c ****  * the request is decoded in the control service
 564:hal/Landungsbruecke/freescale/USB_CDC/usb_framework.c ****  *****************************************************************************/
 565:hal/Landungsbruecke/freescale/USB_CDC/usb_framework.c **** static void USB_Control_Service_Handler (
 566:hal/Landungsbruecke/freescale/USB_CDC/usb_framework.c ****     uint_8    controller_ID,            /* [IN] Controller ID */
 567:hal/Landungsbruecke/freescale/USB_CDC/usb_framework.c ****     uint_8 status,                      /* [IN] Device Status */
 568:hal/Landungsbruecke/freescale/USB_CDC/usb_framework.c ****     USB_SETUP_STRUCT * setup_packet,    /* [IN] Setup packet received */
 569:hal/Landungsbruecke/freescale/USB_CDC/usb_framework.c ****     uint_8_ptr *data,                   /* [OUT] Data to be send back */
 570:hal/Landungsbruecke/freescale/USB_CDC/usb_framework.c ****     USB_PACKET_SIZE *size               /* [OUT] Size to be returned */
 571:hal/Landungsbruecke/freescale/USB_CDC/usb_framework.c **** )
 572:hal/Landungsbruecke/freescale/USB_CDC/usb_framework.c **** {
 573:hal/Landungsbruecke/freescale/USB_CDC/usb_framework.c ****     if(status == USBERR_INVALID_REQ_TYPE)
 574:hal/Landungsbruecke/freescale/USB_CDC/usb_framework.c ****     {
 575:hal/Landungsbruecke/freescale/USB_CDC/usb_framework.c ****         /* incase of error Stall endpoint */
 576:hal/Landungsbruecke/freescale/USB_CDC/usb_framework.c ****         (void)_usb_device_set_status(&controller_ID,
 577:hal/Landungsbruecke/freescale/USB_CDC/usb_framework.c ****             (uint_8)(USB_STATUS_ENDPOINT | CONTROL_ENDPOINT |
 578:hal/Landungsbruecke/freescale/USB_CDC/usb_framework.c ****             (USB_SEND << USB_COMPONENT_DIRECTION_SHIFT)),
 579:hal/Landungsbruecke/freescale/USB_CDC/usb_framework.c ****             USB_STATUS_STALLED);
 580:hal/Landungsbruecke/freescale/USB_CDC/usb_framework.c ****     }
 581:hal/Landungsbruecke/freescale/USB_CDC/usb_framework.c ****     else /* Need to send Data to the USB Host */
 582:hal/Landungsbruecke/freescale/USB_CDC/usb_framework.c ****     {
 583:hal/Landungsbruecke/freescale/USB_CDC/usb_framework.c ****         /* send the data prepared by the handlers.*/
 584:hal/Landungsbruecke/freescale/USB_CDC/usb_framework.c ****         if(*size > setup_packet->length)
 585:hal/Landungsbruecke/freescale/USB_CDC/usb_framework.c ****         {
 586:hal/Landungsbruecke/freescale/USB_CDC/usb_framework.c ****             *size = (USB_PACKET_SIZE)setup_packet->length;
 587:hal/Landungsbruecke/freescale/USB_CDC/usb_framework.c ****         }
 588:hal/Landungsbruecke/freescale/USB_CDC/usb_framework.c **** 
 589:hal/Landungsbruecke/freescale/USB_CDC/usb_framework.c ****          /* send the data to the host */
 590:hal/Landungsbruecke/freescale/USB_CDC/usb_framework.c ****         (void)USB_Class_Send_Data(controller_ID,
 591:hal/Landungsbruecke/freescale/USB_CDC/usb_framework.c ****             CONTROL_ENDPOINT, *data, *size);
 592:hal/Landungsbruecke/freescale/USB_CDC/usb_framework.c ****         if((setup_packet->request_type & USB_DATA_DIREC_MASK) ==
 593:hal/Landungsbruecke/freescale/USB_CDC/usb_framework.c ****             USB_DATA_TO_HOST)
 594:hal/Landungsbruecke/freescale/USB_CDC/usb_framework.c ****         {   /* Request was to Get Data from device */
 595:hal/Landungsbruecke/freescale/USB_CDC/usb_framework.c ****             /* setup rcv to get status from host */
 596:hal/Landungsbruecke/freescale/USB_CDC/usb_framework.c ****             (void)_usb_device_recv_data(&controller_ID,
 597:hal/Landungsbruecke/freescale/USB_CDC/usb_framework.c ****                 CONTROL_ENDPOINT,NULL,0);
 598:hal/Landungsbruecke/freescale/USB_CDC/usb_framework.c ****         }
 599:hal/Landungsbruecke/freescale/USB_CDC/usb_framework.c **** 
 600:hal/Landungsbruecke/freescale/USB_CDC/usb_framework.c ****     }
 601:hal/Landungsbruecke/freescale/USB_CDC/usb_framework.c ****     return;
 602:hal/Landungsbruecke/freescale/USB_CDC/usb_framework.c **** }
 603:hal/Landungsbruecke/freescale/USB_CDC/usb_framework.c **** /*************************************************************************//*!
 604:hal/Landungsbruecke/freescale/USB_CDC/usb_framework.c ****  *
 605:hal/Landungsbruecke/freescale/USB_CDC/usb_framework.c ****  * @name  USB_Strd_Req_Get_Status
 606:hal/Landungsbruecke/freescale/USB_CDC/usb_framework.c ****  *
 607:hal/Landungsbruecke/freescale/USB_CDC/usb_framework.c ****  * @brief  This function is called in response to Get Status request
 608:hal/Landungsbruecke/freescale/USB_CDC/usb_framework.c ****  *
 609:hal/Landungsbruecke/freescale/USB_CDC/usb_framework.c ****  * @param controller_ID : Controller ID
 610:hal/Landungsbruecke/freescale/USB_CDC/usb_framework.c ****  * @param setup_packet  : Setup packet received
 611:hal/Landungsbruecke/freescale/USB_CDC/usb_framework.c ****  * @param data          : Data to be send back
 612:hal/Landungsbruecke/freescale/USB_CDC/usb_framework.c ****  * @param size          : Size to be returned
 613:hal/Landungsbruecke/freescale/USB_CDC/usb_framework.c ****  *
 614:hal/Landungsbruecke/freescale/USB_CDC/usb_framework.c ****  * @return status:
 615:hal/Landungsbruecke/freescale/USB_CDC/usb_framework.c ****  *               USB_OK : When Successfull
 616:hal/Landungsbruecke/freescale/USB_CDC/usb_framework.c ****  *               Others : When Error
 617:hal/Landungsbruecke/freescale/USB_CDC/usb_framework.c ****  *
 618:hal/Landungsbruecke/freescale/USB_CDC/usb_framework.c ****  ******************************************************************************
 619:hal/Landungsbruecke/freescale/USB_CDC/usb_framework.c ****  * This is a ch9 request and is called by the host to know the status of the
 620:hal/Landungsbruecke/freescale/USB_CDC/usb_framework.c ****  * device, the interface and the endpoint
 621:hal/Landungsbruecke/freescale/USB_CDC/usb_framework.c ****  *****************************************************************************/
 622:hal/Landungsbruecke/freescale/USB_CDC/usb_framework.c **** static uint_8 USB_Strd_Req_Get_Status (
 623:hal/Landungsbruecke/freescale/USB_CDC/usb_framework.c ****     uint_8    controller_ID,            /* [IN] Controller ID */
 624:hal/Landungsbruecke/freescale/USB_CDC/usb_framework.c ****     USB_SETUP_STRUCT * setup_packet,    /* [IN] Setup packet received */
 625:hal/Landungsbruecke/freescale/USB_CDC/usb_framework.c ****     uint_8_ptr *data,                   /* [OUT] Data to be send back */
 626:hal/Landungsbruecke/freescale/USB_CDC/usb_framework.c ****     USB_PACKET_SIZE *size               /* [OUT] Size to be returned */
 627:hal/Landungsbruecke/freescale/USB_CDC/usb_framework.c **** )
 628:hal/Landungsbruecke/freescale/USB_CDC/usb_framework.c **** {
 629:hal/Landungsbruecke/freescale/USB_CDC/usb_framework.c **** 	uint_8_ptr pu8ConfigDesc = NULL;
 630:hal/Landungsbruecke/freescale/USB_CDC/usb_framework.c **** 	uint_16 u16DescSize;
 631:hal/Landungsbruecke/freescale/USB_CDC/usb_framework.c ****     uint_8 interface, endpoint = 0;
 632:hal/Landungsbruecke/freescale/USB_CDC/usb_framework.c ****     uint_8 status;
 633:hal/Landungsbruecke/freescale/USB_CDC/usb_framework.c ****     uint_8 device_state = USB_STATE_POWERED;
 634:hal/Landungsbruecke/freescale/USB_CDC/usb_framework.c **** 
 635:hal/Landungsbruecke/freescale/USB_CDC/usb_framework.c **** 
 636:hal/Landungsbruecke/freescale/USB_CDC/usb_framework.c ****     status = _usb_device_get_status(&controller_ID, USB_STATUS_DEVICE_STATE, &device_state);
 637:hal/Landungsbruecke/freescale/USB_CDC/usb_framework.c **** 
 638:hal/Landungsbruecke/freescale/USB_CDC/usb_framework.c ****     if((setup_packet->request_type & USB_REQUEST_SRC_MASK) == USB_REQUEST_SRC_DEVICE)
 639:hal/Landungsbruecke/freescale/USB_CDC/usb_framework.c ****     {
 640:hal/Landungsbruecke/freescale/USB_CDC/usb_framework.c ****         #ifdef OTG_BUILD
 641:hal/Landungsbruecke/freescale/USB_CDC/usb_framework.c ****         if(setup_packet->index == USB_WINDEX_OTG_STATUS_SEL)
 642:hal/Landungsbruecke/freescale/USB_CDC/usb_framework.c ****         {
 643:hal/Landungsbruecke/freescale/USB_CDC/usb_framework.c **** 			uint_8 temp;
 644:hal/Landungsbruecke/freescale/USB_CDC/usb_framework.c **** 			 /* Request for Device */
 645:hal/Landungsbruecke/freescale/USB_CDC/usb_framework.c **** 			 status = _usb_device_get_status(&controller_ID, USB_STATUS_OTG, &temp);
 646:hal/Landungsbruecke/freescale/USB_CDC/usb_framework.c **** 			 g_std_framework_data = (uint_16)temp;
 647:hal/Landungsbruecke/freescale/USB_CDC/usb_framework.c **** 			 g_std_framework_data &= GET_STATUS_OTG_MASK;
 648:hal/Landungsbruecke/freescale/USB_CDC/usb_framework.c **** 			 g_std_framework_data = BYTE_SWAP16(g_std_framework_data);
 649:hal/Landungsbruecke/freescale/USB_CDC/usb_framework.c **** 			 *size = OTG_STATUS_SIZE;
 650:hal/Landungsbruecke/freescale/USB_CDC/usb_framework.c ****         }
 651:hal/Landungsbruecke/freescale/USB_CDC/usb_framework.c ****         else
 652:hal/Landungsbruecke/freescale/USB_CDC/usb_framework.c ****         #endif
 653:hal/Landungsbruecke/freescale/USB_CDC/usb_framework.c ****         {
 654:hal/Landungsbruecke/freescale/USB_CDC/usb_framework.c ****          uint_8 device_state1;
 655:hal/Landungsbruecke/freescale/USB_CDC/usb_framework.c **** 
 656:hal/Landungsbruecke/freescale/USB_CDC/usb_framework.c ****          /* Request for Device */
 657:hal/Landungsbruecke/freescale/USB_CDC/usb_framework.c ****          status = _usb_device_get_status(&controller_ID, USB_STATUS_DEVICE, &device_state1);
 658:hal/Landungsbruecke/freescale/USB_CDC/usb_framework.c ****          g_std_framework_data = (uint_16)device_state1;
 659:hal/Landungsbruecke/freescale/USB_CDC/usb_framework.c ****          g_std_framework_data &= GET_STATUS_DEVICE_MASK;
 660:hal/Landungsbruecke/freescale/USB_CDC/usb_framework.c ****          g_std_framework_data = BYTE_SWAP16(g_std_framework_data);
 661:hal/Landungsbruecke/freescale/USB_CDC/usb_framework.c **** 
 662:hal/Landungsbruecke/freescale/USB_CDC/usb_framework.c ****          /* Set Self Powered bit in device state according to configuration */
 663:hal/Landungsbruecke/freescale/USB_CDC/usb_framework.c ****          status = USB_Desc_Get_Descriptor(controller_ID, USB_CONFIG_DESCRIPTOR,
 664:hal/Landungsbruecke/freescale/USB_CDC/usb_framework.c ****         		                          0, 0, &pu8ConfigDesc, (USB_PACKET_SIZE *)&u16DescSize);
 665:hal/Landungsbruecke/freescale/USB_CDC/usb_framework.c **** 
 666:hal/Landungsbruecke/freescale/USB_CDC/usb_framework.c **** 		 if((pu8ConfigDesc[7] & SELF_POWERED) != 0)
 667:hal/Landungsbruecke/freescale/USB_CDC/usb_framework.c **** 		 {
 668:hal/Landungsbruecke/freescale/USB_CDC/usb_framework.c **** 			g_std_framework_data |= BYTE_SWAP16(0x0001);
 669:hal/Landungsbruecke/freescale/USB_CDC/usb_framework.c **** 		 }
 670:hal/Landungsbruecke/freescale/USB_CDC/usb_framework.c **** 		 else
 671:hal/Landungsbruecke/freescale/USB_CDC/usb_framework.c **** 		 {
 672:hal/Landungsbruecke/freescale/USB_CDC/usb_framework.c **** 			g_std_framework_data &= BYTE_SWAP16(~0x0001);
 673:hal/Landungsbruecke/freescale/USB_CDC/usb_framework.c **** 		 }
 674:hal/Landungsbruecke/freescale/USB_CDC/usb_framework.c ****          *size = DEVICE_STATUS_SIZE;
 675:hal/Landungsbruecke/freescale/USB_CDC/usb_framework.c ****         }
 676:hal/Landungsbruecke/freescale/USB_CDC/usb_framework.c ****     }
 677:hal/Landungsbruecke/freescale/USB_CDC/usb_framework.c ****     else if((setup_packet->request_type & USB_REQUEST_SRC_MASK) == USB_REQUEST_SRC_INTERFACE)
 678:hal/Landungsbruecke/freescale/USB_CDC/usb_framework.c ****     {
 679:hal/Landungsbruecke/freescale/USB_CDC/usb_framework.c ****         /* Request for Interface */
 680:hal/Landungsbruecke/freescale/USB_CDC/usb_framework.c ****     	interface = (uint_8) setup_packet->index;
 681:hal/Landungsbruecke/freescale/USB_CDC/usb_framework.c ****         if((device_state == USB_STATE_ADDRESS) && (interface > 0))
 682:hal/Landungsbruecke/freescale/USB_CDC/usb_framework.c ****         {
 683:hal/Landungsbruecke/freescale/USB_CDC/usb_framework.c ****         	 status = USBERR_INVALID_REQ_TYPE;
 684:hal/Landungsbruecke/freescale/USB_CDC/usb_framework.c ****         }
 685:hal/Landungsbruecke/freescale/USB_CDC/usb_framework.c ****         else
 686:hal/Landungsbruecke/freescale/USB_CDC/usb_framework.c ****         {
 687:hal/Landungsbruecke/freescale/USB_CDC/usb_framework.c ****         	/* Interface requests always return 0 */
 688:hal/Landungsbruecke/freescale/USB_CDC/usb_framework.c ****         	g_std_framework_data = 0x0000;
 689:hal/Landungsbruecke/freescale/USB_CDC/usb_framework.c **** 			*size = INTERFACE_STATUS_SIZE;
 690:hal/Landungsbruecke/freescale/USB_CDC/usb_framework.c ****         }
 691:hal/Landungsbruecke/freescale/USB_CDC/usb_framework.c ****     }
 692:hal/Landungsbruecke/freescale/USB_CDC/usb_framework.c ****     else if((setup_packet->request_type & USB_REQUEST_SRC_MASK) == USB_REQUEST_SRC_ENDPOINT)
 693:hal/Landungsbruecke/freescale/USB_CDC/usb_framework.c ****     {
 694:hal/Landungsbruecke/freescale/USB_CDC/usb_framework.c ****         /* Request for Endpoint */
 695:hal/Landungsbruecke/freescale/USB_CDC/usb_framework.c ****     	if((device_state == USB_STATE_ADDRESS) && (endpoint > 0))
 696:hal/Landungsbruecke/freescale/USB_CDC/usb_framework.c **** 		{
 697:hal/Landungsbruecke/freescale/USB_CDC/usb_framework.c **** 			 status = USBERR_INVALID_REQ_TYPE;
 698:hal/Landungsbruecke/freescale/USB_CDC/usb_framework.c **** 		}
 699:hal/Landungsbruecke/freescale/USB_CDC/usb_framework.c ****     	else
 700:hal/Landungsbruecke/freescale/USB_CDC/usb_framework.c ****     	{
 701:hal/Landungsbruecke/freescale/USB_CDC/usb_framework.c **** 			uint_8 device_state2;
 702:hal/Landungsbruecke/freescale/USB_CDC/usb_framework.c **** 			endpoint  = (uint_8)(((uint_8) setup_packet->index) |
 703:hal/Landungsbruecke/freescale/USB_CDC/usb_framework.c **** 				USB_STATUS_ENDPOINT);
 704:hal/Landungsbruecke/freescale/USB_CDC/usb_framework.c **** 			status =  _usb_device_get_status(&controller_ID,
 705:hal/Landungsbruecke/freescale/USB_CDC/usb_framework.c **** 				endpoint,
 706:hal/Landungsbruecke/freescale/USB_CDC/usb_framework.c **** 				&device_state2);
 707:hal/Landungsbruecke/freescale/USB_CDC/usb_framework.c **** 			g_std_framework_data = (uint_16)device_state2;
 708:hal/Landungsbruecke/freescale/USB_CDC/usb_framework.c **** 			/* All other fields except HALT must be zero */
 709:hal/Landungsbruecke/freescale/USB_CDC/usb_framework.c **** 			g_std_framework_data &= 0x0001;  /* LSB is for the HALT feature */
 710:hal/Landungsbruecke/freescale/USB_CDC/usb_framework.c **** 			g_std_framework_data = BYTE_SWAP16(g_std_framework_data);
 711:hal/Landungsbruecke/freescale/USB_CDC/usb_framework.c **** 			*size = ENDP_STATUS_SIZE;
 712:hal/Landungsbruecke/freescale/USB_CDC/usb_framework.c ****     	}
 713:hal/Landungsbruecke/freescale/USB_CDC/usb_framework.c ****     }
 714:hal/Landungsbruecke/freescale/USB_CDC/usb_framework.c **** 
 715:hal/Landungsbruecke/freescale/USB_CDC/usb_framework.c ****     *data = (uint_8_ptr)&g_std_framework_data;
 716:hal/Landungsbruecke/freescale/USB_CDC/usb_framework.c ****     return status;
 717:hal/Landungsbruecke/freescale/USB_CDC/usb_framework.c **** }
 718:hal/Landungsbruecke/freescale/USB_CDC/usb_framework.c **** 
 719:hal/Landungsbruecke/freescale/USB_CDC/usb_framework.c **** /**************************************************************************//*!
 720:hal/Landungsbruecke/freescale/USB_CDC/usb_framework.c ****  *
 721:hal/Landungsbruecke/freescale/USB_CDC/usb_framework.c ****  * @name  USB_Strd_Req_Feature
 722:hal/Landungsbruecke/freescale/USB_CDC/usb_framework.c ****  *
 723:hal/Landungsbruecke/freescale/USB_CDC/usb_framework.c ****  * @brief  This function is called in response to Clear or Set Feature request
 724:hal/Landungsbruecke/freescale/USB_CDC/usb_framework.c ****  *
 725:hal/Landungsbruecke/freescale/USB_CDC/usb_framework.c ****  * @param controller_ID : Controller ID
 726:hal/Landungsbruecke/freescale/USB_CDC/usb_framework.c ****  * @param setup_packet  : Setup packet received
 727:hal/Landungsbruecke/freescale/USB_CDC/usb_framework.c ****  * @param data          : Data to be send back
 728:hal/Landungsbruecke/freescale/USB_CDC/usb_framework.c ****  * @param size          : Size to be returned
 729:hal/Landungsbruecke/freescale/USB_CDC/usb_framework.c ****  *
 730:hal/Landungsbruecke/freescale/USB_CDC/usb_framework.c ****  * @return status:
 731:hal/Landungsbruecke/freescale/USB_CDC/usb_framework.c ****  *               USB_OK : When Successfull
 732:hal/Landungsbruecke/freescale/USB_CDC/usb_framework.c ****  *               Others : When Error
 733:hal/Landungsbruecke/freescale/USB_CDC/usb_framework.c ****  *
 734:hal/Landungsbruecke/freescale/USB_CDC/usb_framework.c ****  ******************************************************************************
 735:hal/Landungsbruecke/freescale/USB_CDC/usb_framework.c ****  * This is a ch9 request, used to set/clear a feature on the device
 736:hal/Landungsbruecke/freescale/USB_CDC/usb_framework.c ****  * (device_remote_wakeup and test_mode) or on the endpoint(ep halt)
 737:hal/Landungsbruecke/freescale/USB_CDC/usb_framework.c ****  *****************************************************************************/
 738:hal/Landungsbruecke/freescale/USB_CDC/usb_framework.c **** static uint_8 USB_Strd_Req_Feature (
 739:hal/Landungsbruecke/freescale/USB_CDC/usb_framework.c ****     uint_8    controller_ID,            /* [IN] Controller ID */
 740:hal/Landungsbruecke/freescale/USB_CDC/usb_framework.c ****     USB_SETUP_STRUCT * setup_packet,    /* [IN] Setup packet received */
 741:hal/Landungsbruecke/freescale/USB_CDC/usb_framework.c ****     uint_8_ptr *data,                   /* [OUT] Data to be send back */
 742:hal/Landungsbruecke/freescale/USB_CDC/usb_framework.c ****     USB_PACKET_SIZE *size               /* [OUT] Size to be returned */
 743:hal/Landungsbruecke/freescale/USB_CDC/usb_framework.c **** )
 744:hal/Landungsbruecke/freescale/USB_CDC/usb_framework.c **** {
 745:hal/Landungsbruecke/freescale/USB_CDC/usb_framework.c ****     uint_8 device_status;
 746:hal/Landungsbruecke/freescale/USB_CDC/usb_framework.c ****     uint_8  set_request;
 747:hal/Landungsbruecke/freescale/USB_CDC/usb_framework.c ****     uint_8  status = USBERR_INVALID_REQ_TYPE;
 748:hal/Landungsbruecke/freescale/USB_CDC/usb_framework.c ****     uint_8  epinfo;
 749:hal/Landungsbruecke/freescale/USB_CDC/usb_framework.c ****     uint_8  event;
 750:hal/Landungsbruecke/freescale/USB_CDC/usb_framework.c **** 
 751:hal/Landungsbruecke/freescale/USB_CDC/usb_framework.c ****     UNUSED (data);
 752:hal/Landungsbruecke/freescale/USB_CDC/usb_framework.c **** 
 753:hal/Landungsbruecke/freescale/USB_CDC/usb_framework.c ****     *size=0;
 754:hal/Landungsbruecke/freescale/USB_CDC/usb_framework.c ****     /* Find whether its a clear feature request or a set feature request */
 755:hal/Landungsbruecke/freescale/USB_CDC/usb_framework.c ****     set_request = (uint_8)((setup_packet->request & USB_SET_REQUEST_MASK) >> 1 );
 756:hal/Landungsbruecke/freescale/USB_CDC/usb_framework.c **** 
 757:hal/Landungsbruecke/freescale/USB_CDC/usb_framework.c ****     if((setup_packet->request_type & USB_REQUEST_SRC_MASK) == USB_REQUEST_SRC_DEVICE)
 758:hal/Landungsbruecke/freescale/USB_CDC/usb_framework.c ****     {
 759:hal/Landungsbruecke/freescale/USB_CDC/usb_framework.c ****     	/* Request for Device */
 760:hal/Landungsbruecke/freescale/USB_CDC/usb_framework.c **** 		if(set_request == TRUE)
 761:hal/Landungsbruecke/freescale/USB_CDC/usb_framework.c ****         {
 762:hal/Landungsbruecke/freescale/USB_CDC/usb_framework.c ****             /* Standard Feature Selector */
 763:hal/Landungsbruecke/freescale/USB_CDC/usb_framework.c **** 			if((setup_packet->value == DEVICE_FEATURE_REMOTE_WAKEUP) || (setup_packet->value == DEVICE_FEATU
 764:hal/Landungsbruecke/freescale/USB_CDC/usb_framework.c ****             {
 765:hal/Landungsbruecke/freescale/USB_CDC/usb_framework.c **** 				status = _usb_device_get_status(&controller_ID, USB_STATUS_DEVICE, &device_status);
 766:hal/Landungsbruecke/freescale/USB_CDC/usb_framework.c **** 
 767:hal/Landungsbruecke/freescale/USB_CDC/usb_framework.c **** 				if(status == USB_OK)
 768:hal/Landungsbruecke/freescale/USB_CDC/usb_framework.c **** 				{
 769:hal/Landungsbruecke/freescale/USB_CDC/usb_framework.c **** 					/* Add the request to be set to the device_status */
 770:hal/Landungsbruecke/freescale/USB_CDC/usb_framework.c **** 					device_status |= (uint_16)(1 << (uint_8)setup_packet->value);
 771:hal/Landungsbruecke/freescale/USB_CDC/usb_framework.c **** 
 772:hal/Landungsbruecke/freescale/USB_CDC/usb_framework.c **** 					/* Set the status on the device */
 773:hal/Landungsbruecke/freescale/USB_CDC/usb_framework.c **** 					status = _usb_device_set_status(&controller_ID, USB_STATUS_DEVICE, device_status);
 774:hal/Landungsbruecke/freescale/USB_CDC/usb_framework.c **** 				}
 775:hal/Landungsbruecke/freescale/USB_CDC/usb_framework.c ****             }
 776:hal/Landungsbruecke/freescale/USB_CDC/usb_framework.c ****             #ifdef OTG_BUILD
 777:hal/Landungsbruecke/freescale/USB_CDC/usb_framework.c ****             /* OTG Feature Selector */
 778:hal/Landungsbruecke/freescale/USB_CDC/usb_framework.c **** 			else if(setup_packet->value == DEVICE_SET_FEATURE_B_HNP_ENABLE)
 779:hal/Landungsbruecke/freescale/USB_CDC/usb_framework.c ****             {
 780:hal/Landungsbruecke/freescale/USB_CDC/usb_framework.c ****  			   OTG_DESCRIPTOR_PTR_T otg_desc_ptr;
 781:hal/Landungsbruecke/freescale/USB_CDC/usb_framework.c ****  			   USB_PACKET_SIZE size;
 782:hal/Landungsbruecke/freescale/USB_CDC/usb_framework.c **** 
 783:hal/Landungsbruecke/freescale/USB_CDC/usb_framework.c ****  			   status = USB_Desc_Get_Descriptor(controller_ID, USB_OTG_DESCRIPTOR,(uint_8)UNINITIALISED_VAL
 784:hal/Landungsbruecke/freescale/USB_CDC/usb_framework.c ****  					                            (uint_16)UNINITIALISED_VAL,(uint_8_ptr *)&otg_desc_ptr,&size);
 785:hal/Landungsbruecke/freescale/USB_CDC/usb_framework.c ****  			   if(status == USB_OK)
 786:hal/Landungsbruecke/freescale/USB_CDC/usb_framework.c ****  			   {
 787:hal/Landungsbruecke/freescale/USB_CDC/usb_framework.c ****  				   if(otg_desc_ptr->bmAttributes & USB_OTG_HNP_SUPPORT)
 788:hal/Landungsbruecke/freescale/USB_CDC/usb_framework.c ****  				   {
 789:hal/Landungsbruecke/freescale/USB_CDC/usb_framework.c ****  					  _usb_otg_hnp_enable(controller_ID, set_request);
 790:hal/Landungsbruecke/freescale/USB_CDC/usb_framework.c ****  				   }
 791:hal/Landungsbruecke/freescale/USB_CDC/usb_framework.c ****  			   }
 792:hal/Landungsbruecke/freescale/USB_CDC/usb_framework.c ****             }
 793:hal/Landungsbruecke/freescale/USB_CDC/usb_framework.c ****             #endif
 794:hal/Landungsbruecke/freescale/USB_CDC/usb_framework.c ****             else
 795:hal/Landungsbruecke/freescale/USB_CDC/usb_framework.c ****             {
 796:hal/Landungsbruecke/freescale/USB_CDC/usb_framework.c ****                status = USBERR_INVALID_REQ_TYPE;
 797:hal/Landungsbruecke/freescale/USB_CDC/usb_framework.c ****             }
 798:hal/Landungsbruecke/freescale/USB_CDC/usb_framework.c ****         }
 799:hal/Landungsbruecke/freescale/USB_CDC/usb_framework.c ****         else //(set_request == FALSE) it is a clear feature request
 800:hal/Landungsbruecke/freescale/USB_CDC/usb_framework.c ****         {
 801:hal/Landungsbruecke/freescale/USB_CDC/usb_framework.c ****         	if(setup_packet->value == DEVICE_FEATURE_REMOTE_WAKEUP)
 802:hal/Landungsbruecke/freescale/USB_CDC/usb_framework.c ****             {
 803:hal/Landungsbruecke/freescale/USB_CDC/usb_framework.c ****         		status = _usb_device_get_status(&controller_ID, USB_STATUS_DEVICE, &device_status);
 804:hal/Landungsbruecke/freescale/USB_CDC/usb_framework.c **** 
 805:hal/Landungsbruecke/freescale/USB_CDC/usb_framework.c ****                 if(status == USB_OK)
 806:hal/Landungsbruecke/freescale/USB_CDC/usb_framework.c ****                 {
 807:hal/Landungsbruecke/freescale/USB_CDC/usb_framework.c ****                 	/* Remove the request to be cleared from device_status */
 808:hal/Landungsbruecke/freescale/USB_CDC/usb_framework.c ****                 	device_status &= (uint_16)~(1 << (uint_8)setup_packet->value);
 809:hal/Landungsbruecke/freescale/USB_CDC/usb_framework.c ****                 	status = _usb_device_set_status(&controller_ID, USB_STATUS_DEVICE, device_status);
 810:hal/Landungsbruecke/freescale/USB_CDC/usb_framework.c ****                 }
 811:hal/Landungsbruecke/freescale/USB_CDC/usb_framework.c ****             }
 812:hal/Landungsbruecke/freescale/USB_CDC/usb_framework.c ****         	else
 813:hal/Landungsbruecke/freescale/USB_CDC/usb_framework.c ****         	{
 814:hal/Landungsbruecke/freescale/USB_CDC/usb_framework.c ****         		status = USBERR_INVALID_REQ_TYPE;
 815:hal/Landungsbruecke/freescale/USB_CDC/usb_framework.c ****         	}
 816:hal/Landungsbruecke/freescale/USB_CDC/usb_framework.c ****         }
 817:hal/Landungsbruecke/freescale/USB_CDC/usb_framework.c ****     }
 818:hal/Landungsbruecke/freescale/USB_CDC/usb_framework.c ****     else if((setup_packet->request_type & USB_REQUEST_SRC_MASK) == USB_REQUEST_SRC_ENDPOINT)
 819:hal/Landungsbruecke/freescale/USB_CDC/usb_framework.c ****     {
 820:hal/Landungsbruecke/freescale/USB_CDC/usb_framework.c ****         /* Request for Endpoint */
 821:hal/Landungsbruecke/freescale/USB_CDC/usb_framework.c ****         epinfo = (uint_8)(setup_packet->index & 0x00FF);
 822:hal/Landungsbruecke/freescale/USB_CDC/usb_framework.c **** 	    status = _usb_device_set_status(&controller_ID, (uint_8)(epinfo|USB_STATUS_ENDPOINT), set_requ
 823:hal/Landungsbruecke/freescale/USB_CDC/usb_framework.c **** 
 824:hal/Landungsbruecke/freescale/USB_CDC/usb_framework.c **** 	    event = (uint_8)(set_request ? USB_APP_EP_STALLED : USB_APP_EP_UNSTALLED);
 825:hal/Landungsbruecke/freescale/USB_CDC/usb_framework.c **** 
 826:hal/Landungsbruecke/freescale/USB_CDC/usb_framework.c **** 	    if(setup_packet->request == CLEAR_FEATURE)
 827:hal/Landungsbruecke/freescale/USB_CDC/usb_framework.c ****         {
 828:hal/Landungsbruecke/freescale/USB_CDC/usb_framework.c **** 	         uint_8  epnum = epinfo & 0x0F;
 829:hal/Landungsbruecke/freescale/USB_CDC/usb_framework.c **** 	         uint_8  dir = (epinfo & 0x80) >> 7;
 830:hal/Landungsbruecke/freescale/USB_CDC/usb_framework.c **** 	         _usb_device_clear_data0_endpoint(epnum,dir);
 831:hal/Landungsbruecke/freescale/USB_CDC/usb_framework.c **** 	         event = USB_APP_EP_UNSTALLED;  // as far as the application is concerned, this is an UNST
 832:hal/Landungsbruecke/freescale/USB_CDC/usb_framework.c ****         }
 833:hal/Landungsbruecke/freescale/USB_CDC/usb_framework.c **** 
 834:hal/Landungsbruecke/freescale/USB_CDC/usb_framework.c **** 	    /* Inform the upper layers of stall/unstall */
 835:hal/Landungsbruecke/freescale/USB_CDC/usb_framework.c ****         g_framework_callback(controller_ID,event,(void*)&epinfo);
 836:hal/Landungsbruecke/freescale/USB_CDC/usb_framework.c ****     }
 837:hal/Landungsbruecke/freescale/USB_CDC/usb_framework.c ****     return status;
 838:hal/Landungsbruecke/freescale/USB_CDC/usb_framework.c **** }
 839:hal/Landungsbruecke/freescale/USB_CDC/usb_framework.c **** 
 840:hal/Landungsbruecke/freescale/USB_CDC/usb_framework.c **** /**************************************************************************//*!
 841:hal/Landungsbruecke/freescale/USB_CDC/usb_framework.c ****  *
 842:hal/Landungsbruecke/freescale/USB_CDC/usb_framework.c ****  * @name  USB_Strd_Req_Set_Address
 843:hal/Landungsbruecke/freescale/USB_CDC/usb_framework.c ****  *
 844:hal/Landungsbruecke/freescale/USB_CDC/usb_framework.c ****  * @brief  This function is called in response to Set Address request
 845:hal/Landungsbruecke/freescale/USB_CDC/usb_framework.c ****  *
 846:hal/Landungsbruecke/freescale/USB_CDC/usb_framework.c ****  * @param controller_ID : Controller ID
 847:hal/Landungsbruecke/freescale/USB_CDC/usb_framework.c ****  * @param setup_packet  : Setup packet received
 848:hal/Landungsbruecke/freescale/USB_CDC/usb_framework.c ****  * @param data          : Data to be send back
 849:hal/Landungsbruecke/freescale/USB_CDC/usb_framework.c ****  * @param size          : Size to be returned
 850:hal/Landungsbruecke/freescale/USB_CDC/usb_framework.c ****  *
 851:hal/Landungsbruecke/freescale/USB_CDC/usb_framework.c ****  * @return status:
 852:hal/Landungsbruecke/freescale/USB_CDC/usb_framework.c ****  *               USB_OK : When Successfull
 853:hal/Landungsbruecke/freescale/USB_CDC/usb_framework.c ****  *               Others : When Error
 854:hal/Landungsbruecke/freescale/USB_CDC/usb_framework.c ****  *
 855:hal/Landungsbruecke/freescale/USB_CDC/usb_framework.c ****  ******************************************************************************
 856:hal/Landungsbruecke/freescale/USB_CDC/usb_framework.c ****  * This is a ch9 request, saves the new address in a global variable. this
 857:hal/Landungsbruecke/freescale/USB_CDC/usb_framework.c ****  * address is assigned to the device after this transaction completes
 858:hal/Landungsbruecke/freescale/USB_CDC/usb_framework.c ****  *****************************************************************************/
 859:hal/Landungsbruecke/freescale/USB_CDC/usb_framework.c **** static uint_8 USB_Strd_Req_Set_Address (
 860:hal/Landungsbruecke/freescale/USB_CDC/usb_framework.c ****     uint_8    controller_ID,            /* [IN] Controller ID */
 861:hal/Landungsbruecke/freescale/USB_CDC/usb_framework.c ****     USB_SETUP_STRUCT * setup_packet,    /* [IN] Setup packet received */
 862:hal/Landungsbruecke/freescale/USB_CDC/usb_framework.c ****     uint_8_ptr *data,                   /* [OUT] Data to be send back */
 863:hal/Landungsbruecke/freescale/USB_CDC/usb_framework.c ****     USB_PACKET_SIZE *size               /* [OUT] Size to be returned */
 864:hal/Landungsbruecke/freescale/USB_CDC/usb_framework.c **** )
 865:hal/Landungsbruecke/freescale/USB_CDC/usb_framework.c **** {
 866:hal/Landungsbruecke/freescale/USB_CDC/usb_framework.c ****     UNUSED (data);
 867:hal/Landungsbruecke/freescale/USB_CDC/usb_framework.c ****     *size=0;
 868:hal/Landungsbruecke/freescale/USB_CDC/usb_framework.c ****     /* update device state */
 869:hal/Landungsbruecke/freescale/USB_CDC/usb_framework.c ****     (void)_usb_device_set_status(&controller_ID,
 870:hal/Landungsbruecke/freescale/USB_CDC/usb_framework.c ****         USB_STATUS_DEVICE_STATE, USB_STATE_PENDING_ADDRESS);
 871:hal/Landungsbruecke/freescale/USB_CDC/usb_framework.c **** 
 872:hal/Landungsbruecke/freescale/USB_CDC/usb_framework.c ****     /*store the address from setup_packet into assigned_address*/
 873:hal/Landungsbruecke/freescale/USB_CDC/usb_framework.c ****     g_assigned_address = (uint_8)setup_packet->value;
 874:hal/Landungsbruecke/freescale/USB_CDC/usb_framework.c **** 
 875:hal/Landungsbruecke/freescale/USB_CDC/usb_framework.c ****     return USB_OK;
 876:hal/Landungsbruecke/freescale/USB_CDC/usb_framework.c **** }
 877:hal/Landungsbruecke/freescale/USB_CDC/usb_framework.c **** 
 878:hal/Landungsbruecke/freescale/USB_CDC/usb_framework.c **** /**************************************************************************//*!
 879:hal/Landungsbruecke/freescale/USB_CDC/usb_framework.c ****  *
 880:hal/Landungsbruecke/freescale/USB_CDC/usb_framework.c ****  * @name  USB_Strd_Req_Assign_Address
 881:hal/Landungsbruecke/freescale/USB_CDC/usb_framework.c ****  *
 882:hal/Landungsbruecke/freescale/USB_CDC/usb_framework.c ****  * @brief  This function assigns the address to the Device
 883:hal/Landungsbruecke/freescale/USB_CDC/usb_framework.c ****  *
 884:hal/Landungsbruecke/freescale/USB_CDC/usb_framework.c ****  * @param controller_ID : Controller ID
 885:hal/Landungsbruecke/freescale/USB_CDC/usb_framework.c ****  *
 886:hal/Landungsbruecke/freescale/USB_CDC/usb_framework.c ****  * @return status
 887:hal/Landungsbruecke/freescale/USB_CDC/usb_framework.c ****  *                       USB_OK: Always
 888:hal/Landungsbruecke/freescale/USB_CDC/usb_framework.c ****  *
 889:hal/Landungsbruecke/freescale/USB_CDC/usb_framework.c ****  ******************************************************************************
 890:hal/Landungsbruecke/freescale/USB_CDC/usb_framework.c ****  * This function assigns the new address and is called (from the control
 891:hal/Landungsbruecke/freescale/USB_CDC/usb_framework.c ****  * service) after the set address transaction completes
 892:hal/Landungsbruecke/freescale/USB_CDC/usb_framework.c ****  *****************************************************************************/
 893:hal/Landungsbruecke/freescale/USB_CDC/usb_framework.c **** static uint_8 USB_Strd_Req_Assign_Address (
 894:hal/Landungsbruecke/freescale/USB_CDC/usb_framework.c ****     uint_8    controller_ID         /* [IN] Controller ID */
 895:hal/Landungsbruecke/freescale/USB_CDC/usb_framework.c **** )
 896:hal/Landungsbruecke/freescale/USB_CDC/usb_framework.c **** {
 897:hal/Landungsbruecke/freescale/USB_CDC/usb_framework.c ****     /* Set Device Address */
 898:hal/Landungsbruecke/freescale/USB_CDC/usb_framework.c ****     (void)_usb_device_set_address(&controller_ID, g_assigned_address);
 899:hal/Landungsbruecke/freescale/USB_CDC/usb_framework.c **** 
 900:hal/Landungsbruecke/freescale/USB_CDC/usb_framework.c ****     /* Set Device state */
 901:hal/Landungsbruecke/freescale/USB_CDC/usb_framework.c ****     (void)_usb_device_set_status(&controller_ID,
 902:hal/Landungsbruecke/freescale/USB_CDC/usb_framework.c ****         USB_STATUS_DEVICE_STATE, USB_STATE_ADDRESS);
 903:hal/Landungsbruecke/freescale/USB_CDC/usb_framework.c ****     /* Set Device state */
 904:hal/Landungsbruecke/freescale/USB_CDC/usb_framework.c ****     (void)_usb_device_set_status(&controller_ID, USB_STATUS_ADDRESS,
 905:hal/Landungsbruecke/freescale/USB_CDC/usb_framework.c ****         g_assigned_address);
 906:hal/Landungsbruecke/freescale/USB_CDC/usb_framework.c **** 
 907:hal/Landungsbruecke/freescale/USB_CDC/usb_framework.c ****     return USB_OK;
 908:hal/Landungsbruecke/freescale/USB_CDC/usb_framework.c **** }
 909:hal/Landungsbruecke/freescale/USB_CDC/usb_framework.c **** 
 910:hal/Landungsbruecke/freescale/USB_CDC/usb_framework.c **** /**************************************************************************//*!
 911:hal/Landungsbruecke/freescale/USB_CDC/usb_framework.c ****  *
 912:hal/Landungsbruecke/freescale/USB_CDC/usb_framework.c ****  * @name  USB_Strd_Req_Get_Config
 913:hal/Landungsbruecke/freescale/USB_CDC/usb_framework.c ****  *
 914:hal/Landungsbruecke/freescale/USB_CDC/usb_framework.c ****  * @brief  This function is called in response to Get Config request
 915:hal/Landungsbruecke/freescale/USB_CDC/usb_framework.c ****  *
 916:hal/Landungsbruecke/freescale/USB_CDC/usb_framework.c ****  * @param controller_ID : Controller ID
 917:hal/Landungsbruecke/freescale/USB_CDC/usb_framework.c ****  * @param setup_packet  : Setup packet received
 918:hal/Landungsbruecke/freescale/USB_CDC/usb_framework.c ****  * @param data          : Data to be send back
 919:hal/Landungsbruecke/freescale/USB_CDC/usb_framework.c ****  * @param size          : Size to be returned
 920:hal/Landungsbruecke/freescale/USB_CDC/usb_framework.c ****  *
 921:hal/Landungsbruecke/freescale/USB_CDC/usb_framework.c ****  * @return status:
 922:hal/Landungsbruecke/freescale/USB_CDC/usb_framework.c ****  *               USB_OK : Always
 923:hal/Landungsbruecke/freescale/USB_CDC/usb_framework.c ****  *
 924:hal/Landungsbruecke/freescale/USB_CDC/usb_framework.c ****  ******************************************************************************
 925:hal/Landungsbruecke/freescale/USB_CDC/usb_framework.c ****  * This is a ch9 request and is used to know the currently used configuration
 926:hal/Landungsbruecke/freescale/USB_CDC/usb_framework.c ****  *****************************************************************************/
 927:hal/Landungsbruecke/freescale/USB_CDC/usb_framework.c **** static uint_8 USB_Strd_Req_Get_Config (
 928:hal/Landungsbruecke/freescale/USB_CDC/usb_framework.c ****     uint_8    controller_ID,            /* [IN] Controller ID */
 929:hal/Landungsbruecke/freescale/USB_CDC/usb_framework.c ****     USB_SETUP_STRUCT * setup_packet,    /* [IN] Setup packet received */
 930:hal/Landungsbruecke/freescale/USB_CDC/usb_framework.c ****     uint_8_ptr *data,                   /* [OUT] Data to be send back */
 931:hal/Landungsbruecke/freescale/USB_CDC/usb_framework.c ****     USB_PACKET_SIZE *size               /* [OUT] Size to be returned */
 932:hal/Landungsbruecke/freescale/USB_CDC/usb_framework.c **** )
 933:hal/Landungsbruecke/freescale/USB_CDC/usb_framework.c **** {
 934:hal/Landungsbruecke/freescale/USB_CDC/usb_framework.c ****     uint_8 device_status;
 935:hal/Landungsbruecke/freescale/USB_CDC/usb_framework.c **** 
 936:hal/Landungsbruecke/freescale/USB_CDC/usb_framework.c ****     UNUSED(setup_packet);
 937:hal/Landungsbruecke/freescale/USB_CDC/usb_framework.c **** 
 938:hal/Landungsbruecke/freescale/USB_CDC/usb_framework.c ****     *size = CONFIG_SIZE;
 939:hal/Landungsbruecke/freescale/USB_CDC/usb_framework.c ****     (void)_usb_device_get_status(&controller_ID, USB_STATUS_CURRENT_CONFIG, &device_status);
 940:hal/Landungsbruecke/freescale/USB_CDC/usb_framework.c ****     g_std_framework_data = (uint_16)device_status;
 941:hal/Landungsbruecke/freescale/USB_CDC/usb_framework.c ****     g_std_framework_data = BYTE_SWAP16(g_std_framework_data);
 942:hal/Landungsbruecke/freescale/USB_CDC/usb_framework.c ****     *data = (uint_8_ptr)(&g_std_framework_data);
 943:hal/Landungsbruecke/freescale/USB_CDC/usb_framework.c **** 
 944:hal/Landungsbruecke/freescale/USB_CDC/usb_framework.c ****     return USB_OK;
 945:hal/Landungsbruecke/freescale/USB_CDC/usb_framework.c **** }
 946:hal/Landungsbruecke/freescale/USB_CDC/usb_framework.c **** 
 947:hal/Landungsbruecke/freescale/USB_CDC/usb_framework.c **** /**************************************************************************//*!
 948:hal/Landungsbruecke/freescale/USB_CDC/usb_framework.c ****  *
 949:hal/Landungsbruecke/freescale/USB_CDC/usb_framework.c ****  * @name  USB_Strd_Req_Set_Config
 950:hal/Landungsbruecke/freescale/USB_CDC/usb_framework.c ****  *
 951:hal/Landungsbruecke/freescale/USB_CDC/usb_framework.c ****  * @brief  This function is called in response to Set Config request
 952:hal/Landungsbruecke/freescale/USB_CDC/usb_framework.c ****  *
 953:hal/Landungsbruecke/freescale/USB_CDC/usb_framework.c ****  * @param controller_ID : Controller ID
 954:hal/Landungsbruecke/freescale/USB_CDC/usb_framework.c ****  * @param setup_packet  : Setup packet received
 955:hal/Landungsbruecke/freescale/USB_CDC/usb_framework.c ****  * @param data          : Data to be send back
 956:hal/Landungsbruecke/freescale/USB_CDC/usb_framework.c ****  * @param size          : Size to be returned
 957:hal/Landungsbruecke/freescale/USB_CDC/usb_framework.c ****  *
 958:hal/Landungsbruecke/freescale/USB_CDC/usb_framework.c ****  * @return status:
 959:hal/Landungsbruecke/freescale/USB_CDC/usb_framework.c ****  *               USB_OK : When Successfull
 960:hal/Landungsbruecke/freescale/USB_CDC/usb_framework.c ****  *               Others : When Error
 961:hal/Landungsbruecke/freescale/USB_CDC/usb_framework.c ****  *
 962:hal/Landungsbruecke/freescale/USB_CDC/usb_framework.c ****  ******************************************************************************
 963:hal/Landungsbruecke/freescale/USB_CDC/usb_framework.c ****  * This is a ch9 request and is used by the host to set the new configuration
 964:hal/Landungsbruecke/freescale/USB_CDC/usb_framework.c ****  *****************************************************************************/
 965:hal/Landungsbruecke/freescale/USB_CDC/usb_framework.c **** static uint_8 USB_Strd_Req_Set_Config (
 966:hal/Landungsbruecke/freescale/USB_CDC/usb_framework.c ****     uint_8    controller_ID,            /* [IN] Controller ID */
 967:hal/Landungsbruecke/freescale/USB_CDC/usb_framework.c ****     USB_SETUP_STRUCT * setup_packet,    /* [IN] Setup packet received */
 968:hal/Landungsbruecke/freescale/USB_CDC/usb_framework.c ****     uint_8_ptr *data,                   /* [OUT] Data to be send back */
 969:hal/Landungsbruecke/freescale/USB_CDC/usb_framework.c ****     USB_PACKET_SIZE *size               /* [OUT] Size to be returned */
 970:hal/Landungsbruecke/freescale/USB_CDC/usb_framework.c **** )
 971:hal/Landungsbruecke/freescale/USB_CDC/usb_framework.c **** {
 972:hal/Landungsbruecke/freescale/USB_CDC/usb_framework.c ****     uint_8 status = USBERR_INVALID_REQ_TYPE;
 973:hal/Landungsbruecke/freescale/USB_CDC/usb_framework.c ****     uint_16 config_val;
 974:hal/Landungsbruecke/freescale/USB_CDC/usb_framework.c **** 
 975:hal/Landungsbruecke/freescale/USB_CDC/usb_framework.c ****     UNUSED (data);
 976:hal/Landungsbruecke/freescale/USB_CDC/usb_framework.c ****     *size = 0;
 977:hal/Landungsbruecke/freescale/USB_CDC/usb_framework.c ****     status = USB_STATUS_ERROR;
 978:hal/Landungsbruecke/freescale/USB_CDC/usb_framework.c ****     config_val = setup_packet->value;
 979:hal/Landungsbruecke/freescale/USB_CDC/usb_framework.c **** 
 980:hal/Landungsbruecke/freescale/USB_CDC/usb_framework.c ****     if(USB_Desc_Valid_Configation(controller_ID, config_val))
 981:hal/Landungsbruecke/freescale/USB_CDC/usb_framework.c ****     /*if valid configuration (fn returns boolean value)*/
 982:hal/Landungsbruecke/freescale/USB_CDC/usb_framework.c ****     {
 983:hal/Landungsbruecke/freescale/USB_CDC/usb_framework.c ****         uint_8 device_state = USB_STATE_CONFIG;
 984:hal/Landungsbruecke/freescale/USB_CDC/usb_framework.c **** 
 985:hal/Landungsbruecke/freescale/USB_CDC/usb_framework.c ****         /* if config_val is 0 */
 986:hal/Landungsbruecke/freescale/USB_CDC/usb_framework.c ****         if(!config_val)
 987:hal/Landungsbruecke/freescale/USB_CDC/usb_framework.c ****         {
 988:hal/Landungsbruecke/freescale/USB_CDC/usb_framework.c ****             device_state = USB_STATE_ADDRESS ;
 989:hal/Landungsbruecke/freescale/USB_CDC/usb_framework.c ****         }
 990:hal/Landungsbruecke/freescale/USB_CDC/usb_framework.c **** 
 991:hal/Landungsbruecke/freescale/USB_CDC/usb_framework.c ****         status = _usb_device_set_status(&controller_ID, USB_STATUS_DEVICE_STATE,
 992:hal/Landungsbruecke/freescale/USB_CDC/usb_framework.c ****             device_state);
 993:hal/Landungsbruecke/freescale/USB_CDC/usb_framework.c ****         status = _usb_device_set_status(&controller_ID,
 994:hal/Landungsbruecke/freescale/USB_CDC/usb_framework.c ****             USB_STATUS_CURRENT_CONFIG, (uint_8)config_val);
 995:hal/Landungsbruecke/freescale/USB_CDC/usb_framework.c ****         /*
 996:hal/Landungsbruecke/freescale/USB_CDC/usb_framework.c ****            Callback to the app. to let the application know about the new
 997:hal/Landungsbruecke/freescale/USB_CDC/usb_framework.c ****            Configuration
 998:hal/Landungsbruecke/freescale/USB_CDC/usb_framework.c ****         */
 999:hal/Landungsbruecke/freescale/USB_CDC/usb_framework.c ****         g_framework_callback(controller_ID,USB_APP_CONFIG_CHANGED,
1000:hal/Landungsbruecke/freescale/USB_CDC/usb_framework.c ****             (void *)&config_val);
1001:hal/Landungsbruecke/freescale/USB_CDC/usb_framework.c ****         g_framework_callback(controller_ID,USB_APP_ENUM_COMPLETE, NULL);
1002:hal/Landungsbruecke/freescale/USB_CDC/usb_framework.c ****     }
1003:hal/Landungsbruecke/freescale/USB_CDC/usb_framework.c **** 
1004:hal/Landungsbruecke/freescale/USB_CDC/usb_framework.c ****     return status;
1005:hal/Landungsbruecke/freescale/USB_CDC/usb_framework.c ****  }
1006:hal/Landungsbruecke/freescale/USB_CDC/usb_framework.c **** 
1007:hal/Landungsbruecke/freescale/USB_CDC/usb_framework.c **** /**************************************************************************//*!
1008:hal/Landungsbruecke/freescale/USB_CDC/usb_framework.c ****  *
1009:hal/Landungsbruecke/freescale/USB_CDC/usb_framework.c ****  * @name  USB_Strd_Req_Get_Interface
1010:hal/Landungsbruecke/freescale/USB_CDC/usb_framework.c ****  *
1011:hal/Landungsbruecke/freescale/USB_CDC/usb_framework.c ****  * @brief  This function is called in response to Get Interface request
1012:hal/Landungsbruecke/freescale/USB_CDC/usb_framework.c ****  *
1013:hal/Landungsbruecke/freescale/USB_CDC/usb_framework.c ****  * @param controller_ID : Controller ID
1014:hal/Landungsbruecke/freescale/USB_CDC/usb_framework.c ****  * @param setup_packet  : Setup packet received
1015:hal/Landungsbruecke/freescale/USB_CDC/usb_framework.c ****  * @param data          : Data to be send back
1016:hal/Landungsbruecke/freescale/USB_CDC/usb_framework.c ****  * @param size          : Size to be returned
1017:hal/Landungsbruecke/freescale/USB_CDC/usb_framework.c ****  *
1018:hal/Landungsbruecke/freescale/USB_CDC/usb_framework.c ****  * @return status:
1019:hal/Landungsbruecke/freescale/USB_CDC/usb_framework.c ****  *               USB_OK : When Successfull
1020:hal/Landungsbruecke/freescale/USB_CDC/usb_framework.c ****  *               Others : When Error
1021:hal/Landungsbruecke/freescale/USB_CDC/usb_framework.c ****  *
1022:hal/Landungsbruecke/freescale/USB_CDC/usb_framework.c ****  ******************************************************************************
1023:hal/Landungsbruecke/freescale/USB_CDC/usb_framework.c ****  * This is a ch9 request and is used to know the current interface
1024:hal/Landungsbruecke/freescale/USB_CDC/usb_framework.c ****  *****************************************************************************/
1025:hal/Landungsbruecke/freescale/USB_CDC/usb_framework.c **** static uint_8 USB_Strd_Req_Get_Interface (
1026:hal/Landungsbruecke/freescale/USB_CDC/usb_framework.c ****     uint_8    controller_ID,            /* [IN] Controller ID */
1027:hal/Landungsbruecke/freescale/USB_CDC/usb_framework.c ****     USB_SETUP_STRUCT * setup_packet,    /* [IN] Setup packet received */
1028:hal/Landungsbruecke/freescale/USB_CDC/usb_framework.c ****     uint_8_ptr *data,                   /* [OUT] Data to be send back */
1029:hal/Landungsbruecke/freescale/USB_CDC/usb_framework.c ****     USB_PACKET_SIZE *size               /* [OUT] Size to be returned */
1030:hal/Landungsbruecke/freescale/USB_CDC/usb_framework.c **** )
1031:hal/Landungsbruecke/freescale/USB_CDC/usb_framework.c **** {
1032:hal/Landungsbruecke/freescale/USB_CDC/usb_framework.c ****     uint_8 status;
1033:hal/Landungsbruecke/freescale/USB_CDC/usb_framework.c **** 
1034:hal/Landungsbruecke/freescale/USB_CDC/usb_framework.c ****     /* Request type not for interface */
1035:hal/Landungsbruecke/freescale/USB_CDC/usb_framework.c ****     if((setup_packet->request_type & USB_REQUEST_SRC_MASK) != USB_REQUEST_SRC_INTERFACE)
1036:hal/Landungsbruecke/freescale/USB_CDC/usb_framework.c ****     {
1037:hal/Landungsbruecke/freescale/USB_CDC/usb_framework.c ****         return USB_STATUS_ERROR;
1038:hal/Landungsbruecke/freescale/USB_CDC/usb_framework.c ****     }
1039:hal/Landungsbruecke/freescale/USB_CDC/usb_framework.c ****     else
1040:hal/Landungsbruecke/freescale/USB_CDC/usb_framework.c ****     {
1041:hal/Landungsbruecke/freescale/USB_CDC/usb_framework.c ****     	*size = INTERFACE_SIZE;
1042:hal/Landungsbruecke/freescale/USB_CDC/usb_framework.c **** 		status = USB_Desc_Get_Interface(controller_ID,(uint_8)setup_packet->index,
1043:hal/Landungsbruecke/freescale/USB_CDC/usb_framework.c **** 										(uint_8_ptr)&g_std_framework_data);
1044:hal/Landungsbruecke/freescale/USB_CDC/usb_framework.c **** 		*data = (uint_8_ptr)&g_std_framework_data;
1045:hal/Landungsbruecke/freescale/USB_CDC/usb_framework.c **** 
1046:hal/Landungsbruecke/freescale/USB_CDC/usb_framework.c **** 		return status;
1047:hal/Landungsbruecke/freescale/USB_CDC/usb_framework.c ****     }
1048:hal/Landungsbruecke/freescale/USB_CDC/usb_framework.c **** }
1049:hal/Landungsbruecke/freescale/USB_CDC/usb_framework.c **** 
1050:hal/Landungsbruecke/freescale/USB_CDC/usb_framework.c **** /**************************************************************************//*!
1051:hal/Landungsbruecke/freescale/USB_CDC/usb_framework.c ****  *
1052:hal/Landungsbruecke/freescale/USB_CDC/usb_framework.c ****  * @name  USB_Strd_Req_Set_Interface
1053:hal/Landungsbruecke/freescale/USB_CDC/usb_framework.c ****  *
1054:hal/Landungsbruecke/freescale/USB_CDC/usb_framework.c ****  * @brief  This function is called in response to Set Interface request
1055:hal/Landungsbruecke/freescale/USB_CDC/usb_framework.c ****  *
1056:hal/Landungsbruecke/freescale/USB_CDC/usb_framework.c ****  * @param controller_ID : Controller ID
1057:hal/Landungsbruecke/freescale/USB_CDC/usb_framework.c ****  * @param setup_packet  : Setup packet received
1058:hal/Landungsbruecke/freescale/USB_CDC/usb_framework.c ****  * @param data          : Data to be send back
1059:hal/Landungsbruecke/freescale/USB_CDC/usb_framework.c ****  * @param size          : Size to be returned
1060:hal/Landungsbruecke/freescale/USB_CDC/usb_framework.c ****  *
1061:hal/Landungsbruecke/freescale/USB_CDC/usb_framework.c ****  * @return status:
1062:hal/Landungsbruecke/freescale/USB_CDC/usb_framework.c ****  *               USB_OK : Always
1063:hal/Landungsbruecke/freescale/USB_CDC/usb_framework.c ****  *
1064:hal/Landungsbruecke/freescale/USB_CDC/usb_framework.c ****  ******************************************************************************
1065:hal/Landungsbruecke/freescale/USB_CDC/usb_framework.c ****  * This is a ch9 request and is used by the  host to set the interface
1066:hal/Landungsbruecke/freescale/USB_CDC/usb_framework.c ****  *****************************************************************************/
1067:hal/Landungsbruecke/freescale/USB_CDC/usb_framework.c **** static uint_8 USB_Strd_Req_Set_Interface (
1068:hal/Landungsbruecke/freescale/USB_CDC/usb_framework.c ****     uint_8    controller_ID,            /* [IN] Controller ID */
1069:hal/Landungsbruecke/freescale/USB_CDC/usb_framework.c ****     USB_SETUP_STRUCT * setup_packet,    /* [IN] Setup packet received */
1070:hal/Landungsbruecke/freescale/USB_CDC/usb_framework.c ****     uint_8_ptr *data,                   /* [OUT] Data to be send back */
1071:hal/Landungsbruecke/freescale/USB_CDC/usb_framework.c ****     USB_PACKET_SIZE *size               /* [OUT] Size to be returned */
1072:hal/Landungsbruecke/freescale/USB_CDC/usb_framework.c **** )
1073:hal/Landungsbruecke/freescale/USB_CDC/usb_framework.c **** {
1074:hal/Landungsbruecke/freescale/USB_CDC/usb_framework.c ****     uint_8 status;
1075:hal/Landungsbruecke/freescale/USB_CDC/usb_framework.c **** 
1076:hal/Landungsbruecke/freescale/USB_CDC/usb_framework.c ****     UNUSED (data);
1077:hal/Landungsbruecke/freescale/USB_CDC/usb_framework.c ****     *size=0;
1078:hal/Landungsbruecke/freescale/USB_CDC/usb_framework.c **** 
1079:hal/Landungsbruecke/freescale/USB_CDC/usb_framework.c ****     /* Request type not for interface */
1080:hal/Landungsbruecke/freescale/USB_CDC/usb_framework.c ****     if((setup_packet->request_type & USB_REQUEST_SRC_MASK) != USB_REQUEST_SRC_INTERFACE)
1081:hal/Landungsbruecke/freescale/USB_CDC/usb_framework.c ****     {
1082:hal/Landungsbruecke/freescale/USB_CDC/usb_framework.c ****         return USB_STATUS_ERROR;
1083:hal/Landungsbruecke/freescale/USB_CDC/usb_framework.c ****     }
1084:hal/Landungsbruecke/freescale/USB_CDC/usb_framework.c ****     else
1085:hal/Landungsbruecke/freescale/USB_CDC/usb_framework.c ****     {
1086:hal/Landungsbruecke/freescale/USB_CDC/usb_framework.c ****     	/* Set Interface and alternate interface from setup_packet */
1087:hal/Landungsbruecke/freescale/USB_CDC/usb_framework.c ****     	status = USB_Desc_Set_Interface(controller_ID,(uint_8)setup_packet->index,
1088:hal/Landungsbruecke/freescale/USB_CDC/usb_framework.c **** 										(uint_8)setup_packet->value);
1089:hal/Landungsbruecke/freescale/USB_CDC/usb_framework.c **** 
1090:hal/Landungsbruecke/freescale/USB_CDC/usb_framework.c ****     	UNUSED (status);
1091:hal/Landungsbruecke/freescale/USB_CDC/usb_framework.c **** 
1092:hal/Landungsbruecke/freescale/USB_CDC/usb_framework.c ****     	return USB_OK;
1093:hal/Landungsbruecke/freescale/USB_CDC/usb_framework.c ****     }
1094:hal/Landungsbruecke/freescale/USB_CDC/usb_framework.c **** }
1095:hal/Landungsbruecke/freescale/USB_CDC/usb_framework.c **** 
1096:hal/Landungsbruecke/freescale/USB_CDC/usb_framework.c **** /**************************************************************************//*!
1097:hal/Landungsbruecke/freescale/USB_CDC/usb_framework.c ****  *
1098:hal/Landungsbruecke/freescale/USB_CDC/usb_framework.c ****  * @name  USB_Strd_Req_Sync_Frame
1099:hal/Landungsbruecke/freescale/USB_CDC/usb_framework.c ****  *
1100:hal/Landungsbruecke/freescale/USB_CDC/usb_framework.c ****  * @brief  This function is called in response to Sync Frame request
1101:hal/Landungsbruecke/freescale/USB_CDC/usb_framework.c ****  *
1102:hal/Landungsbruecke/freescale/USB_CDC/usb_framework.c ****  * @param controller_ID : Controller ID
1103:hal/Landungsbruecke/freescale/USB_CDC/usb_framework.c ****  * @param setup_packet  : Setup packet received
1104:hal/Landungsbruecke/freescale/USB_CDC/usb_framework.c ****  * @param data          : Data to be send back
1105:hal/Landungsbruecke/freescale/USB_CDC/usb_framework.c ****  * @param size          : Size to be returned
1106:hal/Landungsbruecke/freescale/USB_CDC/usb_framework.c ****  *
1107:hal/Landungsbruecke/freescale/USB_CDC/usb_framework.c ****  * @return status:
1108:hal/Landungsbruecke/freescale/USB_CDC/usb_framework.c ****  *               USB_OK : When Successfull
1109:hal/Landungsbruecke/freescale/USB_CDC/usb_framework.c ****  *               Others : When Error
1110:hal/Landungsbruecke/freescale/USB_CDC/usb_framework.c ****  *
1111:hal/Landungsbruecke/freescale/USB_CDC/usb_framework.c ****  ******************************************************************************
1112:hal/Landungsbruecke/freescale/USB_CDC/usb_framework.c ****  * This req is used to set and then report an ep's synchronization frame
1113:hal/Landungsbruecke/freescale/USB_CDC/usb_framework.c ****  *****************************************************************************/
1114:hal/Landungsbruecke/freescale/USB_CDC/usb_framework.c **** static uint_8 USB_Strd_Req_Sync_Frame (
1115:hal/Landungsbruecke/freescale/USB_CDC/usb_framework.c ****     uint_8    controller_ID,            /* [IN] Controller ID */
1116:hal/Landungsbruecke/freescale/USB_CDC/usb_framework.c ****     USB_SETUP_STRUCT * setup_packet,    /* [IN] Setup packet received */
1117:hal/Landungsbruecke/freescale/USB_CDC/usb_framework.c ****     uint_8_ptr *data,                   /* [OUT] Data to be send back */
1118:hal/Landungsbruecke/freescale/USB_CDC/usb_framework.c ****     USB_PACKET_SIZE *size               /* [OUT] Size to be returned */
1119:hal/Landungsbruecke/freescale/USB_CDC/usb_framework.c **** )
1120:hal/Landungsbruecke/freescale/USB_CDC/usb_framework.c **** {
  26              		.loc 1 1120 1 view -0
  27              		.cfi_startproc
  28              		@ args = 0, pretend = 0, frame = 16
  29              		@ frame_needed = 0, uses_anonymous_args = 0
1121:hal/Landungsbruecke/freescale/USB_CDC/usb_framework.c ****     uint_8 status;
  30              		.loc 1 1121 5 view .LVU1
1122:hal/Landungsbruecke/freescale/USB_CDC/usb_framework.c **** 	uint_8 device_status;
  31              		.loc 1 1122 2 view .LVU2
1123:hal/Landungsbruecke/freescale/USB_CDC/usb_framework.c **** 
1124:hal/Landungsbruecke/freescale/USB_CDC/usb_framework.c ****     UNUSED(setup_packet);
  32              		.loc 1 1124 5 view .LVU3
  33              		.loc 1 1124 25 view .LVU4
1125:hal/Landungsbruecke/freescale/USB_CDC/usb_framework.c **** 	*size = FRAME_SIZE;
  34              		.loc 1 1125 2 view .LVU5
1120:hal/Landungsbruecke/freescale/USB_CDC/usb_framework.c ****     uint_8 status;
  35              		.loc 1 1120 1 is_stmt 0 view .LVU6
  36 0000 1FB5     		push	{r0, r1, r2, r3, r4, lr}
  37              	.LCFI0:
  38              		.cfi_def_cfa_offset 24
  39              		.cfi_offset 4, -8
  40              		.cfi_offset 14, -4
1120:hal/Landungsbruecke/freescale/USB_CDC/usb_framework.c ****     uint_8 status;
  41              		.loc 1 1120 1 view .LVU7
  42 0002 1446     		mov	r4, r2
  43              		.loc 1 1125 8 view .LVU8
  44 0004 0222     		movs	r2, #2
  45              	.LVL1:
1120:hal/Landungsbruecke/freescale/USB_CDC/usb_framework.c ****     uint_8 status;
  46              		.loc 1 1120 1 view .LVU9
  47 0006 8DF80700 		strb	r0, [sp, #7]
  48              		.loc 1 1125 8 view .LVU10
  49 000a 1A80     		strh	r2, [r3]	@ movhi
1126:hal/Landungsbruecke/freescale/USB_CDC/usb_framework.c **** 
1127:hal/Landungsbruecke/freescale/USB_CDC/usb_framework.c **** 	/* Get the frame number */
1128:hal/Landungsbruecke/freescale/USB_CDC/usb_framework.c **** 	status = _usb_device_get_status(&controller_ID, USB_STATUS_SOF_COUNT,
  50              		.loc 1 1128 2 is_stmt 1 view .LVU11
  51              		.loc 1 1128 11 is_stmt 0 view .LVU12
  52 000c 0521     		movs	r1, #5
  53              	.LVL2:
  54              		.loc 1 1128 11 view .LVU13
  55 000e 0DF10F02 		add	r2, sp, #15
  56 0012 0DF10700 		add	r0, sp, #7
  57              	.LVL3:
  58              		.loc 1 1128 11 view .LVU14
  59 0016 FFF7FEFF 		bl	_usb_device_get_status
  60              	.LVL4:
1129:hal/Landungsbruecke/freescale/USB_CDC/usb_framework.c **** 									&device_status);
1130:hal/Landungsbruecke/freescale/USB_CDC/usb_framework.c **** 	g_std_framework_data = (uint_16)device_status;
  61              		.loc 1 1130 2 is_stmt 1 view .LVU15
  62              		.loc 1 1130 23 is_stmt 0 view .LVU16
  63 001a 034B     		ldr	r3, .L2
  64              		.loc 1 1130 25 view .LVU17
  65 001c 9DF80F20 		ldrb	r2, [sp, #15]	@ zero_extendqisi2
  66 0020 1A80     		strh	r2, [r3]	@ movhi
1131:hal/Landungsbruecke/freescale/USB_CDC/usb_framework.c **** 	*data = (uint_8_ptr)&g_std_framework_data;
  67              		.loc 1 1131 2 is_stmt 1 view .LVU18
  68              		.loc 1 1131 8 is_stmt 0 view .LVU19
  69 0022 2360     		str	r3, [r4]
1132:hal/Landungsbruecke/freescale/USB_CDC/usb_framework.c **** 
1133:hal/Landungsbruecke/freescale/USB_CDC/usb_framework.c **** 	return status;
  70              		.loc 1 1133 2 is_stmt 1 view .LVU20
1134:hal/Landungsbruecke/freescale/USB_CDC/usb_framework.c **** }
  71              		.loc 1 1134 1 is_stmt 0 view .LVU21
  72 0024 04B0     		add	sp, sp, #16
  73              	.LCFI1:
  74              		.cfi_def_cfa_offset 8
  75              		@ sp needed
  76 0026 10BD     		pop	{r4, pc}
  77              	.LVL5:
  78              	.L3:
  79              		.loc 1 1134 1 view .LVU22
  80              		.align	2
  81              	.L2:
  82 0028 00000000 		.word	.LANCHOR0
  83              		.cfi_endproc
  84              	.LFE13:
  86              		.align	1
  87              		.syntax unified
  88              		.thumb
  89              		.thumb_func
  90              		.fpu softvfp
  92              	USB_Strd_Req_Get_Config:
  93              	.LVL6:
  94              	.LFB9:
 933:hal/Landungsbruecke/freescale/USB_CDC/usb_framework.c ****     uint_8 device_status;
  95              		.loc 1 933 1 is_stmt 1 view -0
  96              		.cfi_startproc
  97              		@ args = 0, pretend = 0, frame = 16
  98              		@ frame_needed = 0, uses_anonymous_args = 0
 934:hal/Landungsbruecke/freescale/USB_CDC/usb_framework.c **** 
  99              		.loc 1 934 5 view .LVU24
 936:hal/Landungsbruecke/freescale/USB_CDC/usb_framework.c **** 
 100              		.loc 1 936 5 view .LVU25
 936:hal/Landungsbruecke/freescale/USB_CDC/usb_framework.c **** 
 101              		.loc 1 936 25 view .LVU26
 938:hal/Landungsbruecke/freescale/USB_CDC/usb_framework.c ****     (void)_usb_device_get_status(&controller_ID, USB_STATUS_CURRENT_CONFIG, &device_status);
 102              		.loc 1 938 5 view .LVU27
 933:hal/Landungsbruecke/freescale/USB_CDC/usb_framework.c ****     uint_8 device_status;
 103              		.loc 1 933 1 is_stmt 0 view .LVU28
 104 002c 1FB5     		push	{r0, r1, r2, r3, r4, lr}
 105              	.LCFI2:
 106              		.cfi_def_cfa_offset 24
 107              		.cfi_offset 4, -8
 108              		.cfi_offset 14, -4
 933:hal/Landungsbruecke/freescale/USB_CDC/usb_framework.c ****     uint_8 device_status;
 109              		.loc 1 933 1 view .LVU29
 110 002e 1446     		mov	r4, r2
 938:hal/Landungsbruecke/freescale/USB_CDC/usb_framework.c ****     (void)_usb_device_get_status(&controller_ID, USB_STATUS_CURRENT_CONFIG, &device_status);
 111              		.loc 1 938 11 view .LVU30
 112 0030 0122     		movs	r2, #1
 113              	.LVL7:
 933:hal/Landungsbruecke/freescale/USB_CDC/usb_framework.c ****     uint_8 device_status;
 114              		.loc 1 933 1 view .LVU31
 115 0032 8DF80700 		strb	r0, [sp, #7]
 938:hal/Landungsbruecke/freescale/USB_CDC/usb_framework.c ****     (void)_usb_device_get_status(&controller_ID, USB_STATUS_CURRENT_CONFIG, &device_status);
 116              		.loc 1 938 11 view .LVU32
 117 0036 1A80     		strh	r2, [r3]	@ movhi
 939:hal/Landungsbruecke/freescale/USB_CDC/usb_framework.c ****     g_std_framework_data = (uint_16)device_status;
 118              		.loc 1 939 5 is_stmt 1 view .LVU33
 939:hal/Landungsbruecke/freescale/USB_CDC/usb_framework.c ****     g_std_framework_data = (uint_16)device_status;
 119              		.loc 1 939 11 is_stmt 0 view .LVU34
 120 0038 0421     		movs	r1, #4
 121              	.LVL8:
 939:hal/Landungsbruecke/freescale/USB_CDC/usb_framework.c ****     g_std_framework_data = (uint_16)device_status;
 122              		.loc 1 939 11 view .LVU35
 123 003a 0DF10F02 		add	r2, sp, #15
 124 003e 0DF10700 		add	r0, sp, #7
 125              	.LVL9:
 939:hal/Landungsbruecke/freescale/USB_CDC/usb_framework.c ****     g_std_framework_data = (uint_16)device_status;
 126              		.loc 1 939 11 view .LVU36
 127 0042 FFF7FEFF 		bl	_usb_device_get_status
 128              	.LVL10:
 940:hal/Landungsbruecke/freescale/USB_CDC/usb_framework.c ****     g_std_framework_data = BYTE_SWAP16(g_std_framework_data);
 129              		.loc 1 940 5 is_stmt 1 view .LVU37
 940:hal/Landungsbruecke/freescale/USB_CDC/usb_framework.c ****     g_std_framework_data = BYTE_SWAP16(g_std_framework_data);
 130              		.loc 1 940 26 is_stmt 0 view .LVU38
 131 0046 044B     		ldr	r3, .L5
 940:hal/Landungsbruecke/freescale/USB_CDC/usb_framework.c ****     g_std_framework_data = BYTE_SWAP16(g_std_framework_data);
 132              		.loc 1 940 28 view .LVU39
 133 0048 9DF80F20 		ldrb	r2, [sp, #15]	@ zero_extendqisi2
 134 004c 1A80     		strh	r2, [r3]	@ movhi
 941:hal/Landungsbruecke/freescale/USB_CDC/usb_framework.c ****     *data = (uint_8_ptr)(&g_std_framework_data);
 135              		.loc 1 941 5 is_stmt 1 view .LVU40
 942:hal/Landungsbruecke/freescale/USB_CDC/usb_framework.c **** 
 136              		.loc 1 942 5 view .LVU41
 945:hal/Landungsbruecke/freescale/USB_CDC/usb_framework.c **** 
 137              		.loc 1 945 1 is_stmt 0 view .LVU42
 138 004e 0020     		movs	r0, #0
 942:hal/Landungsbruecke/freescale/USB_CDC/usb_framework.c **** 
 139              		.loc 1 942 11 view .LVU43
 140 0050 2360     		str	r3, [r4]
 944:hal/Landungsbruecke/freescale/USB_CDC/usb_framework.c **** }
 141              		.loc 1 944 5 is_stmt 1 view .LVU44
 945:hal/Landungsbruecke/freescale/USB_CDC/usb_framework.c **** 
 142              		.loc 1 945 1 is_stmt 0 view .LVU45
 143 0052 04B0     		add	sp, sp, #16
 144              	.LCFI3:
 145              		.cfi_def_cfa_offset 8
 146              		@ sp needed
 147 0054 10BD     		pop	{r4, pc}
 148              	.LVL11:
 149              	.L6:
 945:hal/Landungsbruecke/freescale/USB_CDC/usb_framework.c **** 
 150              		.loc 1 945 1 view .LVU46
 151 0056 00BF     		.align	2
 152              	.L5:
 153 0058 00000000 		.word	.LANCHOR0
 154              		.cfi_endproc
 155              	.LFE9:
 157              		.align	1
 158              		.syntax unified
 159              		.thumb
 160              		.thumb_func
 161              		.fpu softvfp
 163              	USB_Strd_Req_Set_Config:
 164              	.LVL12:
 165              	.LFB10:
 971:hal/Landungsbruecke/freescale/USB_CDC/usb_framework.c ****     uint_8 status = USBERR_INVALID_REQ_TYPE;
 166              		.loc 1 971 1 is_stmt 1 view -0
 167              		.cfi_startproc
 168              		@ args = 0, pretend = 0, frame = 16
 169              		@ frame_needed = 0, uses_anonymous_args = 0
 972:hal/Landungsbruecke/freescale/USB_CDC/usb_framework.c ****     uint_16 config_val;
 170              		.loc 1 972 5 view .LVU48
 973:hal/Landungsbruecke/freescale/USB_CDC/usb_framework.c **** 
 171              		.loc 1 973 5 view .LVU49
 975:hal/Landungsbruecke/freescale/USB_CDC/usb_framework.c ****     *size = 0;
 172              		.loc 1 975 5 view .LVU50
 975:hal/Landungsbruecke/freescale/USB_CDC/usb_framework.c ****     *size = 0;
 173              		.loc 1 975 18 view .LVU51
 976:hal/Landungsbruecke/freescale/USB_CDC/usb_framework.c ****     status = USB_STATUS_ERROR;
 174              		.loc 1 976 5 view .LVU52
 971:hal/Landungsbruecke/freescale/USB_CDC/usb_framework.c ****     uint_8 status = USBERR_INVALID_REQ_TYPE;
 175              		.loc 1 971 1 is_stmt 0 view .LVU53
 176 005c 7FB5     		push	{r0, r1, r2, r3, r4, r5, r6, lr}
 177              	.LCFI4:
 178              		.cfi_def_cfa_offset 32
 179              		.cfi_offset 4, -16
 180              		.cfi_offset 5, -12
 181              		.cfi_offset 6, -8
 182              		.cfi_offset 14, -4
 976:hal/Landungsbruecke/freescale/USB_CDC/usb_framework.c ****     status = USB_STATUS_ERROR;
 183              		.loc 1 976 11 view .LVU54
 184 005e 0025     		movs	r5, #0
 185 0060 1D80     		strh	r5, [r3]	@ movhi
 977:hal/Landungsbruecke/freescale/USB_CDC/usb_framework.c ****     config_val = setup_packet->value;
 186              		.loc 1 977 5 is_stmt 1 view .LVU55
 187              	.LVL13:
 978:hal/Landungsbruecke/freescale/USB_CDC/usb_framework.c **** 
 188              		.loc 1 978 5 view .LVU56
 978:hal/Landungsbruecke/freescale/USB_CDC/usb_framework.c **** 
 189              		.loc 1 978 30 is_stmt 0 view .LVU57
 190 0062 4988     		ldrh	r1, [r1, #2]
 191              	.LVL14:
 971:hal/Landungsbruecke/freescale/USB_CDC/usb_framework.c ****     uint_8 status = USBERR_INVALID_REQ_TYPE;
 192              		.loc 1 971 1 view .LVU58
 193 0064 8DF80700 		strb	r0, [sp, #7]
 978:hal/Landungsbruecke/freescale/USB_CDC/usb_framework.c **** 
 194              		.loc 1 978 16 view .LVU59
 195 0068 ADF80E10 		strh	r1, [sp, #14]	@ movhi
 980:hal/Landungsbruecke/freescale/USB_CDC/usb_framework.c ****     /*if valid configuration (fn returns boolean value)*/
 196              		.loc 1 980 5 is_stmt 1 view .LVU60
 980:hal/Landungsbruecke/freescale/USB_CDC/usb_framework.c ****     /*if valid configuration (fn returns boolean value)*/
 197              		.loc 1 980 8 is_stmt 0 view .LVU61
 198 006c FFF7FEFF 		bl	USB_Desc_Valid_Configation
 199              	.LVL15:
 980:hal/Landungsbruecke/freescale/USB_CDC/usb_framework.c ****     /*if valid configuration (fn returns boolean value)*/
 200              		.loc 1 980 7 view .LVU62
 201 0070 10B3     		cbz	r0, .L9
 202              	.LBB4:
 983:hal/Landungsbruecke/freescale/USB_CDC/usb_framework.c **** 
 203              		.loc 1 983 9 is_stmt 1 view .LVU63
 204              	.LVL16:
 986:hal/Landungsbruecke/freescale/USB_CDC/usb_framework.c ****         {
 205              		.loc 1 986 9 view .LVU64
 991:hal/Landungsbruecke/freescale/USB_CDC/usb_framework.c ****             device_state);
 206              		.loc 1 991 9 view .LVU65
 986:hal/Landungsbruecke/freescale/USB_CDC/usb_framework.c ****         {
 207              		.loc 1 986 11 is_stmt 0 view .LVU66
 208 0072 BDF80E20 		ldrh	r2, [sp, #14]
 999:hal/Landungsbruecke/freescale/USB_CDC/usb_framework.c ****             (void *)&config_val);
 209              		.loc 1 999 9 view .LVU67
 210 0076 114E     		ldr	r6, .L10
 991:hal/Landungsbruecke/freescale/USB_CDC/usb_framework.c ****             device_state);
 211              		.loc 1 991 18 view .LVU68
 212 0078 B2FA82F2 		clz	r2, r2
 213 007c 5209     		lsrs	r2, r2, #5
 214 007e 0121     		movs	r1, #1
 215 0080 0DF10700 		add	r0, sp, #7
 216 0084 FFF7FEFF 		bl	_usb_device_set_status
 217              	.LVL17:
 993:hal/Landungsbruecke/freescale/USB_CDC/usb_framework.c ****             USB_STATUS_CURRENT_CONFIG, (uint_8)config_val);
 218              		.loc 1 993 9 is_stmt 1 view .LVU69
 993:hal/Landungsbruecke/freescale/USB_CDC/usb_framework.c ****             USB_STATUS_CURRENT_CONFIG, (uint_8)config_val);
 219              		.loc 1 993 18 is_stmt 0 view .LVU70
 220 0088 9DF80E20 		ldrb	r2, [sp, #14]	@ zero_extendqisi2
 221 008c 0421     		movs	r1, #4
 222 008e 0DF10700 		add	r0, sp, #7
 223 0092 FFF7FEFF 		bl	_usb_device_set_status
 224              	.LVL18:
 999:hal/Landungsbruecke/freescale/USB_CDC/usb_framework.c ****             (void *)&config_val);
 225              		.loc 1 999 9 view .LVU71
 226 0096 7368     		ldr	r3, [r6, #4]
 227 0098 0DF10E02 		add	r2, sp, #14
 228 009c 0121     		movs	r1, #1
 993:hal/Landungsbruecke/freescale/USB_CDC/usb_framework.c ****             USB_STATUS_CURRENT_CONFIG, (uint_8)config_val);
 229              		.loc 1 993 18 view .LVU72
 230 009e 0446     		mov	r4, r0
 231              	.LVL19:
 999:hal/Landungsbruecke/freescale/USB_CDC/usb_framework.c ****             (void *)&config_val);
 232              		.loc 1 999 9 is_stmt 1 view .LVU73
 233 00a0 9DF80700 		ldrb	r0, [sp, #7]	@ zero_extendqisi2
 234 00a4 9847     		blx	r3
 235              	.LVL20:
1001:hal/Landungsbruecke/freescale/USB_CDC/usb_framework.c ****     }
 236              		.loc 1 1001 9 view .LVU74
 237 00a6 7368     		ldr	r3, [r6, #4]
 238 00a8 9DF80700 		ldrb	r0, [sp, #7]	@ zero_extendqisi2
 239 00ac 2A46     		mov	r2, r5
 240 00ae 0221     		movs	r1, #2
 241 00b0 9847     		blx	r3
 242              	.LVL21:
 243              	.L8:
1001:hal/Landungsbruecke/freescale/USB_CDC/usb_framework.c ****     }
 244              		.loc 1 1001 9 is_stmt 0 view .LVU75
 245              	.LBE4:
1004:hal/Landungsbruecke/freescale/USB_CDC/usb_framework.c ****  }
 246              		.loc 1 1004 5 is_stmt 1 view .LVU76
1005:hal/Landungsbruecke/freescale/USB_CDC/usb_framework.c **** 
 247              		.loc 1 1005 2 is_stmt 0 view .LVU77
 248 00b2 2046     		mov	r0, r4
 249 00b4 04B0     		add	sp, sp, #16
 250              	.LCFI5:
 251              		.cfi_remember_state
 252              		.cfi_def_cfa_offset 16
 253              		@ sp needed
 254 00b6 70BD     		pop	{r4, r5, r6, pc}
 255              	.LVL22:
 256              	.L9:
 257              	.LCFI6:
 258              		.cfi_restore_state
 977:hal/Landungsbruecke/freescale/USB_CDC/usb_framework.c ****     config_val = setup_packet->value;
 259              		.loc 1 977 12 view .LVU78
 260 00b8 0424     		movs	r4, #4
 261 00ba FAE7     		b	.L8
 262              	.L11:
 263              		.align	2
 264              	.L10:
 265 00bc 00000000 		.word	.LANCHOR0
 266              		.cfi_endproc
 267              	.LFE10:
 269              		.align	1
 270              		.syntax unified
 271              		.thumb
 272              		.thumb_func
 273              		.fpu softvfp
 275              	USB_Strd_Req_Set_Address:
 276              	.LVL23:
 277              	.LFB7:
 865:hal/Landungsbruecke/freescale/USB_CDC/usb_framework.c ****     UNUSED (data);
 278              		.loc 1 865 1 is_stmt 1 view -0
 279              		.cfi_startproc
 280              		@ args = 0, pretend = 0, frame = 8
 281              		@ frame_needed = 0, uses_anonymous_args = 0
 866:hal/Landungsbruecke/freescale/USB_CDC/usb_framework.c ****     *size=0;
 282              		.loc 1 866 5 view .LVU80
 866:hal/Landungsbruecke/freescale/USB_CDC/usb_framework.c ****     *size=0;
 283              		.loc 1 866 18 view .LVU81
 867:hal/Landungsbruecke/freescale/USB_CDC/usb_framework.c ****     /* update device state */
 284              		.loc 1 867 5 view .LVU82
 865:hal/Landungsbruecke/freescale/USB_CDC/usb_framework.c ****     UNUSED (data);
 285              		.loc 1 865 1 is_stmt 0 view .LVU83
 286 00c0 37B5     		push	{r0, r1, r2, r4, r5, lr}
 287              	.LCFI7:
 288              		.cfi_def_cfa_offset 24
 289              		.cfi_offset 4, -12
 290              		.cfi_offset 5, -8
 291              		.cfi_offset 14, -4
 867:hal/Landungsbruecke/freescale/USB_CDC/usb_framework.c ****     /* update device state */
 292              		.loc 1 867 10 view .LVU84
 293 00c2 0025     		movs	r5, #0
 865:hal/Landungsbruecke/freescale/USB_CDC/usb_framework.c ****     UNUSED (data);
 294              		.loc 1 865 1 view .LVU85
 295 00c4 0C46     		mov	r4, r1
 296 00c6 8DF80700 		strb	r0, [sp, #7]
 867:hal/Landungsbruecke/freescale/USB_CDC/usb_framework.c ****     /* update device state */
 297              		.loc 1 867 10 view .LVU86
 298 00ca 1D80     		strh	r5, [r3]	@ movhi
 869:hal/Landungsbruecke/freescale/USB_CDC/usb_framework.c ****         USB_STATUS_DEVICE_STATE, USB_STATE_PENDING_ADDRESS);
 299              		.loc 1 869 5 is_stmt 1 view .LVU87
 869:hal/Landungsbruecke/freescale/USB_CDC/usb_framework.c ****         USB_STATUS_DEVICE_STATE, USB_STATE_PENDING_ADDRESS);
 300              		.loc 1 869 11 is_stmt 0 view .LVU88
 301 00cc 0422     		movs	r2, #4
 302              	.LVL24:
 869:hal/Landungsbruecke/freescale/USB_CDC/usb_framework.c ****         USB_STATUS_DEVICE_STATE, USB_STATE_PENDING_ADDRESS);
 303              		.loc 1 869 11 view .LVU89
 304 00ce 0121     		movs	r1, #1
 305              	.LVL25:
 869:hal/Landungsbruecke/freescale/USB_CDC/usb_framework.c ****         USB_STATUS_DEVICE_STATE, USB_STATE_PENDING_ADDRESS);
 306              		.loc 1 869 11 view .LVU90
 307 00d0 0DF10700 		add	r0, sp, #7
 308              	.LVL26:
 869:hal/Landungsbruecke/freescale/USB_CDC/usb_framework.c ****         USB_STATUS_DEVICE_STATE, USB_STATE_PENDING_ADDRESS);
 309              		.loc 1 869 11 view .LVU91
 310 00d4 FFF7FEFF 		bl	_usb_device_set_status
 311              	.LVL27:
 873:hal/Landungsbruecke/freescale/USB_CDC/usb_framework.c **** 
 312              		.loc 1 873 5 is_stmt 1 view .LVU92
 873:hal/Landungsbruecke/freescale/USB_CDC/usb_framework.c **** 
 313              		.loc 1 873 26 is_stmt 0 view .LVU93
 314 00d8 6288     		ldrh	r2, [r4, #2]
 315 00da 024B     		ldr	r3, .L13
 876:hal/Landungsbruecke/freescale/USB_CDC/usb_framework.c **** 
 316              		.loc 1 876 1 view .LVU94
 317 00dc 2846     		mov	r0, r5
 873:hal/Landungsbruecke/freescale/USB_CDC/usb_framework.c **** 
 318              		.loc 1 873 26 view .LVU95
 319 00de 1A72     		strb	r2, [r3, #8]
 875:hal/Landungsbruecke/freescale/USB_CDC/usb_framework.c **** }
 320              		.loc 1 875 5 is_stmt 1 view .LVU96
 876:hal/Landungsbruecke/freescale/USB_CDC/usb_framework.c **** 
 321              		.loc 1 876 1 is_stmt 0 view .LVU97
 322 00e0 03B0     		add	sp, sp, #12
 323              	.LCFI8:
 324              		.cfi_def_cfa_offset 12
 325              		@ sp needed
 326 00e2 30BD     		pop	{r4, r5, pc}
 327              	.LVL28:
 328              	.L14:
 876:hal/Landungsbruecke/freescale/USB_CDC/usb_framework.c **** 
 329              		.loc 1 876 1 view .LVU98
 330              		.align	2
 331              	.L13:
 332 00e4 00000000 		.word	.LANCHOR0
 333              		.cfi_endproc
 334              	.LFE7:
 336              		.align	1
 337              		.syntax unified
 338              		.thumb
 339              		.thumb_func
 340              		.fpu softvfp
 342              	USB_Strd_Req_Get_Descriptor:
 343              	.LVL29:
 344              	.LFB14:
1135:hal/Landungsbruecke/freescale/USB_CDC/usb_framework.c **** 
1136:hal/Landungsbruecke/freescale/USB_CDC/usb_framework.c **** 
1137:hal/Landungsbruecke/freescale/USB_CDC/usb_framework.c **** /**************************************************************************//*!
1138:hal/Landungsbruecke/freescale/USB_CDC/usb_framework.c ****  *
1139:hal/Landungsbruecke/freescale/USB_CDC/usb_framework.c ****  * @name  USB_Std_Req_Get_Descriptor
1140:hal/Landungsbruecke/freescale/USB_CDC/usb_framework.c ****  *
1141:hal/Landungsbruecke/freescale/USB_CDC/usb_framework.c ****  * @brief  This function is called in response to Get Descriptor request
1142:hal/Landungsbruecke/freescale/USB_CDC/usb_framework.c ****  *
1143:hal/Landungsbruecke/freescale/USB_CDC/usb_framework.c ****  * @param controller_ID : Controller ID
1144:hal/Landungsbruecke/freescale/USB_CDC/usb_framework.c ****  * @param setup_packet  : Setup packet received
1145:hal/Landungsbruecke/freescale/USB_CDC/usb_framework.c ****  * @param data          : Data to be send back
1146:hal/Landungsbruecke/freescale/USB_CDC/usb_framework.c ****  * @param size          : Size to be returned
1147:hal/Landungsbruecke/freescale/USB_CDC/usb_framework.c ****  *
1148:hal/Landungsbruecke/freescale/USB_CDC/usb_framework.c ****  * @return status:
1149:hal/Landungsbruecke/freescale/USB_CDC/usb_framework.c ****  *               USB_OK : When Successfull
1150:hal/Landungsbruecke/freescale/USB_CDC/usb_framework.c ****  *               Others : When Error
1151:hal/Landungsbruecke/freescale/USB_CDC/usb_framework.c ****  *
1152:hal/Landungsbruecke/freescale/USB_CDC/usb_framework.c ****  ******************************************************************************
1153:hal/Landungsbruecke/freescale/USB_CDC/usb_framework.c ****  * This is a ch9 request and is used to send the descriptor requested by the
1154:hal/Landungsbruecke/freescale/USB_CDC/usb_framework.c ****  * host
1155:hal/Landungsbruecke/freescale/USB_CDC/usb_framework.c ****  *****************************************************************************/
1156:hal/Landungsbruecke/freescale/USB_CDC/usb_framework.c **** static uint_8 USB_Strd_Req_Get_Descriptor (
1157:hal/Landungsbruecke/freescale/USB_CDC/usb_framework.c ****     uint_8    controller_ID,            /* [IN] Controller ID */
1158:hal/Landungsbruecke/freescale/USB_CDC/usb_framework.c ****     USB_SETUP_STRUCT * setup_packet,    /* [IN] Setup packet received */
1159:hal/Landungsbruecke/freescale/USB_CDC/usb_framework.c ****     uint_8_ptr *data,                   /* [OUT] Data to be send back */
1160:hal/Landungsbruecke/freescale/USB_CDC/usb_framework.c ****     USB_PACKET_SIZE *size               /* [OUT] Size to be returned */
1161:hal/Landungsbruecke/freescale/USB_CDC/usb_framework.c **** )
1162:hal/Landungsbruecke/freescale/USB_CDC/usb_framework.c **** {
 345              		.loc 1 1162 1 is_stmt 1 view -0
 346              		.cfi_startproc
 347              		@ args = 0, pretend = 0, frame = 0
 348              		@ frame_needed = 0, uses_anonymous_args = 0
1163:hal/Landungsbruecke/freescale/USB_CDC/usb_framework.c ****     uint_8 type = USB_uint_16_high(setup_packet->value);
 349              		.loc 1 1163 5 view .LVU100
1162:hal/Landungsbruecke/freescale/USB_CDC/usb_framework.c ****     uint_8 type = USB_uint_16_high(setup_packet->value);
 350              		.loc 1 1162 1 is_stmt 0 view .LVU101
 351 00e8 13B5     		push	{r0, r1, r4, lr}
 352              	.LCFI9:
 353              		.cfi_def_cfa_offset 16
 354              		.cfi_offset 4, -8
 355              		.cfi_offset 14, -4
 356              		.loc 1 1163 19 view .LVU102
 357 00ea 4C88     		ldrh	r4, [r1, #2]
 358              	.LVL30:
1164:hal/Landungsbruecke/freescale/USB_CDC/usb_framework.c ****     uint_16 index = (uint_16)UNINITIALISED_VAL;
 359              		.loc 1 1164 5 is_stmt 1 view .LVU103
1165:hal/Landungsbruecke/freescale/USB_CDC/usb_framework.c ****     uint_8 str_num = (uint_8)UNINITIALISED_VAL;
 360              		.loc 1 1165 5 view .LVU104
1166:hal/Landungsbruecke/freescale/USB_CDC/usb_framework.c ****     uint_8 status;
 361              		.loc 1 1166 5 view .LVU105
1167:hal/Landungsbruecke/freescale/USB_CDC/usb_framework.c **** 
1168:hal/Landungsbruecke/freescale/USB_CDC/usb_framework.c **** 		/* for string descriptor set the language and string number */
1169:hal/Landungsbruecke/freescale/USB_CDC/usb_framework.c **** 		index = setup_packet->index;
 362              		.loc 1 1169 3 view .LVU106
1170:hal/Landungsbruecke/freescale/USB_CDC/usb_framework.c **** 		/*g_setup_pkt.lValue*/
1171:hal/Landungsbruecke/freescale/USB_CDC/usb_framework.c **** 		str_num = USB_uint_16_low(setup_packet->value);
 363              		.loc 1 1171 3 view .LVU107
1172:hal/Landungsbruecke/freescale/USB_CDC/usb_framework.c **** 
1173:hal/Landungsbruecke/freescale/USB_CDC/usb_framework.c **** 	/* Call descriptor class to get descriptor */
1174:hal/Landungsbruecke/freescale/USB_CDC/usb_framework.c **** 	status = USB_Desc_Get_Descriptor(controller_ID, type, str_num, index, data, size);
 364              		.loc 1 1174 2 view .LVU108
 365              		.loc 1 1174 11 is_stmt 0 view .LVU109
 366 00ec CDE90023 		strd	r2, r3, [sp]
 367              	.LVL31:
 368              		.loc 1 1174 11 view .LVU110
 369 00f0 8B88     		ldrh	r3, [r1, #4]
 370              	.LVL32:
 371              		.loc 1 1174 11 view .LVU111
 372 00f2 8A78     		ldrb	r2, [r1, #2]	@ zero_extendqisi2
 373              	.LVL33:
 374              		.loc 1 1174 11 view .LVU112
 375 00f4 210A     		lsrs	r1, r4, #8
 376              	.LVL34:
 377              		.loc 1 1174 11 view .LVU113
 378 00f6 FFF7FEFF 		bl	USB_Desc_Get_Descriptor
 379              	.LVL35:
1175:hal/Landungsbruecke/freescale/USB_CDC/usb_framework.c **** 
1176:hal/Landungsbruecke/freescale/USB_CDC/usb_framework.c **** 	return status;
 380              		.loc 1 1176 2 is_stmt 1 view .LVU114
1177:hal/Landungsbruecke/freescale/USB_CDC/usb_framework.c **** }
 381              		.loc 1 1177 1 is_stmt 0 view .LVU115
 382 00fa 02B0     		add	sp, sp, #8
 383              	.LCFI10:
 384              		.cfi_def_cfa_offset 8
 385              		@ sp needed
 386 00fc 10BD     		pop	{r4, pc}
 387              		.loc 1 1177 1 view .LVU116
 388              		.cfi_endproc
 389              	.LFE14:
 391              		.align	1
 392              		.syntax unified
 393              		.thumb
 394              		.thumb_func
 395              		.fpu softvfp
 397              	USB_Strd_Req_Get_Status:
 398              	.LVL36:
 399              	.LFB5:
 628:hal/Landungsbruecke/freescale/USB_CDC/usb_framework.c **** 	uint_8_ptr pu8ConfigDesc = NULL;
 400              		.loc 1 628 1 is_stmt 1 view -0
 401              		.cfi_startproc
 402              		@ args = 0, pretend = 0, frame = 16
 403              		@ frame_needed = 0, uses_anonymous_args = 0
 629:hal/Landungsbruecke/freescale/USB_CDC/usb_framework.c **** 	uint_16 u16DescSize;
 404              		.loc 1 629 2 view .LVU118
 628:hal/Landungsbruecke/freescale/USB_CDC/usb_framework.c **** 	uint_8_ptr pu8ConfigDesc = NULL;
 405              		.loc 1 628 1 is_stmt 0 view .LVU119
 406 00fe 2DE9F041 		push	{r4, r5, r6, r7, r8, lr}
 407              	.LCFI11:
 408              		.cfi_def_cfa_offset 24
 409              		.cfi_offset 4, -24
 410              		.cfi_offset 5, -20
 411              		.cfi_offset 6, -16
 412              		.cfi_offset 7, -12
 413              		.cfi_offset 8, -8
 414              		.cfi_offset 14, -4
 415 0102 86B0     		sub	sp, sp, #24
 416              	.LCFI12:
 417              		.cfi_def_cfa_offset 48
 628:hal/Landungsbruecke/freescale/USB_CDC/usb_framework.c **** 	uint_8_ptr pu8ConfigDesc = NULL;
 418              		.loc 1 628 1 view .LVU120
 419 0104 8846     		mov	r8, r1
 420 0106 1D46     		mov	r5, r3
 629:hal/Landungsbruecke/freescale/USB_CDC/usb_framework.c **** 	uint_16 u16DescSize;
 421              		.loc 1 629 13 view .LVU121
 422 0108 0023     		movs	r3, #0
 423              	.LVL37:
 628:hal/Landungsbruecke/freescale/USB_CDC/usb_framework.c **** 	uint_8_ptr pu8ConfigDesc = NULL;
 424              		.loc 1 628 1 view .LVU122
 425 010a 8DF80F00 		strb	r0, [sp, #15]
 629:hal/Landungsbruecke/freescale/USB_CDC/usb_framework.c **** 	uint_16 u16DescSize;
 426              		.loc 1 629 13 view .LVU123
 427 010e 0593     		str	r3, [sp, #20]
 630:hal/Landungsbruecke/freescale/USB_CDC/usb_framework.c ****     uint_8 interface, endpoint = 0;
 428              		.loc 1 630 2 is_stmt 1 view .LVU124
 631:hal/Landungsbruecke/freescale/USB_CDC/usb_framework.c ****     uint_8 status;
 429              		.loc 1 631 5 view .LVU125
 430              	.LVL38:
 632:hal/Landungsbruecke/freescale/USB_CDC/usb_framework.c ****     uint_8 device_state = USB_STATE_POWERED;
 431              		.loc 1 632 5 view .LVU126
 633:hal/Landungsbruecke/freescale/USB_CDC/usb_framework.c **** 
 432              		.loc 1 633 5 view .LVU127
 628:hal/Landungsbruecke/freescale/USB_CDC/usb_framework.c **** 	uint_8_ptr pu8ConfigDesc = NULL;
 433              		.loc 1 628 1 is_stmt 0 view .LVU128
 434 0110 1646     		mov	r6, r2
 633:hal/Landungsbruecke/freescale/USB_CDC/usb_framework.c **** 
 435              		.loc 1 633 12 view .LVU129
 436 0112 0323     		movs	r3, #3
 636:hal/Landungsbruecke/freescale/USB_CDC/usb_framework.c **** 
 437              		.loc 1 636 14 view .LVU130
 438 0114 04AA     		add	r2, sp, #16
 439              	.LVL39:
 636:hal/Landungsbruecke/freescale/USB_CDC/usb_framework.c **** 
 440              		.loc 1 636 14 view .LVU131
 441 0116 0121     		movs	r1, #1
 442              	.LVL40:
 636:hal/Landungsbruecke/freescale/USB_CDC/usb_framework.c **** 
 443              		.loc 1 636 14 view .LVU132
 444 0118 0DF10F00 		add	r0, sp, #15
 445              	.LVL41:
 633:hal/Landungsbruecke/freescale/USB_CDC/usb_framework.c **** 
 446              		.loc 1 633 12 view .LVU133
 447 011c 8DF81030 		strb	r3, [sp, #16]
 636:hal/Landungsbruecke/freescale/USB_CDC/usb_framework.c **** 
 448              		.loc 1 636 5 is_stmt 1 view .LVU134
 636:hal/Landungsbruecke/freescale/USB_CDC/usb_framework.c **** 
 449              		.loc 1 636 14 is_stmt 0 view .LVU135
 450 0120 FFF7FEFF 		bl	_usb_device_get_status
 451              	.LVL42:
 638:hal/Landungsbruecke/freescale/USB_CDC/usb_framework.c ****     {
 452              		.loc 1 638 5 is_stmt 1 view .LVU136
 453 0124 98F80070 		ldrb	r7, [r8]	@ zero_extendqisi2
 454 0128 264C     		ldr	r4, .L25
 638:hal/Landungsbruecke/freescale/USB_CDC/usb_framework.c ****     {
 455              		.loc 1 638 7 is_stmt 0 view .LVU137
 456 012a 17F00307 		ands	r7, r7, #3
 457 012e 28D1     		bne	.L17
 458              	.LBB5:
 654:hal/Landungsbruecke/freescale/USB_CDC/usb_framework.c **** 
 459              		.loc 1 654 10 is_stmt 1 view .LVU138
 657:hal/Landungsbruecke/freescale/USB_CDC/usb_framework.c ****          g_std_framework_data = (uint_16)device_state1;
 460              		.loc 1 657 10 view .LVU139
 657:hal/Landungsbruecke/freescale/USB_CDC/usb_framework.c ****          g_std_framework_data = (uint_16)device_state1;
 461              		.loc 1 657 19 is_stmt 0 view .LVU140
 462 0130 0DF11102 		add	r2, sp, #17
 463 0134 0621     		movs	r1, #6
 464 0136 0DF10F00 		add	r0, sp, #15
 465              	.LVL43:
 657:hal/Landungsbruecke/freescale/USB_CDC/usb_framework.c ****          g_std_framework_data = (uint_16)device_state1;
 466              		.loc 1 657 19 view .LVU141
 467 013a FFF7FEFF 		bl	_usb_device_get_status
 468              	.LVL44:
 658:hal/Landungsbruecke/freescale/USB_CDC/usb_framework.c ****          g_std_framework_data &= GET_STATUS_DEVICE_MASK;
 469              		.loc 1 658 10 is_stmt 1 view .LVU142
 659:hal/Landungsbruecke/freescale/USB_CDC/usb_framework.c ****          g_std_framework_data = BYTE_SWAP16(g_std_framework_data);
 470              		.loc 1 659 10 view .LVU143
 659:hal/Landungsbruecke/freescale/USB_CDC/usb_framework.c ****          g_std_framework_data = BYTE_SWAP16(g_std_framework_data);
 471              		.loc 1 659 31 is_stmt 0 view .LVU144
 472 013e 9DF81130 		ldrb	r3, [sp, #17]	@ zero_extendqisi2
 663:hal/Landungsbruecke/freescale/USB_CDC/usb_framework.c ****         		                          0, 0, &pu8ConfigDesc, (USB_PACKET_SIZE *)&u16DescSize);
 473              		.loc 1 663 19 view .LVU145
 474 0142 9DF80F00 		ldrb	r0, [sp, #15]	@ zero_extendqisi2
 659:hal/Landungsbruecke/freescale/USB_CDC/usb_framework.c ****          g_std_framework_data = BYTE_SWAP16(g_std_framework_data);
 475              		.loc 1 659 31 view .LVU146
 476 0146 03F00303 		and	r3, r3, #3
 477 014a 2380     		strh	r3, [r4]	@ movhi
 660:hal/Landungsbruecke/freescale/USB_CDC/usb_framework.c **** 
 478              		.loc 1 660 10 is_stmt 1 view .LVU147
 663:hal/Landungsbruecke/freescale/USB_CDC/usb_framework.c ****         		                          0, 0, &pu8ConfigDesc, (USB_PACKET_SIZE *)&u16DescSize);
 479              		.loc 1 663 10 view .LVU148
 663:hal/Landungsbruecke/freescale/USB_CDC/usb_framework.c ****         		                          0, 0, &pu8ConfigDesc, (USB_PACKET_SIZE *)&u16DescSize);
 480              		.loc 1 663 19 is_stmt 0 view .LVU149
 481 014c 0DF11203 		add	r3, sp, #18
 482 0150 0193     		str	r3, [sp, #4]
 483 0152 05AB     		add	r3, sp, #20
 484 0154 0093     		str	r3, [sp]
 485 0156 0221     		movs	r1, #2
 486 0158 3B46     		mov	r3, r7
 487 015a 3A46     		mov	r2, r7
 488 015c FFF7FEFF 		bl	USB_Desc_Get_Descriptor
 489              	.LVL45:
 666:hal/Landungsbruecke/freescale/USB_CDC/usb_framework.c **** 		 {
 490              		.loc 1 666 4 is_stmt 1 view .LVU150
 666:hal/Landungsbruecke/freescale/USB_CDC/usb_framework.c **** 		 {
 491              		.loc 1 666 21 is_stmt 0 view .LVU151
 492 0160 059B     		ldr	r3, [sp, #20]
 668:hal/Landungsbruecke/freescale/USB_CDC/usb_framework.c **** 		 }
 493              		.loc 1 668 25 view .LVU152
 494 0162 2188     		ldrh	r1, [r4]
 666:hal/Landungsbruecke/freescale/USB_CDC/usb_framework.c **** 		 {
 495              		.loc 1 666 6 view .LVU153
 496 0164 DB79     		ldrb	r3, [r3, #7]	@ zero_extendqisi2
 497 0166 5B06     		lsls	r3, r3, #25
 668:hal/Landungsbruecke/freescale/USB_CDC/usb_framework.c **** 		 }
 498              		.loc 1 668 4 is_stmt 1 view .LVU154
 672:hal/Landungsbruecke/freescale/USB_CDC/usb_framework.c **** 		 }
 499              		.loc 1 672 25 is_stmt 0 view .LVU155
 500 0168 56BF     		itet	pl
 501 016a 21F00101 		bicpl	r1, r1, #1
 668:hal/Landungsbruecke/freescale/USB_CDC/usb_framework.c **** 		 }
 502              		.loc 1 668 25 view .LVU156
 503 016e 41F00101 		orrmi	r1, r1, #1
 672:hal/Landungsbruecke/freescale/USB_CDC/usb_framework.c **** 		 }
 504              		.loc 1 672 4 is_stmt 1 view .LVU157
 672:hal/Landungsbruecke/freescale/USB_CDC/usb_framework.c **** 		 }
 505              		.loc 1 672 25 is_stmt 0 view .LVU158
 506 0172 89B2     		uxthpl	r1, r1
 507 0174 2180     		strh	r1, [r4]	@ movhi
 674:hal/Landungsbruecke/freescale/USB_CDC/usb_framework.c ****         }
 508              		.loc 1 674 10 is_stmt 1 view .LVU159
 509              	.L24:
 674:hal/Landungsbruecke/freescale/USB_CDC/usb_framework.c ****         }
 510              		.loc 1 674 10 is_stmt 0 view .LVU160
 511              	.LBE5:
 689:hal/Landungsbruecke/freescale/USB_CDC/usb_framework.c ****         }
 512              		.loc 1 689 4 is_stmt 1 view .LVU161
 689:hal/Landungsbruecke/freescale/USB_CDC/usb_framework.c ****         }
 513              		.loc 1 689 10 is_stmt 0 view .LVU162
 514 0176 0223     		movs	r3, #2
 515 0178 2B80     		strh	r3, [r5]	@ movhi
 516              	.LVL46:
 517              	.L20:
 715:hal/Landungsbruecke/freescale/USB_CDC/usb_framework.c ****     return status;
 518              		.loc 1 715 5 is_stmt 1 view .LVU163
 715:hal/Landungsbruecke/freescale/USB_CDC/usb_framework.c ****     return status;
 519              		.loc 1 715 11 is_stmt 0 view .LVU164
 520 017a 3460     		str	r4, [r6]
 716:hal/Landungsbruecke/freescale/USB_CDC/usb_framework.c **** }
 521              		.loc 1 716 5 is_stmt 1 view .LVU165
 717:hal/Landungsbruecke/freescale/USB_CDC/usb_framework.c **** 
 522              		.loc 1 717 1 is_stmt 0 view .LVU166
 523 017c 06B0     		add	sp, sp, #24
 524              	.LCFI13:
 525              		.cfi_remember_state
 526              		.cfi_def_cfa_offset 24
 527              		@ sp needed
 528 017e BDE8F081 		pop	{r4, r5, r6, r7, r8, pc}
 529              	.LVL47:
 530              	.L17:
 531              	.LCFI14:
 532              		.cfi_restore_state
 677:hal/Landungsbruecke/freescale/USB_CDC/usb_framework.c ****     {
 533              		.loc 1 677 10 is_stmt 1 view .LVU167
 677:hal/Landungsbruecke/freescale/USB_CDC/usb_framework.c ****     {
 534              		.loc 1 677 12 is_stmt 0 view .LVU168
 535 0182 012F     		cmp	r7, #1
 536 0184 09D1     		bne	.L21
 680:hal/Landungsbruecke/freescale/USB_CDC/usb_framework.c ****         if((device_state == USB_STATE_ADDRESS) && (interface > 0))
 537              		.loc 1 680 6 is_stmt 1 view .LVU169
 538              	.LVL48:
 681:hal/Landungsbruecke/freescale/USB_CDC/usb_framework.c ****         {
 539              		.loc 1 681 9 view .LVU170
 681:hal/Landungsbruecke/freescale/USB_CDC/usb_framework.c ****         {
 540              		.loc 1 681 11 is_stmt 0 view .LVU171
 541 0186 9DF81030 		ldrb	r3, [sp, #16]	@ zero_extendqisi2
 542 018a 012B     		cmp	r3, #1
 543 018c 02D1     		bne	.L22
 681:hal/Landungsbruecke/freescale/USB_CDC/usb_framework.c ****         {
 544              		.loc 1 681 48 discriminator 1 view .LVU172
 545 018e 98F80430 		ldrb	r3, [r8, #4]	@ zero_extendqisi2
 546 0192 ABB9     		cbnz	r3, .L23
 547              	.L22:
 688:hal/Landungsbruecke/freescale/USB_CDC/usb_framework.c **** 			*size = INTERFACE_STATUS_SIZE;
 548              		.loc 1 688 10 is_stmt 1 view .LVU173
 688:hal/Landungsbruecke/freescale/USB_CDC/usb_framework.c **** 			*size = INTERFACE_STATUS_SIZE;
 549              		.loc 1 688 31 is_stmt 0 view .LVU174
 550 0194 0023     		movs	r3, #0
 551 0196 2380     		strh	r3, [r4]	@ movhi
 552 0198 EDE7     		b	.L24
 553              	.LVL49:
 554              	.L21:
 692:hal/Landungsbruecke/freescale/USB_CDC/usb_framework.c ****     {
 555              		.loc 1 692 10 is_stmt 1 view .LVU175
 692:hal/Landungsbruecke/freescale/USB_CDC/usb_framework.c ****     {
 556              		.loc 1 692 12 is_stmt 0 view .LVU176
 557 019a 022F     		cmp	r7, #2
 558 019c EDD1     		bne	.L20
 695:hal/Landungsbruecke/freescale/USB_CDC/usb_framework.c **** 		{
 559              		.loc 1 695 6 is_stmt 1 view .LVU177
 560              	.LBB6:
 701:hal/Landungsbruecke/freescale/USB_CDC/usb_framework.c **** 			endpoint  = (uint_8)(((uint_8) setup_packet->index) |
 561              		.loc 1 701 4 view .LVU178
 702:hal/Landungsbruecke/freescale/USB_CDC/usb_framework.c **** 				USB_STATUS_ENDPOINT);
 562              		.loc 1 702 4 view .LVU179
 563              	.LVL50:
 704:hal/Landungsbruecke/freescale/USB_CDC/usb_framework.c **** 				endpoint,
 564              		.loc 1 704 4 view .LVU180
 702:hal/Landungsbruecke/freescale/USB_CDC/usb_framework.c **** 				USB_STATUS_ENDPOINT);
 565              		.loc 1 702 14 is_stmt 0 view .LVU181
 566 019e 98F80410 		ldrb	r1, [r8, #4]	@ zero_extendqisi2
 704:hal/Landungsbruecke/freescale/USB_CDC/usb_framework.c **** 				endpoint,
 567              		.loc 1 704 14 view .LVU182
 568 01a2 0DF11202 		add	r2, sp, #18
 569 01a6 41F01001 		orr	r1, r1, #16
 570 01aa 0DF10F00 		add	r0, sp, #15
 571              	.LVL51:
 704:hal/Landungsbruecke/freescale/USB_CDC/usb_framework.c **** 				endpoint,
 572              		.loc 1 704 14 view .LVU183
 573 01ae FFF7FEFF 		bl	_usb_device_get_status
 574              	.LVL52:
 707:hal/Landungsbruecke/freescale/USB_CDC/usb_framework.c **** 			/* All other fields except HALT must be zero */
 575              		.loc 1 707 4 is_stmt 1 view .LVU184
 709:hal/Landungsbruecke/freescale/USB_CDC/usb_framework.c **** 			g_std_framework_data = BYTE_SWAP16(g_std_framework_data);
 576              		.loc 1 709 4 view .LVU185
 709:hal/Landungsbruecke/freescale/USB_CDC/usb_framework.c **** 			g_std_framework_data = BYTE_SWAP16(g_std_framework_data);
 577              		.loc 1 709 25 is_stmt 0 view .LVU186
 578 01b2 9DF81230 		ldrb	r3, [sp, #18]	@ zero_extendqisi2
 579 01b6 03F00103 		and	r3, r3, #1
 580 01ba 2380     		strh	r3, [r4]	@ movhi
 710:hal/Landungsbruecke/freescale/USB_CDC/usb_framework.c **** 			*size = ENDP_STATUS_SIZE;
 581              		.loc 1 710 4 is_stmt 1 view .LVU187
 711:hal/Landungsbruecke/freescale/USB_CDC/usb_framework.c ****     	}
 582              		.loc 1 711 4 view .LVU188
 711:hal/Landungsbruecke/freescale/USB_CDC/usb_framework.c ****     	}
 583              		.loc 1 711 10 is_stmt 0 view .LVU189
 584 01bc 2F80     		strh	r7, [r5]	@ movhi
 585 01be DCE7     		b	.L20
 586              	.LVL53:
 587              	.L23:
 711:hal/Landungsbruecke/freescale/USB_CDC/usb_framework.c ****     	}
 588              		.loc 1 711 10 view .LVU190
 589              	.LBE6:
 683:hal/Landungsbruecke/freescale/USB_CDC/usb_framework.c ****         }
 590              		.loc 1 683 18 view .LVU191
 591 01c0 CD20     		movs	r0, #205
 592              	.LVL54:
 683:hal/Landungsbruecke/freescale/USB_CDC/usb_framework.c ****         }
 593              		.loc 1 683 18 view .LVU192
 594 01c2 DAE7     		b	.L20
 595              	.L26:
 596              		.align	2
 597              	.L25:
 598 01c4 00000000 		.word	.LANCHOR0
 599              		.cfi_endproc
 600              	.LFE5:
 602              		.align	1
 603              		.syntax unified
 604              		.thumb
 605              		.thumb_func
 606              		.fpu softvfp
 608              	USB_Strd_Req_Feature:
 609              	.LVL55:
 610              	.LFB6:
 744:hal/Landungsbruecke/freescale/USB_CDC/usb_framework.c ****     uint_8 device_status;
 611              		.loc 1 744 1 is_stmt 1 view -0
 612              		.cfi_startproc
 613              		@ args = 0, pretend = 0, frame = 16
 614              		@ frame_needed = 0, uses_anonymous_args = 0
 745:hal/Landungsbruecke/freescale/USB_CDC/usb_framework.c ****     uint_8  set_request;
 615              		.loc 1 745 5 view .LVU194
 746:hal/Landungsbruecke/freescale/USB_CDC/usb_framework.c ****     uint_8  status = USBERR_INVALID_REQ_TYPE;
 616              		.loc 1 746 5 view .LVU195
 747:hal/Landungsbruecke/freescale/USB_CDC/usb_framework.c ****     uint_8  epinfo;
 617              		.loc 1 747 5 view .LVU196
 748:hal/Landungsbruecke/freescale/USB_CDC/usb_framework.c ****     uint_8  event;
 618              		.loc 1 748 5 view .LVU197
 749:hal/Landungsbruecke/freescale/USB_CDC/usb_framework.c **** 
 619              		.loc 1 749 5 view .LVU198
 751:hal/Landungsbruecke/freescale/USB_CDC/usb_framework.c **** 
 620              		.loc 1 751 5 view .LVU199
 751:hal/Landungsbruecke/freescale/USB_CDC/usb_framework.c **** 
 621              		.loc 1 751 18 view .LVU200
 753:hal/Landungsbruecke/freescale/USB_CDC/usb_framework.c ****     /* Find whether its a clear feature request or a set feature request */
 622              		.loc 1 753 5 view .LVU201
 744:hal/Landungsbruecke/freescale/USB_CDC/usb_framework.c ****     uint_8 device_status;
 623              		.loc 1 744 1 is_stmt 0 view .LVU202
 624 01c8 F0B5     		push	{r4, r5, r6, r7, lr}
 625              	.LCFI15:
 626              		.cfi_def_cfa_offset 20
 627              		.cfi_offset 4, -20
 628              		.cfi_offset 5, -16
 629              		.cfi_offset 6, -12
 630              		.cfi_offset 7, -8
 631              		.cfi_offset 14, -4
 753:hal/Landungsbruecke/freescale/USB_CDC/usb_framework.c ****     /* Find whether its a clear feature request or a set feature request */
 632              		.loc 1 753 10 view .LVU203
 633 01ca 0022     		movs	r2, #0
 634              	.LVL56:
 753:hal/Landungsbruecke/freescale/USB_CDC/usb_framework.c ****     /* Find whether its a clear feature request or a set feature request */
 635              		.loc 1 753 10 view .LVU204
 636 01cc 1A80     		strh	r2, [r3]	@ movhi
 755:hal/Landungsbruecke/freescale/USB_CDC/usb_framework.c **** 
 637              		.loc 1 755 5 is_stmt 1 view .LVU205
 638 01ce 0B78     		ldrb	r3, [r1]	@ zero_extendqisi2
 639              	.LVL57:
 755:hal/Landungsbruecke/freescale/USB_CDC/usb_framework.c **** 
 640              		.loc 1 755 75 is_stmt 0 view .LVU206
 641 01d0 4D78     		ldrb	r5, [r1, #1]	@ zero_extendqisi2
 744:hal/Landungsbruecke/freescale/USB_CDC/usb_framework.c ****     uint_8 device_status;
 642              		.loc 1 744 1 view .LVU207
 643 01d2 85B0     		sub	sp, sp, #20
 644              	.LCFI16:
 645              		.cfi_def_cfa_offset 40
 757:hal/Landungsbruecke/freescale/USB_CDC/usb_framework.c ****     {
 646              		.loc 1 757 7 view .LVU208
 647 01d4 13F00303 		ands	r3, r3, #3
 744:hal/Landungsbruecke/freescale/USB_CDC/usb_framework.c ****     uint_8 device_status;
 648              		.loc 1 744 1 view .LVU209
 649 01d8 0E46     		mov	r6, r1
 650 01da 8DF80700 		strb	r0, [sp, #7]
 755:hal/Landungsbruecke/freescale/USB_CDC/usb_framework.c **** 
 651              		.loc 1 755 17 view .LVU210
 652 01de C5F34005 		ubfx	r5, r5, #1, #1
 653              	.LVL58:
 757:hal/Landungsbruecke/freescale/USB_CDC/usb_framework.c ****     {
 654              		.loc 1 757 5 is_stmt 1 view .LVU211
 757:hal/Landungsbruecke/freescale/USB_CDC/usb_framework.c ****     {
 655              		.loc 1 757 7 is_stmt 0 view .LVU212
 656 01e2 32D1     		bne	.L28
 760:hal/Landungsbruecke/freescale/USB_CDC/usb_framework.c ****         {
 657              		.loc 1 760 3 is_stmt 1 view .LVU213
 658 01e4 4F88     		ldrh	r7, [r1, #2]
 760:hal/Landungsbruecke/freescale/USB_CDC/usb_framework.c ****         {
 659              		.loc 1 760 5 is_stmt 0 view .LVU214
 660 01e6 EDB1     		cbz	r5, .L29
 763:hal/Landungsbruecke/freescale/USB_CDC/usb_framework.c ****             {
 661              		.loc 1 763 4 is_stmt 1 view .LVU215
 763:hal/Landungsbruecke/freescale/USB_CDC/usb_framework.c ****             {
 662              		.loc 1 763 6 is_stmt 0 view .LVU216
 663 01e8 013F     		subs	r7, r7, #1
 664 01ea 012F     		cmp	r7, #1
 665 01ec 50D8     		bhi	.L34
 765:hal/Landungsbruecke/freescale/USB_CDC/usb_framework.c **** 
 666              		.loc 1 765 5 is_stmt 1 view .LVU217
 765:hal/Landungsbruecke/freescale/USB_CDC/usb_framework.c **** 
 667              		.loc 1 765 14 is_stmt 0 view .LVU218
 668 01ee 0DF10F02 		add	r2, sp, #15
 669 01f2 0621     		movs	r1, #6
 670              	.LVL59:
 765:hal/Landungsbruecke/freescale/USB_CDC/usb_framework.c **** 
 671              		.loc 1 765 14 view .LVU219
 672 01f4 0DF10700 		add	r0, sp, #7
 673              	.LVL60:
 765:hal/Landungsbruecke/freescale/USB_CDC/usb_framework.c **** 
 674              		.loc 1 765 14 view .LVU220
 675 01f8 FFF7FEFF 		bl	_usb_device_get_status
 676              	.LVL61:
 767:hal/Landungsbruecke/freescale/USB_CDC/usb_framework.c **** 				{
 677              		.loc 1 767 5 is_stmt 1 view .LVU221
 767:hal/Landungsbruecke/freescale/USB_CDC/usb_framework.c **** 				{
 678              		.loc 1 767 7 is_stmt 0 view .LVU222
 679 01fc 0446     		mov	r4, r0
 680 01fe 70B9     		cbnz	r0, .L30
 770:hal/Landungsbruecke/freescale/USB_CDC/usb_framework.c **** 
 681              		.loc 1 770 6 is_stmt 1 view .LVU223
 770:hal/Landungsbruecke/freescale/USB_CDC/usb_framework.c **** 
 682              		.loc 1 770 38 is_stmt 0 view .LVU224
 683 0200 B378     		ldrb	r3, [r6, #2]	@ zero_extendqisi2
 770:hal/Landungsbruecke/freescale/USB_CDC/usb_framework.c **** 
 684              		.loc 1 770 35 view .LVU225
 685 0202 0122     		movs	r2, #1
 686 0204 9A40     		lsls	r2, r2, r3
 770:hal/Landungsbruecke/freescale/USB_CDC/usb_framework.c **** 
 687              		.loc 1 770 20 view .LVU226
 688 0206 9DF80F30 		ldrb	r3, [sp, #15]	@ zero_extendqisi2
 689 020a 1A43     		orrs	r2, r2, r3
 690 020c D2B2     		uxtb	r2, r2
 691              	.L35:
 809:hal/Landungsbruecke/freescale/USB_CDC/usb_framework.c ****                 }
 692              		.loc 1 809 27 view .LVU227
 693 020e 0621     		movs	r1, #6
 694 0210 0DF10700 		add	r0, sp, #7
 695              	.LVL62:
 808:hal/Landungsbruecke/freescale/USB_CDC/usb_framework.c ****                 	status = _usb_device_set_status(&controller_ID, USB_STATUS_DEVICE, device_status);
 696              		.loc 1 808 32 view .LVU228
 697 0214 8DF80F20 		strb	r2, [sp, #15]
 809:hal/Landungsbruecke/freescale/USB_CDC/usb_framework.c ****                 }
 698              		.loc 1 809 18 is_stmt 1 view .LVU229
 809:hal/Landungsbruecke/freescale/USB_CDC/usb_framework.c ****                 }
 699              		.loc 1 809 27 is_stmt 0 view .LVU230
 700 0218 FFF7FEFF 		bl	_usb_device_set_status
 701              	.LVL63:
 702 021c 0446     		mov	r4, r0
 703              	.LVL64:
 704              	.L30:
 837:hal/Landungsbruecke/freescale/USB_CDC/usb_framework.c **** }
 705              		.loc 1 837 5 is_stmt 1 view .LVU231
 838:hal/Landungsbruecke/freescale/USB_CDC/usb_framework.c **** 
 706              		.loc 1 838 1 is_stmt 0 view .LVU232
 707 021e 2046     		mov	r0, r4
 708 0220 05B0     		add	sp, sp, #20
 709              	.LCFI17:
 710              		.cfi_remember_state
 711              		.cfi_def_cfa_offset 20
 712              		@ sp needed
 713 0222 F0BD     		pop	{r4, r5, r6, r7, pc}
 714              	.LVL65:
 715              	.L29:
 716              	.LCFI18:
 717              		.cfi_restore_state
 801:hal/Landungsbruecke/freescale/USB_CDC/usb_framework.c ****             {
 718              		.loc 1 801 10 is_stmt 1 view .LVU233
 801:hal/Landungsbruecke/freescale/USB_CDC/usb_framework.c ****             {
 719              		.loc 1 801 12 is_stmt 0 view .LVU234
 720 0224 012F     		cmp	r7, #1
 721 0226 33D1     		bne	.L34
 803:hal/Landungsbruecke/freescale/USB_CDC/usb_framework.c **** 
 722              		.loc 1 803 11 is_stmt 1 view .LVU235
 803:hal/Landungsbruecke/freescale/USB_CDC/usb_framework.c **** 
 723              		.loc 1 803 20 is_stmt 0 view .LVU236
 724 0228 0DF10F02 		add	r2, sp, #15
 725 022c 0621     		movs	r1, #6
 726              	.LVL66:
 803:hal/Landungsbruecke/freescale/USB_CDC/usb_framework.c **** 
 727              		.loc 1 803 20 view .LVU237
 728 022e 0DF10700 		add	r0, sp, #7
 729              	.LVL67:
 803:hal/Landungsbruecke/freescale/USB_CDC/usb_framework.c **** 
 730              		.loc 1 803 20 view .LVU238
 731 0232 FFF7FEFF 		bl	_usb_device_get_status
 732              	.LVL68:
 805:hal/Landungsbruecke/freescale/USB_CDC/usb_framework.c ****                 {
 733              		.loc 1 805 17 is_stmt 1 view .LVU239
 805:hal/Landungsbruecke/freescale/USB_CDC/usb_framework.c ****                 {
 734              		.loc 1 805 19 is_stmt 0 view .LVU240
 735 0236 0446     		mov	r4, r0
 736 0238 0028     		cmp	r0, #0
 737 023a F0D1     		bne	.L30
 808:hal/Landungsbruecke/freescale/USB_CDC/usb_framework.c ****                 	status = _usb_device_set_status(&controller_ID, USB_STATUS_DEVICE, device_status);
 738              		.loc 1 808 18 is_stmt 1 view .LVU241
 808:hal/Landungsbruecke/freescale/USB_CDC/usb_framework.c ****                 	status = _usb_device_set_status(&controller_ID, USB_STATUS_DEVICE, device_status);
 739              		.loc 1 808 51 is_stmt 0 view .LVU242
 740 023c B278     		ldrb	r2, [r6, #2]	@ zero_extendqisi2
 808:hal/Landungsbruecke/freescale/USB_CDC/usb_framework.c ****                 	status = _usb_device_set_status(&controller_ID, USB_STATUS_DEVICE, device_status);
 741              		.loc 1 808 48 view .LVU243
 742 023e 9740     		lsls	r7, r7, r2
 808:hal/Landungsbruecke/freescale/USB_CDC/usb_framework.c ****                 	status = _usb_device_set_status(&controller_ID, USB_STATUS_DEVICE, device_status);
 743              		.loc 1 808 32 view .LVU244
 744 0240 9DF80F20 		ldrb	r2, [sp, #15]	@ zero_extendqisi2
 745 0244 22EA0702 		bic	r2, r2, r7
 746 0248 E1E7     		b	.L35
 747              	.LVL69:
 748              	.L28:
 818:hal/Landungsbruecke/freescale/USB_CDC/usb_framework.c ****     {
 749              		.loc 1 818 10 is_stmt 1 view .LVU245
 818:hal/Landungsbruecke/freescale/USB_CDC/usb_framework.c ****     {
 750              		.loc 1 818 12 is_stmt 0 view .LVU246
 751 024a 022B     		cmp	r3, #2
 752 024c 20D1     		bne	.L34
 821:hal/Landungsbruecke/freescale/USB_CDC/usb_framework.c **** 	    status = _usb_device_set_status(&controller_ID, (uint_8)(epinfo|USB_STATUS_ENDPOINT), set_requ
 753              		.loc 1 821 9 is_stmt 1 view .LVU247
 821:hal/Landungsbruecke/freescale/USB_CDC/usb_framework.c **** 	    status = _usb_device_set_status(&controller_ID, (uint_8)(epinfo|USB_STATUS_ENDPOINT), set_requ
 754              		.loc 1 821 18 is_stmt 0 view .LVU248
 755 024e 0979     		ldrb	r1, [r1, #4]	@ zero_extendqisi2
 756              	.LVL70:
 821:hal/Landungsbruecke/freescale/USB_CDC/usb_framework.c **** 	    status = _usb_device_set_status(&controller_ID, (uint_8)(epinfo|USB_STATUS_ENDPOINT), set_requ
 757              		.loc 1 821 16 view .LVU249
 758 0250 8DF80F10 		strb	r1, [sp, #15]
 822:hal/Landungsbruecke/freescale/USB_CDC/usb_framework.c **** 
 759              		.loc 1 822 6 is_stmt 1 view .LVU250
 822:hal/Landungsbruecke/freescale/USB_CDC/usb_framework.c **** 
 760              		.loc 1 822 15 is_stmt 0 view .LVU251
 761 0254 2A46     		mov	r2, r5
 762 0256 41F01001 		orr	r1, r1, #16
 763 025a 0DF10700 		add	r0, sp, #7
 764              	.LVL71:
 822:hal/Landungsbruecke/freescale/USB_CDC/usb_framework.c **** 
 765              		.loc 1 822 15 view .LVU252
 766 025e FFF7FEFF 		bl	_usb_device_set_status
 767              	.LVL72:
 826:hal/Landungsbruecke/freescale/USB_CDC/usb_framework.c ****         {
 768              		.loc 1 826 8 view .LVU253
 769 0262 7378     		ldrb	r3, [r6, #1]	@ zero_extendqisi2
 824:hal/Landungsbruecke/freescale/USB_CDC/usb_framework.c **** 
 770              		.loc 1 824 14 view .LVU254
 771 0264 C5F10805 		rsb	r5, r5, #8
 772              	.LVL73:
 826:hal/Landungsbruecke/freescale/USB_CDC/usb_framework.c ****         {
 773              		.loc 1 826 8 view .LVU255
 774 0268 012B     		cmp	r3, #1
 822:hal/Landungsbruecke/freescale/USB_CDC/usb_framework.c **** 
 775              		.loc 1 822 15 view .LVU256
 776 026a 0446     		mov	r4, r0
 777              	.LVL74:
 824:hal/Landungsbruecke/freescale/USB_CDC/usb_framework.c **** 
 778              		.loc 1 824 6 is_stmt 1 view .LVU257
 824:hal/Landungsbruecke/freescale/USB_CDC/usb_framework.c **** 
 779              		.loc 1 824 14 is_stmt 0 view .LVU258
 780 026c E9B2     		uxtb	r1, r5
 781              	.LVL75:
 826:hal/Landungsbruecke/freescale/USB_CDC/usb_framework.c ****         {
 782              		.loc 1 826 6 is_stmt 1 view .LVU259
 826:hal/Landungsbruecke/freescale/USB_CDC/usb_framework.c ****         {
 783              		.loc 1 826 8 is_stmt 0 view .LVU260
 784 026e 07D1     		bne	.L31
 785              	.LBB7:
 828:hal/Landungsbruecke/freescale/USB_CDC/usb_framework.c **** 	         uint_8  dir = (epinfo & 0x80) >> 7;
 786              		.loc 1 828 11 is_stmt 1 view .LVU261
 828:hal/Landungsbruecke/freescale/USB_CDC/usb_framework.c **** 	         uint_8  dir = (epinfo & 0x80) >> 7;
 787              		.loc 1 828 34 is_stmt 0 view .LVU262
 788 0270 9DF80F00 		ldrb	r0, [sp, #15]	@ zero_extendqisi2
 789              	.LVL76:
 829:hal/Landungsbruecke/freescale/USB_CDC/usb_framework.c **** 	         _usb_device_clear_data0_endpoint(epnum,dir);
 790              		.loc 1 829 11 is_stmt 1 view .LVU263
 830:hal/Landungsbruecke/freescale/USB_CDC/usb_framework.c **** 	         event = USB_APP_EP_UNSTALLED;  // as far as the application is concerned, this is an UNST
 791              		.loc 1 830 11 view .LVU264
 792 0274 C109     		lsrs	r1, r0, #7
 793              	.LVL77:
 830:hal/Landungsbruecke/freescale/USB_CDC/usb_framework.c **** 	         event = USB_APP_EP_UNSTALLED;  // as far as the application is concerned, this is an UNST
 794              		.loc 1 830 11 is_stmt 0 view .LVU265
 795 0276 00F00F00 		and	r0, r0, #15
 796              	.LVL78:
 830:hal/Landungsbruecke/freescale/USB_CDC/usb_framework.c **** 	         event = USB_APP_EP_UNSTALLED;  // as far as the application is concerned, this is an UNST
 797              		.loc 1 830 11 view .LVU266
 798 027a FFF7FEFF 		bl	_usb_device_clear_data0_endpoint
 799              	.LVL79:
 831:hal/Landungsbruecke/freescale/USB_CDC/usb_framework.c ****         }
 800              		.loc 1 831 11 is_stmt 1 view .LVU267
 831:hal/Landungsbruecke/freescale/USB_CDC/usb_framework.c ****         }
 801              		.loc 1 831 17 is_stmt 0 view .LVU268
 802 027e 0821     		movs	r1, #8
 803              	.LVL80:
 804              	.L31:
 831:hal/Landungsbruecke/freescale/USB_CDC/usb_framework.c ****         }
 805              		.loc 1 831 17 view .LVU269
 806              	.LBE7:
 835:hal/Landungsbruecke/freescale/USB_CDC/usb_framework.c ****     }
 807              		.loc 1 835 9 is_stmt 1 view .LVU270
 808 0280 044B     		ldr	r3, .L36
 809 0282 9DF80700 		ldrb	r0, [sp, #7]	@ zero_extendqisi2
 810 0286 5B68     		ldr	r3, [r3, #4]
 811 0288 0DF10F02 		add	r2, sp, #15
 812 028c 9847     		blx	r3
 813              	.LVL81:
 835:hal/Landungsbruecke/freescale/USB_CDC/usb_framework.c ****     }
 814              		.loc 1 835 9 is_stmt 0 view .LVU271
 815 028e C6E7     		b	.L30
 816              	.LVL82:
 817              	.L34:
 796:hal/Landungsbruecke/freescale/USB_CDC/usb_framework.c ****             }
 818              		.loc 1 796 23 view .LVU272
 819 0290 CD24     		movs	r4, #205
 820 0292 C4E7     		b	.L30
 821              	.L37:
 822              		.align	2
 823              	.L36:
 824 0294 00000000 		.word	.LANCHOR0
 825              		.cfi_endproc
 826              	.LFE6:
 828              		.align	1
 829              		.syntax unified
 830              		.thumb
 831              		.thumb_func
 832              		.fpu softvfp
 834              	USB_Strd_Req_Set_Interface:
 835              	.LVL83:
 836              	.LFB12:
1073:hal/Landungsbruecke/freescale/USB_CDC/usb_framework.c ****     uint_8 status;
 837              		.loc 1 1073 1 is_stmt 1 view -0
 838              		.cfi_startproc
 839              		@ args = 0, pretend = 0, frame = 0
 840              		@ frame_needed = 0, uses_anonymous_args = 0
1074:hal/Landungsbruecke/freescale/USB_CDC/usb_framework.c **** 
 841              		.loc 1 1074 5 view .LVU274
1076:hal/Landungsbruecke/freescale/USB_CDC/usb_framework.c ****     *size=0;
 842              		.loc 1 1076 5 view .LVU275
1076:hal/Landungsbruecke/freescale/USB_CDC/usb_framework.c ****     *size=0;
 843              		.loc 1 1076 18 view .LVU276
1077:hal/Landungsbruecke/freescale/USB_CDC/usb_framework.c **** 
 844              		.loc 1 1077 5 view .LVU277
1073:hal/Landungsbruecke/freescale/USB_CDC/usb_framework.c ****     uint_8 status;
 845              		.loc 1 1073 1 is_stmt 0 view .LVU278
 846 0298 10B5     		push	{r4, lr}
 847              	.LCFI19:
 848              		.cfi_def_cfa_offset 8
 849              		.cfi_offset 4, -8
 850              		.cfi_offset 14, -4
1077:hal/Landungsbruecke/freescale/USB_CDC/usb_framework.c **** 
 851              		.loc 1 1077 10 view .LVU279
 852 029a 0024     		movs	r4, #0
 853 029c 1C80     		strh	r4, [r3]	@ movhi
1080:hal/Landungsbruecke/freescale/USB_CDC/usb_framework.c ****     {
 854              		.loc 1 1080 5 is_stmt 1 view .LVU280
1080:hal/Landungsbruecke/freescale/USB_CDC/usb_framework.c ****     {
 855              		.loc 1 1080 7 is_stmt 0 view .LVU281
 856 029e 0B78     		ldrb	r3, [r1]	@ zero_extendqisi2
 857              	.LVL84:
1080:hal/Landungsbruecke/freescale/USB_CDC/usb_framework.c ****     {
 858              		.loc 1 1080 7 view .LVU282
 859 02a0 03F00303 		and	r3, r3, #3
 860 02a4 012B     		cmp	r3, #1
 861 02a6 05D1     		bne	.L40
 862              	.LVL85:
 863              	.LBB10:
 864              	.LBI10:
1067:hal/Landungsbruecke/freescale/USB_CDC/usb_framework.c ****     uint_8    controller_ID,            /* [IN] Controller ID */
 865              		.loc 1 1067 15 is_stmt 1 view .LVU283
 866              	.LBB11:
1087:hal/Landungsbruecke/freescale/USB_CDC/usb_framework.c **** 										(uint_8)setup_packet->value);
 867              		.loc 1 1087 6 view .LVU284
1087:hal/Landungsbruecke/freescale/USB_CDC/usb_framework.c **** 										(uint_8)setup_packet->value);
 868              		.loc 1 1087 15 is_stmt 0 view .LVU285
 869 02a8 8A78     		ldrb	r2, [r1, #2]	@ zero_extendqisi2
 870              	.LVL86:
1087:hal/Landungsbruecke/freescale/USB_CDC/usb_framework.c **** 										(uint_8)setup_packet->value);
 871              		.loc 1 1087 15 view .LVU286
 872 02aa 0979     		ldrb	r1, [r1, #4]	@ zero_extendqisi2
 873              	.LVL87:
1087:hal/Landungsbruecke/freescale/USB_CDC/usb_framework.c **** 										(uint_8)setup_packet->value);
 874              		.loc 1 1087 15 view .LVU287
 875 02ac FFF7FEFF 		bl	USB_Desc_Set_Interface
 876              	.LVL88:
1090:hal/Landungsbruecke/freescale/USB_CDC/usb_framework.c **** 
 877              		.loc 1 1090 6 is_stmt 1 view .LVU288
1090:hal/Landungsbruecke/freescale/USB_CDC/usb_framework.c **** 
 878              		.loc 1 1090 21 view .LVU289
1092:hal/Landungsbruecke/freescale/USB_CDC/usb_framework.c ****     }
 879              		.loc 1 1092 6 view .LVU290
1087:hal/Landungsbruecke/freescale/USB_CDC/usb_framework.c **** 										(uint_8)setup_packet->value);
 880              		.loc 1 1087 15 is_stmt 0 view .LVU291
 881 02b0 2046     		mov	r0, r4
 882              	.L39:
 883              	.LBE11:
 884              	.LBE10:
1094:hal/Landungsbruecke/freescale/USB_CDC/usb_framework.c **** 
 885              		.loc 1 1094 1 view .LVU292
 886 02b2 10BD     		pop	{r4, pc}
 887              	.LVL89:
 888              	.L40:
1082:hal/Landungsbruecke/freescale/USB_CDC/usb_framework.c ****     }
 889              		.loc 1 1082 16 view .LVU293
 890 02b4 0420     		movs	r0, #4
 891              	.LVL90:
1082:hal/Landungsbruecke/freescale/USB_CDC/usb_framework.c ****     }
 892              		.loc 1 1082 16 view .LVU294
 893 02b6 FCE7     		b	.L39
 894              		.cfi_endproc
 895              	.LFE12:
 897              		.align	1
 898              		.syntax unified
 899              		.thumb
 900              		.thumb_func
 901              		.fpu softvfp
 903              	USB_Strd_Req_Get_Interface:
 904              	.LVL91:
 905              	.LFB11:
1031:hal/Landungsbruecke/freescale/USB_CDC/usb_framework.c ****     uint_8 status;
 906              		.loc 1 1031 1 is_stmt 1 view -0
 907              		.cfi_startproc
 908              		@ args = 0, pretend = 0, frame = 0
 909              		@ frame_needed = 0, uses_anonymous_args = 0
1032:hal/Landungsbruecke/freescale/USB_CDC/usb_framework.c **** 
 910              		.loc 1 1032 5 view .LVU296
1035:hal/Landungsbruecke/freescale/USB_CDC/usb_framework.c ****     {
 911              		.loc 1 1035 5 view .LVU297
1031:hal/Landungsbruecke/freescale/USB_CDC/usb_framework.c ****     uint_8 status;
 912              		.loc 1 1031 1 is_stmt 0 view .LVU298
 913 02b8 38B5     		push	{r3, r4, r5, lr}
 914              	.LCFI20:
 915              		.cfi_def_cfa_offset 16
 916              		.cfi_offset 3, -16
 917              		.cfi_offset 4, -12
 918              		.cfi_offset 5, -8
 919              		.cfi_offset 14, -4
1035:hal/Landungsbruecke/freescale/USB_CDC/usb_framework.c ****     {
 920              		.loc 1 1035 7 view .LVU299
 921 02ba 0C78     		ldrb	r4, [r1]	@ zero_extendqisi2
 922 02bc 04F00304 		and	r4, r4, #3
 923 02c0 012C     		cmp	r4, #1
1031:hal/Landungsbruecke/freescale/USB_CDC/usb_framework.c ****     uint_8 status;
 924              		.loc 1 1031 1 view .LVU300
 925 02c2 1546     		mov	r5, r2
1035:hal/Landungsbruecke/freescale/USB_CDC/usb_framework.c ****     {
 926              		.loc 1 1035 7 view .LVU301
 927 02c4 07D1     		bne	.L43
 928              	.LVL92:
 929              	.LBB14:
 930              	.LBI14:
1025:hal/Landungsbruecke/freescale/USB_CDC/usb_framework.c ****     uint_8    controller_ID,            /* [IN] Controller ID */
 931              		.loc 1 1025 15 is_stmt 1 view .LVU302
 932              	.LBB15:
1041:hal/Landungsbruecke/freescale/USB_CDC/usb_framework.c **** 		status = USB_Desc_Get_Interface(controller_ID,(uint_8)setup_packet->index,
 933              		.loc 1 1041 6 view .LVU303
1041:hal/Landungsbruecke/freescale/USB_CDC/usb_framework.c **** 		status = USB_Desc_Get_Interface(controller_ID,(uint_8)setup_packet->index,
 934              		.loc 1 1041 12 is_stmt 0 view .LVU304
 935 02c6 1C80     		strh	r4, [r3]	@ movhi
1042:hal/Landungsbruecke/freescale/USB_CDC/usb_framework.c **** 										(uint_8_ptr)&g_std_framework_data);
 936              		.loc 1 1042 3 is_stmt 1 view .LVU305
1042:hal/Landungsbruecke/freescale/USB_CDC/usb_framework.c **** 										(uint_8_ptr)&g_std_framework_data);
 937              		.loc 1 1042 12 is_stmt 0 view .LVU306
 938 02c8 044C     		ldr	r4, .L44
 939 02ca 0979     		ldrb	r1, [r1, #4]	@ zero_extendqisi2
 940              	.LVL93:
1042:hal/Landungsbruecke/freescale/USB_CDC/usb_framework.c **** 										(uint_8_ptr)&g_std_framework_data);
 941              		.loc 1 1042 12 view .LVU307
 942 02cc 2246     		mov	r2, r4
 943              	.LVL94:
1042:hal/Landungsbruecke/freescale/USB_CDC/usb_framework.c **** 										(uint_8_ptr)&g_std_framework_data);
 944              		.loc 1 1042 12 view .LVU308
 945 02ce FFF7FEFF 		bl	USB_Desc_Get_Interface
 946              	.LVL95:
1044:hal/Landungsbruecke/freescale/USB_CDC/usb_framework.c **** 
 947              		.loc 1 1044 3 is_stmt 1 view .LVU309
1044:hal/Landungsbruecke/freescale/USB_CDC/usb_framework.c **** 
 948              		.loc 1 1044 9 is_stmt 0 view .LVU310
 949 02d2 2C60     		str	r4, [r5]
1046:hal/Landungsbruecke/freescale/USB_CDC/usb_framework.c ****     }
 950              		.loc 1 1046 3 is_stmt 1 view .LVU311
 951              	.LVL96:
 952              	.L42:
1046:hal/Landungsbruecke/freescale/USB_CDC/usb_framework.c ****     }
 953              		.loc 1 1046 3 is_stmt 0 view .LVU312
 954              	.LBE15:
 955              	.LBE14:
1048:hal/Landungsbruecke/freescale/USB_CDC/usb_framework.c **** 
 956              		.loc 1 1048 1 view .LVU313
 957 02d4 38BD     		pop	{r3, r4, r5, pc}
 958              	.LVL97:
 959              	.L43:
1037:hal/Landungsbruecke/freescale/USB_CDC/usb_framework.c ****     }
 960              		.loc 1 1037 16 view .LVU314
 961 02d6 0420     		movs	r0, #4
 962              	.LVL98:
1037:hal/Landungsbruecke/freescale/USB_CDC/usb_framework.c ****     }
 963              		.loc 1 1037 16 view .LVU315
 964 02d8 FCE7     		b	.L42
 965              	.L45:
 966 02da 00BF     		.align	2
 967              	.L44:
 968 02dc 00000000 		.word	.LANCHOR0
 969              		.cfi_endproc
 970              	.LFE11:
 972              		.align	1
 973              		.syntax unified
 974              		.thumb
 975              		.thumb_func
 976              		.fpu softvfp
 978              	USB_Control_Service_Handler.constprop.0:
 979              	.LVL99:
 980              	.LFB17:
 565:hal/Landungsbruecke/freescale/USB_CDC/usb_framework.c ****     uint_8    controller_ID,            /* [IN] Controller ID */
 981              		.loc 1 565 13 is_stmt 1 view -0
 982              		.cfi_startproc
 983              		@ args = 0, pretend = 0, frame = 8
 984              		@ frame_needed = 0, uses_anonymous_args = 0
 573:hal/Landungsbruecke/freescale/USB_CDC/usb_framework.c ****     {
 985              		.loc 1 573 5 view .LVU317
 565:hal/Landungsbruecke/freescale/USB_CDC/usb_framework.c ****     uint_8    controller_ID,            /* [IN] Controller ID */
 986              		.loc 1 565 13 is_stmt 0 view .LVU318
 987 02e0 13B5     		push	{r0, r1, r4, lr}
 988              	.LCFI21:
 989              		.cfi_def_cfa_offset 16
 990              		.cfi_offset 4, -8
 991              		.cfi_offset 14, -4
 573:hal/Landungsbruecke/freescale/USB_CDC/usb_framework.c ****     {
 992              		.loc 1 573 7 view .LVU319
 993 02e2 CD29     		cmp	r1, #205
 565:hal/Landungsbruecke/freescale/USB_CDC/usb_framework.c ****     uint_8    controller_ID,            /* [IN] Controller ID */
 994              		.loc 1 565 13 view .LVU320
 995 02e4 8DF80700 		strb	r0, [sp, #7]
 573:hal/Landungsbruecke/freescale/USB_CDC/usb_framework.c ****     {
 996              		.loc 1 573 7 view .LVU321
 997 02e8 07D1     		bne	.L47
 576:hal/Landungsbruecke/freescale/USB_CDC/usb_framework.c ****             (uint_8)(USB_STATUS_ENDPOINT | CONTROL_ENDPOINT |
 998              		.loc 1 576 9 is_stmt 1 view .LVU322
 576:hal/Landungsbruecke/freescale/USB_CDC/usb_framework.c ****             (uint_8)(USB_STATUS_ENDPOINT | CONTROL_ENDPOINT |
 999              		.loc 1 576 15 is_stmt 0 view .LVU323
 1000 02ea 0122     		movs	r2, #1
 1001              	.LVL100:
 576:hal/Landungsbruecke/freescale/USB_CDC/usb_framework.c ****             (uint_8)(USB_STATUS_ENDPOINT | CONTROL_ENDPOINT |
 1002              		.loc 1 576 15 view .LVU324
 1003 02ec 9021     		movs	r1, #144
 1004              	.LVL101:
 576:hal/Landungsbruecke/freescale/USB_CDC/usb_framework.c ****             (uint_8)(USB_STATUS_ENDPOINT | CONTROL_ENDPOINT |
 1005              		.loc 1 576 15 view .LVU325
 1006 02ee 0DF10700 		add	r0, sp, #7
 1007              	.LVL102:
 576:hal/Landungsbruecke/freescale/USB_CDC/usb_framework.c ****             (uint_8)(USB_STATUS_ENDPOINT | CONTROL_ENDPOINT |
 1008              		.loc 1 576 15 view .LVU326
 1009 02f2 FFF7FEFF 		bl	_usb_device_set_status
 1010              	.LVL103:
 1011              	.L46:
 602:hal/Landungsbruecke/freescale/USB_CDC/usb_framework.c **** /*************************************************************************//*!
 1012              		.loc 1 602 1 view .LVU327
 1013 02f6 02B0     		add	sp, sp, #8
 1014              	.LCFI22:
 1015              		.cfi_remember_state
 1016              		.cfi_def_cfa_offset 8
 1017              		@ sp needed
 1018 02f8 10BD     		pop	{r4, pc}
 1019              	.LVL104:
 1020              	.L47:
 1021              	.LCFI23:
 1022              		.cfi_restore_state
 584:hal/Landungsbruecke/freescale/USB_CDC/usb_framework.c ****         {
 1023              		.loc 1 584 9 is_stmt 1 view .LVU328
 584:hal/Landungsbruecke/freescale/USB_CDC/usb_framework.c ****         {
 1024              		.loc 1 584 32 is_stmt 0 view .LVU329
 1025 02fa 0D49     		ldr	r1, .L50
 1026              	.LVL105:
 584:hal/Landungsbruecke/freescale/USB_CDC/usb_framework.c ****         {
 1027              		.loc 1 584 11 view .LVU330
 1028 02fc 1C88     		ldrh	r4, [r3]
 584:hal/Landungsbruecke/freescale/USB_CDC/usb_framework.c ****         {
 1029              		.loc 1 584 32 view .LVU331
 1030 02fe 088A     		ldrh	r0, [r1, #16]
 1031              	.LVL106:
 590:hal/Landungsbruecke/freescale/USB_CDC/usb_framework.c ****             CONTROL_ENDPOINT, *data, *size);
 1032              		.loc 1 590 15 view .LVU332
 1033 0300 1268     		ldr	r2, [r2]
 1034              	.LVL107:
 584:hal/Landungsbruecke/freescale/USB_CDC/usb_framework.c ****         {
 1035              		.loc 1 584 11 view .LVU333
 1036 0302 8442     		cmp	r4, r0
 586:hal/Landungsbruecke/freescale/USB_CDC/usb_framework.c ****         }
 1037              		.loc 1 586 19 view .LVU334
 1038 0304 88BF     		it	hi
 1039 0306 1880     		strhhi	r0, [r3]	@ movhi
 1040 0308 0C46     		mov	r4, r1
 586:hal/Landungsbruecke/freescale/USB_CDC/usb_framework.c ****         }
 1041              		.loc 1 586 13 is_stmt 1 view .LVU335
 590:hal/Landungsbruecke/freescale/USB_CDC/usb_framework.c ****             CONTROL_ENDPOINT, *data, *size);
 1042              		.loc 1 590 9 view .LVU336
 590:hal/Landungsbruecke/freescale/USB_CDC/usb_framework.c ****             CONTROL_ENDPOINT, *data, *size);
 1043              		.loc 1 590 15 is_stmt 0 view .LVU337
 1044 030a 1B88     		ldrh	r3, [r3]
 1045              	.LVL108:
 590:hal/Landungsbruecke/freescale/USB_CDC/usb_framework.c ****             CONTROL_ENDPOINT, *data, *size);
 1046              		.loc 1 590 15 view .LVU338
 1047 030c 9DF80700 		ldrb	r0, [sp, #7]	@ zero_extendqisi2
 1048 0310 0021     		movs	r1, #0
 1049 0312 FFF7FEFF 		bl	USB_Class_Send_Data
 1050              	.LVL109:
 592:hal/Landungsbruecke/freescale/USB_CDC/usb_framework.c ****             USB_DATA_TO_HOST)
 1051              		.loc 1 592 9 is_stmt 1 view .LVU339
 592:hal/Landungsbruecke/freescale/USB_CDC/usb_framework.c ****             USB_DATA_TO_HOST)
 1052              		.loc 1 592 11 is_stmt 0 view .LVU340
 1053 0316 94F90A30 		ldrsb	r3, [r4, #10]
 1054 031a 002B     		cmp	r3, #0
 1055 031c EBDA     		bge	.L46
 596:hal/Landungsbruecke/freescale/USB_CDC/usb_framework.c ****                 CONTROL_ENDPOINT,NULL,0);
 1056              		.loc 1 596 13 is_stmt 1 view .LVU341
 596:hal/Landungsbruecke/freescale/USB_CDC/usb_framework.c ****                 CONTROL_ENDPOINT,NULL,0);
 1057              		.loc 1 596 19 is_stmt 0 view .LVU342
 1058 031e 0023     		movs	r3, #0
 1059 0320 1A46     		mov	r2, r3
 1060 0322 1946     		mov	r1, r3
 1061 0324 0DF10700 		add	r0, sp, #7
 1062 0328 FFF7FEFF 		bl	_usb_device_recv_data
 1063              	.LVL110:
 601:hal/Landungsbruecke/freescale/USB_CDC/usb_framework.c **** }
 1064              		.loc 1 601 5 is_stmt 1 view .LVU343
 1065 032c E3E7     		b	.L46
 1066              	.L51:
 1067 032e 00BF     		.align	2
 1068              	.L50:
 1069 0330 00000000 		.word	.LANCHOR0
 1070              		.cfi_endproc
 1071              	.LFE17:
 1073              		.align	1
 1074              		.global	USB_Control_Service
 1075              		.syntax unified
 1076              		.thumb
 1077              		.thumb_func
 1078              		.fpu softvfp
 1080              	USB_Control_Service:
 1081              	.LVL111:
 1082              	.LFB3:
 444:hal/Landungsbruecke/freescale/USB_CDC/usb_framework.c ****     uint_8    device_state = 0;
 1083              		.loc 1 444 1 view -0
 1084              		.cfi_startproc
 1085              		@ args = 0, pretend = 0, frame = 8
 1086              		@ frame_needed = 0, uses_anonymous_args = 0
 445:hal/Landungsbruecke/freescale/USB_CDC/usb_framework.c ****     uint_8     status = USBERR_INVALID_REQ_TYPE;
 1087              		.loc 1 445 5 view .LVU345
 444:hal/Landungsbruecke/freescale/USB_CDC/usb_framework.c ****     uint_8    device_state = 0;
 1088              		.loc 1 444 1 is_stmt 0 view .LVU346
 1089 0334 73B5     		push	{r0, r1, r4, r5, r6, lr}
 1090              	.LCFI24:
 1091              		.cfi_def_cfa_offset 24
 1092              		.cfi_offset 4, -16
 1093              		.cfi_offset 5, -12
 1094              		.cfi_offset 6, -8
 1095              		.cfi_offset 14, -4
 444:hal/Landungsbruecke/freescale/USB_CDC/usb_framework.c ****     uint_8    device_state = 0;
 1096              		.loc 1 444 1 view .LVU347
 1097 0336 0546     		mov	r5, r0
 445:hal/Landungsbruecke/freescale/USB_CDC/usb_framework.c ****     uint_8     status = USBERR_INVALID_REQ_TYPE;
 1098              		.loc 1 445 15 view .LVU348
 1099 0338 0026     		movs	r6, #0
 451:hal/Landungsbruecke/freescale/USB_CDC/usb_framework.c ****         &device_state);
 1100              		.loc 1 451 11 view .LVU349
 1101 033a 6A46     		mov	r2, sp
 1102 033c 0121     		movs	r1, #1
 445:hal/Landungsbruecke/freescale/USB_CDC/usb_framework.c ****     uint_8     status = USBERR_INVALID_REQ_TYPE;
 1103              		.loc 1 445 15 view .LVU350
 1104 033e 8DF80060 		strb	r6, [sp]
 446:hal/Landungsbruecke/freescale/USB_CDC/usb_framework.c ****     uint_8_ptr data = NULL;
 1105              		.loc 1 446 5 is_stmt 1 view .LVU351
 1106              	.LVL112:
 447:hal/Landungsbruecke/freescale/USB_CDC/usb_framework.c ****     USB_PACKET_SIZE size;
 1107              		.loc 1 447 5 view .LVU352
 447:hal/Landungsbruecke/freescale/USB_CDC/usb_framework.c ****     USB_PACKET_SIZE size;
 1108              		.loc 1 447 16 is_stmt 0 view .LVU353
 1109 0342 0196     		str	r6, [sp, #4]
 448:hal/Landungsbruecke/freescale/USB_CDC/usb_framework.c **** 
 1110              		.loc 1 448 5 is_stmt 1 view .LVU354
 451:hal/Landungsbruecke/freescale/USB_CDC/usb_framework.c ****         &device_state);
 1111              		.loc 1 451 5 view .LVU355
 451:hal/Landungsbruecke/freescale/USB_CDC/usb_framework.c ****         &device_state);
 1112              		.loc 1 451 11 is_stmt 0 view .LVU356
 1113 0344 FFF7FEFF 		bl	_usb_device_get_status
 1114              	.LVL113:
 454:hal/Landungsbruecke/freescale/USB_CDC/usb_framework.c ****     {
 1115              		.loc 1 454 5 is_stmt 1 view .LVU357
 454:hal/Landungsbruecke/freescale/USB_CDC/usb_framework.c ****     {
 1116              		.loc 1 454 7 is_stmt 0 view .LVU358
 1117 0348 AA78     		ldrb	r2, [r5, #2]	@ zero_extendqisi2
 1118 034a 424C     		ldr	r4, .L75
 1119 034c 012A     		cmp	r2, #1
 1120 034e 52D1     		bne	.L53
 457:hal/Landungsbruecke/freescale/USB_CDC/usb_framework.c **** 
 1121              		.loc 1 457 9 is_stmt 1 view .LVU359
 457:hal/Landungsbruecke/freescale/USB_CDC/usb_framework.c **** 
 1122              		.loc 1 457 41 is_stmt 0 view .LVU360
 1123 0350 6868     		ldr	r0, [r5, #4]	@ unaligned
 457:hal/Landungsbruecke/freescale/USB_CDC/usb_framework.c **** 
 1124              		.loc 1 457 15 view .LVU361
 1125 0352 0368     		ldr	r3, [r0]	@ unaligned
 1126 0354 C4F80A30 		str	r3, [r4, #10]	@ unaligned
 1127 0358 4368     		ldr	r3, [r0, #4]	@ unaligned
 465:hal/Landungsbruecke/freescale/USB_CDC/usb_framework.c ****             USB_REQUEST_CLASS_STRD)
 1128              		.loc 1 465 24 view .LVU362
 1129 035a A07A     		ldrb	r0, [r4, #10]	@ zero_extendqisi2
 457:hal/Landungsbruecke/freescale/USB_CDC/usb_framework.c **** 
 1130              		.loc 1 457 15 view .LVU363
 1131 035c C4F80E30 		str	r3, [r4, #14]	@ unaligned
 460:hal/Landungsbruecke/freescale/USB_CDC/usb_framework.c ****         g_setup_pkt.value = BYTE_SWAP16(g_setup_pkt.value);
 1132              		.loc 1 460 9 is_stmt 1 view .LVU364
 461:hal/Landungsbruecke/freescale/USB_CDC/usb_framework.c ****         g_setup_pkt.length = BYTE_SWAP16(g_setup_pkt.length);
 1133              		.loc 1 461 9 view .LVU365
 462:hal/Landungsbruecke/freescale/USB_CDC/usb_framework.c **** 
 1134              		.loc 1 462 9 view .LVU366
 465:hal/Landungsbruecke/freescale/USB_CDC/usb_framework.c ****             USB_REQUEST_CLASS_STRD)
 1135              		.loc 1 465 9 view .LVU367
 465:hal/Landungsbruecke/freescale/USB_CDC/usb_framework.c ****             USB_REQUEST_CLASS_STRD)
 1136              		.loc 1 465 11 is_stmt 0 view .LVU368
 1137 0360 10F0600F 		tst	r0, #96
 457:hal/Landungsbruecke/freescale/USB_CDC/usb_framework.c **** 
 1138              		.loc 1 457 15 view .LVU369
 1139 0364 04F10A01 		add	r1, r4, #10
 465:hal/Landungsbruecke/freescale/USB_CDC/usb_framework.c ****             USB_REQUEST_CLASS_STRD)
 1140              		.loc 1 465 11 view .LVU370
 1141 0368 1ED1     		bne	.L54
 469:hal/Landungsbruecke/freescale/USB_CDC/usb_framework.c ****             {
 1142              		.loc 1 469 13 is_stmt 1 view .LVU371
 469:hal/Landungsbruecke/freescale/USB_CDC/usb_framework.c ****             {
 1143              		.loc 1 469 46 is_stmt 0 view .LVU372
 1144 036a E27A     		ldrb	r2, [r4, #11]	@ zero_extendqisi2
 469:hal/Landungsbruecke/freescale/USB_CDC/usb_framework.c ****             {
 1145              		.loc 1 469 34 view .LVU373
 1146 036c 3A4B     		ldr	r3, .L75+4
 1147 036e 53F82240 		ldr	r4, [r3, r2, lsl #2]
 469:hal/Landungsbruecke/freescale/USB_CDC/usb_framework.c ****             {
 1148              		.loc 1 469 15 view .LVU374
 1149 0372 002C     		cmp	r4, #0
 1150 0374 6CD0     		beq	.L62
 472:hal/Landungsbruecke/freescale/USB_CDC/usb_framework.c ****                     (g_validate_request[g_setup_pkt.request][device_state]
 1151              		.loc 1 472 17 is_stmt 1 view .LVU375
 472:hal/Landungsbruecke/freescale/USB_CDC/usb_framework.c ****                     (g_validate_request[g_setup_pkt.request][device_state]
 1152              		.loc 1 472 34 is_stmt 0 view .LVU376
 1153 0376 9DF80000 		ldrb	r0, [sp]	@ zero_extendqisi2
 472:hal/Landungsbruecke/freescale/USB_CDC/usb_framework.c ****                     (g_validate_request[g_setup_pkt.request][device_state]
 1154              		.loc 1 472 19 view .LVU377
 1155 037a 0228     		cmp	r0, #2
 1156 037c 68D8     		bhi	.L62
 473:hal/Landungsbruecke/freescale/USB_CDC/usb_framework.c ****                     ==TRUE))
 1157              		.loc 1 473 61 discriminator 1 view .LVU378
 1158 037e 02EB4202 		add	r2, r2, r2, lsl #1
 1159 0382 1344     		add	r3, r3, r2
 1160 0384 0344     		add	r3, r3, r0
 472:hal/Landungsbruecke/freescale/USB_CDC/usb_framework.c ****                     (g_validate_request[g_setup_pkt.request][device_state]
 1161              		.loc 1 472 55 discriminator 1 view .LVU379
 1162 0386 93F83430 		ldrb	r3, [r3, #52]	@ zero_extendqisi2
 1163 038a 012B     		cmp	r3, #1
 1164 038c 60D1     		bne	.L62
 477:hal/Landungsbruecke/freescale/USB_CDC/usb_framework.c ****                         (event->controller_ID, &g_setup_pkt, &data,
 1165              		.loc 1 477 21 is_stmt 1 view .LVU380
 477:hal/Landungsbruecke/freescale/USB_CDC/usb_framework.c ****                         (event->controller_ID, &g_setup_pkt, &data,
 1166              		.loc 1 477 30 is_stmt 0 view .LVU381
 1167 038e 0DF10203 		add	r3, sp, #2
 1168 0392 01AA     		add	r2, sp, #4
 1169              	.L72:
 502:hal/Landungsbruecke/freescale/USB_CDC/usb_framework.c ****                     &g_setup_pkt, &data, (USB_PACKET_SIZE*)&size);
 1170              		.loc 1 502 26 view .LVU382
 1171 0394 2878     		ldrb	r0, [r5]	@ zero_extendqisi2
 1172 0396 A047     		blx	r4
 1173              	.LVL114:
 1174              	.L74:
 502:hal/Landungsbruecke/freescale/USB_CDC/usb_framework.c ****                     &g_setup_pkt, &data, (USB_PACKET_SIZE*)&size);
 1175              		.loc 1 502 26 view .LVU383
 1176 0398 0146     		mov	r1, r0
 1177              	.LVL115:
 1178              	.L61:
 540:hal/Landungsbruecke/freescale/USB_CDC/usb_framework.c ****             status, &g_setup_pkt, &data,
 1179              		.loc 1 540 9 is_stmt 1 view .LVU384
 1180 039a 2878     		ldrb	r0, [r5]	@ zero_extendqisi2
 1181 039c 0DF10203 		add	r3, sp, #2
 1182 03a0 01AA     		add	r2, sp, #4
 1183 03a2 FFF79DFF 		bl	USB_Control_Service_Handler.constprop.0
 1184              	.LVL116:
 540:hal/Landungsbruecke/freescale/USB_CDC/usb_framework.c ****             status, &g_setup_pkt, &data,
 1185              		.loc 1 540 9 is_stmt 0 view .LVU385
 1186 03a6 13E0     		b	.L52
 1187              	.LVL117:
 1188              	.L54:
 462:hal/Landungsbruecke/freescale/USB_CDC/usb_framework.c **** 
 1189              		.loc 1 462 30 view .LVU386
 1190 03a8 238A     		ldrh	r3, [r4, #16]
 486:hal/Landungsbruecke/freescale/USB_CDC/usb_framework.c ****             if(size <= USB_OUT_PKT_SIZE) {
 1191              		.loc 1 486 13 is_stmt 1 view .LVU387
 486:hal/Landungsbruecke/freescale/USB_CDC/usb_framework.c ****             if(size <= USB_OUT_PKT_SIZE) {
 1192              		.loc 1 486 18 is_stmt 0 view .LVU388
 1193 03aa ADF80230 		strh	r3, [sp, #2]	@ movhi
 487:hal/Landungsbruecke/freescale/USB_CDC/usb_framework.c ****             if( (size != 0) &&
 1194              		.loc 1 487 13 is_stmt 1 view .LVU389
 487:hal/Landungsbruecke/freescale/USB_CDC/usb_framework.c ****             if( (size != 0) &&
 1195              		.loc 1 487 15 is_stmt 0 view .LVU390
 1196 03ae 202B     		cmp	r3, #32
 1197 03b0 18D8     		bhi	.L57
 488:hal/Landungsbruecke/freescale/USB_CDC/usb_framework.c ****                 ((g_setup_pkt.request_type & USB_DATA_DIREC_MASK) ==
 1198              		.loc 1 488 13 is_stmt 1 view .LVU391
 488:hal/Landungsbruecke/freescale/USB_CDC/usb_framework.c ****                 ((g_setup_pkt.request_type & USB_DATA_DIREC_MASK) ==
 1199              		.loc 1 488 15 is_stmt 0 view .LVU392
 1200 03b2 7BB1     		cbz	r3, .L58
 488:hal/Landungsbruecke/freescale/USB_CDC/usb_framework.c ****                 ((g_setup_pkt.request_type & USB_DATA_DIREC_MASK) ==
 1201              		.loc 1 488 29 discriminator 1 view .LVU393
 1202 03b4 0206     		lsls	r2, r0, #24
 1203 03b6 0DD4     		bmi	.L58
 492:hal/Landungsbruecke/freescale/USB_CDC/usb_framework.c **** 
 1204              		.loc 1 492 17 is_stmt 1 view .LVU394
 492:hal/Landungsbruecke/freescale/USB_CDC/usb_framework.c **** 
 1205              		.loc 1 492 23 is_stmt 0 view .LVU395
 1206 03b8 0A68     		ldr	r2, [r1]	@ unaligned
 1207 03ba C4F81220 		str	r2, [r4, #18]	@ unaligned
 1208 03be 4A68     		ldr	r2, [r1, #4]	@ unaligned
 1209 03c0 C4F81620 		str	r2, [r4, #22]	@ unaligned
 495:hal/Landungsbruecke/freescale/USB_CDC/usb_framework.c ****                     CONTROL_ENDPOINT, ext_req_to_host_buffer,
 1210              		.loc 1 495 17 is_stmt 1 view .LVU396
 495:hal/Landungsbruecke/freescale/USB_CDC/usb_framework.c ****                     CONTROL_ENDPOINT, ext_req_to_host_buffer,
 1211              		.loc 1 495 23 is_stmt 0 view .LVU397
 1212 03c4 3146     		mov	r1, r6
 1213 03c6 04F11A02 		add	r2, r4, #26
 1214 03ca 2846     		mov	r0, r5
 1215 03cc FFF7FEFF 		bl	_usb_device_recv_data
 1216              	.LVL118:
 498:hal/Landungsbruecke/freescale/USB_CDC/usb_framework.c ****             }
 1217              		.loc 1 498 17 is_stmt 1 view .LVU398
 1218              	.L52:
 545:hal/Landungsbruecke/freescale/USB_CDC/usb_framework.c **** 
 1219              		.loc 1 545 1 is_stmt 0 view .LVU399
 1220 03d0 02B0     		add	sp, sp, #8
 1221              	.LCFI25:
 1222              		.cfi_remember_state
 1223              		.cfi_def_cfa_offset 16
 1224              		@ sp needed
 1225 03d2 70BD     		pop	{r4, r5, r6, pc}
 1226              	.LVL119:
 1227              	.L58:
 1228              	.LCFI26:
 1229              		.cfi_restore_state
 500:hal/Landungsbruecke/freescale/USB_CDC/usb_framework.c ****             {
 1230              		.loc 1 500 18 is_stmt 1 view .LVU400
 500:hal/Landungsbruecke/freescale/USB_CDC/usb_framework.c ****             {
 1231              		.loc 1 500 42 is_stmt 0 view .LVU401
 1232 03d4 E46B     		ldr	r4, [r4, #60]
 500:hal/Landungsbruecke/freescale/USB_CDC/usb_framework.c ****             {
 1233              		.loc 1 500 20 view .LVU402
 1234 03d6 002C     		cmp	r4, #0
 1235 03d8 3AD0     		beq	.L62
 502:hal/Landungsbruecke/freescale/USB_CDC/usb_framework.c ****                     &g_setup_pkt, &data, (USB_PACKET_SIZE*)&size);
 1236              		.loc 1 502 17 is_stmt 1 view .LVU403
 502:hal/Landungsbruecke/freescale/USB_CDC/usb_framework.c ****                     &g_setup_pkt, &data, (USB_PACKET_SIZE*)&size);
 1237              		.loc 1 502 26 is_stmt 0 view .LVU404
 1238 03da 2049     		ldr	r1, .L75+8
 1239 03dc 0DF10203 		add	r3, sp, #2
 1240 03e0 01AA     		add	r2, sp, #4
 1241 03e2 D7E7     		b	.L72
 1242              	.L57:
 509:hal/Landungsbruecke/freescale/USB_CDC/usb_framework.c ****                 	USBERR_INVALID_REQ_TYPE, &g_setup_pkt, &data, (USB_PACKET_SIZE*)&size);
 1243              		.loc 1 509 17 is_stmt 1 view .LVU405
 1244 03e4 2B78     		ldrb	r3, [r5]	@ zero_extendqisi2
 1245 03e6 8DF80130 		strb	r3, [sp, #1]
 1246              	.LVL120:
 1247              	.LBB20:
 1248              	.LBI20:
 565:hal/Landungsbruecke/freescale/USB_CDC/usb_framework.c ****     uint_8    controller_ID,            /* [IN] Controller ID */
 1249              		.loc 1 565 13 view .LVU406
 1250              	.LBB21:
 573:hal/Landungsbruecke/freescale/USB_CDC/usb_framework.c ****     {
 1251              		.loc 1 573 5 view .LVU407
 576:hal/Landungsbruecke/freescale/USB_CDC/usb_framework.c ****             (uint_8)(USB_STATUS_ENDPOINT | CONTROL_ENDPOINT |
 1252              		.loc 1 576 9 view .LVU408
 576:hal/Landungsbruecke/freescale/USB_CDC/usb_framework.c ****             (uint_8)(USB_STATUS_ENDPOINT | CONTROL_ENDPOINT |
 1253              		.loc 1 576 15 is_stmt 0 view .LVU409
 1254 03ea 9021     		movs	r1, #144
 1255 03ec 0DF10100 		add	r0, sp, #1
 1256              	.LVL121:
 1257              	.L73:
 576:hal/Landungsbruecke/freescale/USB_CDC/usb_framework.c ****             (uint_8)(USB_STATUS_ENDPOINT | CONTROL_ENDPOINT |
 1258              		.loc 1 576 15 view .LVU410
 1259              	.LBE21:
 1260              	.LBE20:
 1261              	.LBB22:
 1262              	.LBB23:
 904:hal/Landungsbruecke/freescale/USB_CDC/usb_framework.c ****         g_assigned_address);
 1263              		.loc 1 904 11 view .LVU411
 1264 03f0 FFF7FEFF 		bl	_usb_device_set_status
 1265              	.LVL122:
 907:hal/Landungsbruecke/freescale/USB_CDC/usb_framework.c **** }
 1266              		.loc 1 907 5 is_stmt 1 view .LVU412
 1267              	.LBE23:
 1268              	.LBE22:
 524:hal/Landungsbruecke/freescale/USB_CDC/usb_framework.c ****     }
 1269              		.loc 1 524 9 view .LVU413
 1270 03f4 ECE7     		b	.L52
 1271              	.L53:
 519:hal/Landungsbruecke/freescale/USB_CDC/usb_framework.c ****     {
 1272              		.loc 1 519 10 view .LVU414
 519:hal/Landungsbruecke/freescale/USB_CDC/usb_framework.c ****     {
 1273              		.loc 1 519 12 is_stmt 0 view .LVU415
 1274 03f6 9DF80030 		ldrb	r3, [sp]	@ zero_extendqisi2
 1275 03fa 042B     		cmp	r3, #4
 1276 03fc 12D1     		bne	.L60
 523:hal/Landungsbruecke/freescale/USB_CDC/usb_framework.c ****         return;
 1277              		.loc 1 523 9 is_stmt 1 view .LVU416
 1278 03fe 2B78     		ldrb	r3, [r5]	@ zero_extendqisi2
 1279              	.LBB26:
 1280              	.LBB24:
 898:hal/Landungsbruecke/freescale/USB_CDC/usb_framework.c **** 
 1281              		.loc 1 898 5 is_stmt 0 view .LVU417
 1282 0400 217A     		ldrb	r1, [r4, #8]	@ zero_extendqisi2
 1283 0402 8DF80230 		strb	r3, [sp, #2]
 1284              	.LVL123:
 898:hal/Landungsbruecke/freescale/USB_CDC/usb_framework.c **** 
 1285              		.loc 1 898 5 view .LVU418
 1286              	.LBE24:
 1287              	.LBI22:
 893:hal/Landungsbruecke/freescale/USB_CDC/usb_framework.c ****     uint_8    controller_ID         /* [IN] Controller ID */
 1288              		.loc 1 893 15 is_stmt 1 view .LVU419
 1289              	.LBB25:
 898:hal/Landungsbruecke/freescale/USB_CDC/usb_framework.c **** 
 1290              		.loc 1 898 5 view .LVU420
 1291 0406 0DF10200 		add	r0, sp, #2
 1292 040a FFF7FEFF 		bl	_usb_device_set_address
 1293              	.LVL124:
 901:hal/Landungsbruecke/freescale/USB_CDC/usb_framework.c ****         USB_STATUS_DEVICE_STATE, USB_STATE_ADDRESS);
 1294              		.loc 1 901 5 view .LVU421
 901:hal/Landungsbruecke/freescale/USB_CDC/usb_framework.c ****         USB_STATUS_DEVICE_STATE, USB_STATE_ADDRESS);
 1295              		.loc 1 901 11 is_stmt 0 view .LVU422
 1296 040e 0122     		movs	r2, #1
 1297 0410 1146     		mov	r1, r2
 1298 0412 0DF10200 		add	r0, sp, #2
 1299 0416 FFF7FEFF 		bl	_usb_device_set_status
 1300              	.LVL125:
 904:hal/Landungsbruecke/freescale/USB_CDC/usb_framework.c ****         g_assigned_address);
 1301              		.loc 1 904 5 is_stmt 1 view .LVU423
 904:hal/Landungsbruecke/freescale/USB_CDC/usb_framework.c ****         g_assigned_address);
 1302              		.loc 1 904 11 is_stmt 0 view .LVU424
 1303 041a 227A     		ldrb	r2, [r4, #8]	@ zero_extendqisi2
 1304 041c 0321     		movs	r1, #3
 1305 041e 0DF10200 		add	r0, sp, #2
 1306 0422 E5E7     		b	.L73
 1307              	.L60:
 904:hal/Landungsbruecke/freescale/USB_CDC/usb_framework.c ****         g_assigned_address);
 1308              		.loc 1 904 11 view .LVU425
 1309              	.LBE25:
 1310              	.LBE26:
 526:hal/Landungsbruecke/freescale/USB_CDC/usb_framework.c ****             USB_DATA_DIREC_MASK) == USB_DATA_TO_DEVICE) &&
 1311              		.loc 1 526 10 is_stmt 1 view .LVU426
 526:hal/Landungsbruecke/freescale/USB_CDC/usb_framework.c ****             USB_DATA_DIREC_MASK) == USB_DATA_TO_DEVICE) &&
 1312              		.loc 1 526 12 is_stmt 0 view .LVU427
 1313 0424 94F90A30 		ldrsb	r3, [r4, #10]
 1314 0428 002B     		cmp	r3, #0
 1315 042a D1DB     		blt	.L52
 527:hal/Landungsbruecke/freescale/USB_CDC/usb_framework.c ****             (event->direction == USB_RECV) )
 1316              		.loc 1 527 57 view .LVU428
 1317 042c EB78     		ldrb	r3, [r5, #3]	@ zero_extendqisi2
 1318 042e 002B     		cmp	r3, #0
 1319 0430 CED1     		bne	.L52
 532:hal/Landungsbruecke/freescale/USB_CDC/usb_framework.c ****         {   /* class or vendor request */
 1320              		.loc 1 532 9 is_stmt 1 view .LVU429
 532:hal/Landungsbruecke/freescale/USB_CDC/usb_framework.c ****         {   /* class or vendor request */
 1321              		.loc 1 532 33 is_stmt 0 view .LVU430
 1322 0432 E66B     		ldr	r6, [r4, #60]
 532:hal/Landungsbruecke/freescale/USB_CDC/usb_framework.c ****         {   /* class or vendor request */
 1323              		.loc 1 532 11 view .LVU431
 1324 0434 66B1     		cbz	r6, .L62
 534:hal/Landungsbruecke/freescale/USB_CDC/usb_framework.c ****             status = g_other_req_callback(event->controller_ID,
 1325              		.loc 1 534 13 is_stmt 1 view .LVU432
 534:hal/Landungsbruecke/freescale/USB_CDC/usb_framework.c ****             status = g_other_req_callback(event->controller_ID,
 1326              		.loc 1 534 43 is_stmt 0 view .LVU433
 1327 0436 B5F80930 		ldrh	r3, [r5, #9]	@ unaligned
 535:hal/Landungsbruecke/freescale/USB_CDC/usb_framework.c ****                 &ext_req_to_host_setup, &data,
 1328              		.loc 1 535 22 view .LVU434
 1329 043a 2878     		ldrb	r0, [r5]	@ zero_extendqisi2
 534:hal/Landungsbruecke/freescale/USB_CDC/usb_framework.c ****             status = g_other_req_callback(event->controller_ID,
 1330              		.loc 1 534 20 view .LVU435
 1331 043c 0833     		adds	r3, r3, #8
 534:hal/Landungsbruecke/freescale/USB_CDC/usb_framework.c ****             status = g_other_req_callback(event->controller_ID,
 1332              		.loc 1 534 18 view .LVU436
 1333 043e ADF80230 		strh	r3, [sp, #2]	@ movhi
 535:hal/Landungsbruecke/freescale/USB_CDC/usb_framework.c ****                 &ext_req_to_host_setup, &data,
 1334              		.loc 1 535 13 is_stmt 1 view .LVU437
 535:hal/Landungsbruecke/freescale/USB_CDC/usb_framework.c ****                 &ext_req_to_host_setup, &data,
 1335              		.loc 1 535 22 is_stmt 0 view .LVU438
 1336 0442 01AA     		add	r2, sp, #4
 1337 0444 0DF10203 		add	r3, sp, #2
 1338 0448 04F11201 		add	r1, r4, #18
 1339 044c B047     		blx	r6
 1340              	.LVL126:
 1341 044e A3E7     		b	.L74
 1342              	.L62:
 446:hal/Landungsbruecke/freescale/USB_CDC/usb_framework.c ****     uint_8_ptr data = NULL;
 1343              		.loc 1 446 16 view .LVU439
 1344 0450 CD21     		movs	r1, #205
 1345 0452 A2E7     		b	.L61
 1346              	.L76:
 1347              		.align	2
 1348              	.L75:
 1349 0454 00000000 		.word	.LANCHOR0
 1350 0458 00000000 		.word	.LANCHOR1
 1351 045c 0A000000 		.word	.LANCHOR0+10
 1352              		.cfi_endproc
 1353              	.LFE3:
 1355              		.align	1
 1356              		.global	USB_Framework_Init
 1357              		.syntax unified
 1358              		.thumb
 1359              		.thumb_func
 1360              		.fpu softvfp
 1362              	USB_Framework_Init:
 1363              	.LVL127:
 1364              	.LFB0:
 296:hal/Landungsbruecke/freescale/USB_CDC/usb_framework.c ****     uint_8 error=USB_OK;
 1365              		.loc 1 296 1 is_stmt 1 view -0
 1366              		.cfi_startproc
 1367              		@ args = 0, pretend = 0, frame = 0
 1368              		@ frame_needed = 0, uses_anonymous_args = 0
 1369              		@ link register save eliminated.
 297:hal/Landungsbruecke/freescale/USB_CDC/usb_framework.c **** 
 1370              		.loc 1 297 5 view .LVU441
 300:hal/Landungsbruecke/freescale/USB_CDC/usb_framework.c ****     g_other_req_callback = other_req_callback;
 1371              		.loc 1 300 5 view .LVU442
 300:hal/Landungsbruecke/freescale/USB_CDC/usb_framework.c ****     g_other_req_callback = other_req_callback;
 1372              		.loc 1 300 26 is_stmt 0 view .LVU443
 1373 0460 034B     		ldr	r3, .L78
 1374 0462 5960     		str	r1, [r3, #4]
 301:hal/Landungsbruecke/freescale/USB_CDC/usb_framework.c **** 
 1375              		.loc 1 301 5 is_stmt 1 view .LVU444
 301:hal/Landungsbruecke/freescale/USB_CDC/usb_framework.c **** 
 1376              		.loc 1 301 26 is_stmt 0 view .LVU445
 1377 0464 DA63     		str	r2, [r3, #60]
 304:hal/Landungsbruecke/freescale/USB_CDC/usb_framework.c **** 
 1378              		.loc 1 304 5 is_stmt 1 view .LVU446
 304:hal/Landungsbruecke/freescale/USB_CDC/usb_framework.c **** 
 1379              		.loc 1 304 13 is_stmt 0 view .LVU447
 1380 0466 0021     		movs	r1, #0
 1381              	.LVL128:
 304:hal/Landungsbruecke/freescale/USB_CDC/usb_framework.c **** 
 1382              		.loc 1 304 13 view .LVU448
 1383 0468 024A     		ldr	r2, .L78+4
 1384              	.LVL129:
 304:hal/Landungsbruecke/freescale/USB_CDC/usb_framework.c **** 
 1385              		.loc 1 304 13 view .LVU449
 1386 046a FFF7FEBF 		b	_usb_device_register_service
 1387              	.LVL130:
 1388              	.L79:
 304:hal/Landungsbruecke/freescale/USB_CDC/usb_framework.c **** 
 1389              		.loc 1 304 13 view .LVU450
 1390 046e 00BF     		.align	2
 1391              	.L78:
 1392 0470 00000000 		.word	.LANCHOR0
 1393 0474 00000000 		.word	USB_Control_Service
 1394              		.cfi_endproc
 1395              	.LFE0:
 1397              		.align	1
 1398              		.global	USB_Framework_DeInit
 1399              		.syntax unified
 1400              		.thumb
 1401              		.thumb_func
 1402              		.fpu softvfp
 1404              	USB_Framework_DeInit:
 1405              	.LVL131:
 1406              	.LFB1:
 335:hal/Landungsbruecke/freescale/USB_CDC/usb_framework.c ****     uint_8 error;
 1407              		.loc 1 335 1 is_stmt 1 view -0
 1408              		.cfi_startproc
 1409              		@ args = 0, pretend = 0, frame = 8
 1410              		@ frame_needed = 0, uses_anonymous_args = 0
 336:hal/Landungsbruecke/freescale/USB_CDC/usb_framework.c ****     /* Free framwork_callback */
 1411              		.loc 1 336 5 view .LVU452
 338:hal/Landungsbruecke/freescale/USB_CDC/usb_framework.c **** 
 1412              		.loc 1 338 5 view .LVU453
 335:hal/Landungsbruecke/freescale/USB_CDC/usb_framework.c ****     uint_8 error;
 1413              		.loc 1 335 1 is_stmt 0 view .LVU454
 1414 0478 07B5     		push	{r0, r1, r2, lr}
 1415              	.LCFI27:
 1416              		.cfi_def_cfa_offset 16
 1417              		.cfi_offset 14, -4
 338:hal/Landungsbruecke/freescale/USB_CDC/usb_framework.c **** 
 1418              		.loc 1 338 26 view .LVU455
 1419 047a 064B     		ldr	r3, .L81
 335:hal/Landungsbruecke/freescale/USB_CDC/usb_framework.c ****     uint_8 error;
 1420              		.loc 1 335 1 view .LVU456
 1421 047c 8DF80700 		strb	r0, [sp, #7]
 338:hal/Landungsbruecke/freescale/USB_CDC/usb_framework.c **** 
 1422              		.loc 1 338 26 view .LVU457
 1423 0480 0021     		movs	r1, #0
 344:hal/Landungsbruecke/freescale/USB_CDC/usb_framework.c **** 
 1424              		.loc 1 344 13 view .LVU458
 1425 0482 0DF10700 		add	r0, sp, #7
 1426              	.LVL132:
 338:hal/Landungsbruecke/freescale/USB_CDC/usb_framework.c **** 
 1427              		.loc 1 338 26 view .LVU459
 1428 0486 5960     		str	r1, [r3, #4]
 341:hal/Landungsbruecke/freescale/USB_CDC/usb_framework.c **** 
 1429              		.loc 1 341 5 is_stmt 1 view .LVU460
 341:hal/Landungsbruecke/freescale/USB_CDC/usb_framework.c **** 
 1430              		.loc 1 341 26 is_stmt 0 view .LVU461
 1431 0488 D963     		str	r1, [r3, #60]
 344:hal/Landungsbruecke/freescale/USB_CDC/usb_framework.c **** 
 1432              		.loc 1 344 5 is_stmt 1 view .LVU462
 344:hal/Landungsbruecke/freescale/USB_CDC/usb_framework.c **** 
 1433              		.loc 1 344 13 is_stmt 0 view .LVU463
 1434 048a FFF7FEFF 		bl	_usb_device_unregister_service
 1435              	.LVL133:
 347:hal/Landungsbruecke/freescale/USB_CDC/usb_framework.c **** }
 1436              		.loc 1 347 5 is_stmt 1 view .LVU464
 348:hal/Landungsbruecke/freescale/USB_CDC/usb_framework.c **** #ifdef DELAYED_PROCESSING
 1437              		.loc 1 348 1 is_stmt 0 view .LVU465
 1438 048e 03B0     		add	sp, sp, #12
 1439              	.LCFI28:
 1440              		.cfi_def_cfa_offset 4
 1441              		@ sp needed
 1442 0490 5DF804FB 		ldr	pc, [sp], #4
 1443              	.L82:
 1444              		.align	2
 1445              	.L81:
 1446 0494 00000000 		.word	.LANCHOR0
 1447              		.cfi_endproc
 1448              	.LFE1:
 1450              		.align	1
 1451              		.global	USB_Framework_Reset
 1452              		.syntax unified
 1453              		.thumb
 1454              		.thumb_func
 1455              		.fpu softvfp
 1457              	USB_Framework_Reset:
 1458              	.LVL134:
 1459              	.LFB2:
 391:hal/Landungsbruecke/freescale/USB_CDC/usb_framework.c ****     UNUSED (controller_ID);
 1460              		.loc 1 391 1 is_stmt 1 view -0
 1461              		.cfi_startproc
 1462              		@ args = 0, pretend = 0, frame = 0
 1463              		@ frame_needed = 0, uses_anonymous_args = 0
 1464              		@ link register save eliminated.
 392:hal/Landungsbruecke/freescale/USB_CDC/usb_framework.c ****     return USB_OK;
 1465              		.loc 1 392 5 view .LVU467
 392:hal/Landungsbruecke/freescale/USB_CDC/usb_framework.c ****     return USB_OK;
 1466              		.loc 1 392 27 view .LVU468
 393:hal/Landungsbruecke/freescale/USB_CDC/usb_framework.c **** }
 1467              		.loc 1 393 5 view .LVU469
 394:hal/Landungsbruecke/freescale/USB_CDC/usb_framework.c **** 
 1468              		.loc 1 394 1 is_stmt 0 view .LVU470
 1469 0498 0020     		movs	r0, #0
 1470              	.LVL135:
 394:hal/Landungsbruecke/freescale/USB_CDC/usb_framework.c **** 
 1471              		.loc 1 394 1 view .LVU471
 1472 049a 7047     		bx	lr
 1473              		.cfi_endproc
 1474              	.LFE2:
 1476              		.global	g_standard_request
 1477              		.global	g_validate_request
 1478              		.comm	Cpu,8,4
 1479              		.section	.rodata
 1480              		.align	2
 1481              		.set	.LANCHOR1,. + 0
 1484              	g_standard_request:
 1485 0000 00000000 		.word	USB_Strd_Req_Get_Status
 1486 0004 00000000 		.word	USB_Strd_Req_Feature
 1487 0008 00000000 		.word	0
 1488 000c 00000000 		.word	USB_Strd_Req_Feature
 1489 0010 00000000 		.word	0
 1490 0014 00000000 		.word	USB_Strd_Req_Set_Address
 1491 0018 00000000 		.word	USB_Strd_Req_Get_Descriptor
 1492 001c 00000000 		.word	0
 1493 0020 00000000 		.word	USB_Strd_Req_Get_Config
 1494 0024 00000000 		.word	USB_Strd_Req_Set_Config
 1495 0028 00000000 		.word	USB_Strd_Req_Get_Interface
 1496 002c 00000000 		.word	USB_Strd_Req_Set_Interface
 1497 0030 00000000 		.word	USB_Strd_Req_Sync_Frame
 1500              	g_validate_request:
 1501 0034 010100   		.ascii	"\001\001\000"
 1502 0037 010100   		.ascii	"\001\001\000"
 1503 003a 000000   		.ascii	"\000\000\000"
 1504 003d 010100   		.ascii	"\001\001\000"
 1505 0040 000000   		.ascii	"\000\000\000"
 1506 0043 000101   		.ascii	"\000\001\001"
 1507 0046 010101   		.ascii	"\001\001\001"
 1508 0049 000000   		.ascii	"\000\000\000"
 1509 004c 010100   		.ascii	"\001\001\000"
 1510 004f 010100   		.ascii	"\001\001\000"
 1511 0052 010000   		.ascii	"\001\000\000"
 1512 0055 010000   		.ascii	"\001\000\000"
 1513 0058 010000   		.ascii	"\001\000\000"
 1514              		.bss
 1515              		.align	2
 1516              		.set	.LANCHOR0,. + 0
 1519              	g_std_framework_data:
 1520 0000 0000     		.space	2
 1521 0002 0000     		.space	2
 1524              	g_framework_callback:
 1525 0004 00000000 		.space	4
 1528              	g_assigned_address:
 1529 0008 00       		.space	1
 1530 0009 00       		.space	1
 1533              	g_setup_pkt:
 1534 000a 00000000 		.space	8
 1534      00000000 
 1537              	ext_req_to_host_setup:
 1538 0012 00000000 		.space	8
 1538      00000000 
 1541              	ext_req_to_host_buffer:
 1542 001a 00000000 		.space	32
 1542      00000000 
 1542      00000000 
 1542      00000000 
 1542      00000000 
 1543 003a 0000     		.space	2
 1546              	g_other_req_callback:
 1547 003c 00000000 		.space	4
 1548              		.text
 1549              	.Letext0:
 1550              		.file 2 "hal/Landungsbruecke/freescale/USB_CDC/types.h"
 1551              		.file 3 "c:\\program files (x86)\\gnu arm embedded toolchain\\9 2020-q2-update\\arm-none-eabi\\inc
 1552              		.file 4 "c:\\program files (x86)\\gnu arm embedded toolchain\\9 2020-q2-update\\arm-none-eabi\\inc
 1553              		.file 5 "TMC-API/tmc/helpers/Types.h"
 1554              		.file 6 "c:\\program files (x86)\\gnu arm embedded toolchain\\9 2020-q2-update\\lib\\gcc\\arm-none
 1555              		.file 7 "c:\\program files (x86)\\gnu arm embedded toolchain\\9 2020-q2-update\\arm-none-eabi\\inc
 1556              		.file 8 "c:\\program files (x86)\\gnu arm embedded toolchain\\9 2020-q2-update\\arm-none-eabi\\inc
 1557              		.file 9 "c:\\program files (x86)\\gnu arm embedded toolchain\\9 2020-q2-update\\arm-none-eabi\\inc
 1558              		.file 10 "c:\\program files (x86)\\gnu arm embedded toolchain\\9 2020-q2-update\\arm-none-eabi\\in
 1559              		.file 11 "./hal/Landungsbruecke/freescale/USB_CDC/PE_Types.h"
 1560              		.file 12 "./hal/Landungsbruecke/freescale/Cpu.h"
 1561              		.file 13 "hal/Landungsbruecke/freescale/USB_CDC/usb_devapi.h"
 1562              		.file 14 "hal/Landungsbruecke/freescale/USB_CDC/usb_class.h"
 1563              		.file 15 "hal/Landungsbruecke/freescale/USB_CDC/usb_descriptor.h"
DEFINED SYMBOLS
                            *ABS*:00000000 usb_framework.c
C:\Users\Shubham\AppData\Local\Temp\ccC2mv3r.s:15     .text:00000000 $t
C:\Users\Shubham\AppData\Local\Temp\ccC2mv3r.s:22     .text:00000000 USB_Strd_Req_Sync_Frame
C:\Users\Shubham\AppData\Local\Temp\ccC2mv3r.s:82     .text:00000028 $d
C:\Users\Shubham\AppData\Local\Temp\ccC2mv3r.s:86     .text:0000002c $t
C:\Users\Shubham\AppData\Local\Temp\ccC2mv3r.s:92     .text:0000002c USB_Strd_Req_Get_Config
C:\Users\Shubham\AppData\Local\Temp\ccC2mv3r.s:153    .text:00000058 $d
C:\Users\Shubham\AppData\Local\Temp\ccC2mv3r.s:157    .text:0000005c $t
C:\Users\Shubham\AppData\Local\Temp\ccC2mv3r.s:163    .text:0000005c USB_Strd_Req_Set_Config
C:\Users\Shubham\AppData\Local\Temp\ccC2mv3r.s:265    .text:000000bc $d
C:\Users\Shubham\AppData\Local\Temp\ccC2mv3r.s:269    .text:000000c0 $t
C:\Users\Shubham\AppData\Local\Temp\ccC2mv3r.s:275    .text:000000c0 USB_Strd_Req_Set_Address
C:\Users\Shubham\AppData\Local\Temp\ccC2mv3r.s:332    .text:000000e4 $d
C:\Users\Shubham\AppData\Local\Temp\ccC2mv3r.s:336    .text:000000e8 $t
C:\Users\Shubham\AppData\Local\Temp\ccC2mv3r.s:342    .text:000000e8 USB_Strd_Req_Get_Descriptor
C:\Users\Shubham\AppData\Local\Temp\ccC2mv3r.s:397    .text:000000fe USB_Strd_Req_Get_Status
C:\Users\Shubham\AppData\Local\Temp\ccC2mv3r.s:598    .text:000001c4 $d
C:\Users\Shubham\AppData\Local\Temp\ccC2mv3r.s:602    .text:000001c8 $t
C:\Users\Shubham\AppData\Local\Temp\ccC2mv3r.s:608    .text:000001c8 USB_Strd_Req_Feature
C:\Users\Shubham\AppData\Local\Temp\ccC2mv3r.s:824    .text:00000294 $d
C:\Users\Shubham\AppData\Local\Temp\ccC2mv3r.s:828    .text:00000298 $t
C:\Users\Shubham\AppData\Local\Temp\ccC2mv3r.s:834    .text:00000298 USB_Strd_Req_Set_Interface
C:\Users\Shubham\AppData\Local\Temp\ccC2mv3r.s:903    .text:000002b8 USB_Strd_Req_Get_Interface
C:\Users\Shubham\AppData\Local\Temp\ccC2mv3r.s:968    .text:000002dc $d
C:\Users\Shubham\AppData\Local\Temp\ccC2mv3r.s:972    .text:000002e0 $t
C:\Users\Shubham\AppData\Local\Temp\ccC2mv3r.s:978    .text:000002e0 USB_Control_Service_Handler.constprop.0
C:\Users\Shubham\AppData\Local\Temp\ccC2mv3r.s:1069   .text:00000330 $d
C:\Users\Shubham\AppData\Local\Temp\ccC2mv3r.s:1073   .text:00000334 $t
C:\Users\Shubham\AppData\Local\Temp\ccC2mv3r.s:1080   .text:00000334 USB_Control_Service
C:\Users\Shubham\AppData\Local\Temp\ccC2mv3r.s:1349   .text:00000454 $d
C:\Users\Shubham\AppData\Local\Temp\ccC2mv3r.s:1355   .text:00000460 $t
C:\Users\Shubham\AppData\Local\Temp\ccC2mv3r.s:1362   .text:00000460 USB_Framework_Init
C:\Users\Shubham\AppData\Local\Temp\ccC2mv3r.s:1392   .text:00000470 $d
C:\Users\Shubham\AppData\Local\Temp\ccC2mv3r.s:1397   .text:00000478 $t
C:\Users\Shubham\AppData\Local\Temp\ccC2mv3r.s:1404   .text:00000478 USB_Framework_DeInit
C:\Users\Shubham\AppData\Local\Temp\ccC2mv3r.s:1446   .text:00000494 $d
C:\Users\Shubham\AppData\Local\Temp\ccC2mv3r.s:1450   .text:00000498 $t
C:\Users\Shubham\AppData\Local\Temp\ccC2mv3r.s:1457   .text:00000498 USB_Framework_Reset
C:\Users\Shubham\AppData\Local\Temp\ccC2mv3r.s:1484   .rodata:00000000 g_standard_request
C:\Users\Shubham\AppData\Local\Temp\ccC2mv3r.s:1500   .rodata:00000034 g_validate_request
                            *COM*:00000008 Cpu
C:\Users\Shubham\AppData\Local\Temp\ccC2mv3r.s:1480   .rodata:00000000 $d
C:\Users\Shubham\AppData\Local\Temp\ccC2mv3r.s:1515   .bss:00000000 $d
C:\Users\Shubham\AppData\Local\Temp\ccC2mv3r.s:1519   .bss:00000000 g_std_framework_data
C:\Users\Shubham\AppData\Local\Temp\ccC2mv3r.s:1524   .bss:00000004 g_framework_callback
C:\Users\Shubham\AppData\Local\Temp\ccC2mv3r.s:1528   .bss:00000008 g_assigned_address
C:\Users\Shubham\AppData\Local\Temp\ccC2mv3r.s:1533   .bss:0000000a g_setup_pkt
C:\Users\Shubham\AppData\Local\Temp\ccC2mv3r.s:1537   .bss:00000012 ext_req_to_host_setup
C:\Users\Shubham\AppData\Local\Temp\ccC2mv3r.s:1541   .bss:0000001a ext_req_to_host_buffer
C:\Users\Shubham\AppData\Local\Temp\ccC2mv3r.s:1546   .bss:0000003c g_other_req_callback

UNDEFINED SYMBOLS
_usb_device_get_status
USB_Desc_Valid_Configation
_usb_device_set_status
USB_Desc_Get_Descriptor
_usb_device_clear_data0_endpoint
USB_Desc_Set_Interface
USB_Desc_Get_Interface
USB_Class_Send_Data
_usb_device_recv_data
_usb_device_set_address
_usb_device_register_service
_usb_device_unregister_service
